
C:\Users\danao\Desktop\Games\Source\pong\cube\pong_game\TrueSTUDIO\pong_game\Debug\pong_game.elf:     file format elf32-littlearm

Sections:
Idx Name          Size      VMA       LMA       File off  Algn
  0 .isr_vector   000001ac  08000000  08000000  00010000  2**0
                  CONTENTS, ALLOC, LOAD, READONLY, DATA
  1 .text         00007044  080001b0  080001b0  000101b0  2**4
                  CONTENTS, ALLOC, LOAD, READONLY, CODE
  2 .rodata       0000e488  080071f4  080071f4  000171f4  2**2
                  CONTENTS, ALLOC, LOAD, READONLY, DATA
  3 .init_array   00000004  0801567c  0801567c  0002567c  2**2
                  CONTENTS, ALLOC, LOAD, DATA
  4 .fini_array   00000004  08015680  08015680  00025680  2**2
                  CONTENTS, ALLOC, LOAD, DATA
  5 .data         00000474  20000000  08015684  00030000  2**2
                  CONTENTS, ALLOC, LOAD, DATA
  6 .ccmram       00000000  10000000  10000000  00030474  2**0
                  CONTENTS
  7 .bss          000009c0  20000474  20000474  00030474  2**2
                  ALLOC
  8 ._user_heap_stack 00000600  20000e34  20000e34  00030474  2**0
                  ALLOC
  9 .ARM.attributes 00000030  00000000  00000000  00030474  2**0
                  CONTENTS, READONLY
 10 .debug_line   0001305d  00000000  00000000  000304a4  2**0
                  CONTENTS, READONLY, DEBUGGING
 11 .debug_info   00044ab2  00000000  00000000  00043501  2**0
                  CONTENTS, READONLY, DEBUGGING
 12 .debug_abbrev 00007880  00000000  00000000  00087fb3  2**0
                  CONTENTS, READONLY, DEBUGGING
 13 .debug_aranges 00001818  00000000  00000000  0008f838  2**3
                  CONTENTS, READONLY, DEBUGGING
 14 .debug_ranges 00002040  00000000  00000000  00091050  2**3
                  CONTENTS, READONLY, DEBUGGING
 15 .debug_loc    00011c3d  00000000  00000000  00093090  2**0
                  CONTENTS, READONLY, DEBUGGING
 16 .debug_str    00007cea  00000000  00000000  000a4ccd  2**0
                  CONTENTS, READONLY, DEBUGGING
 17 .comment      0000007c  00000000  00000000  000ac9b7  2**0
                  CONTENTS, READONLY
 18 .debug_frame  00004a74  00000000  00000000  000aca34  2**2
                  CONTENTS, READONLY, DEBUGGING

Disassembly of section .text:

080001b0 <__do_global_dtors_aux>:
 80001b0:	b510      	push	{r4, lr}
 80001b2:	4c05      	ldr	r4, [pc, #20]	; (80001c8 <__do_global_dtors_aux+0x18>)
 80001b4:	7823      	ldrb	r3, [r4, #0]
 80001b6:	b933      	cbnz	r3, 80001c6 <__do_global_dtors_aux+0x16>
 80001b8:	4b04      	ldr	r3, [pc, #16]	; (80001cc <__do_global_dtors_aux+0x1c>)
 80001ba:	b113      	cbz	r3, 80001c2 <__do_global_dtors_aux+0x12>
 80001bc:	4804      	ldr	r0, [pc, #16]	; (80001d0 <__do_global_dtors_aux+0x20>)
 80001be:	f3af 8000 	nop.w
 80001c2:	2301      	movs	r3, #1
 80001c4:	7023      	strb	r3, [r4, #0]
 80001c6:	bd10      	pop	{r4, pc}
 80001c8:	20000474 	.word	0x20000474
 80001cc:	00000000 	.word	0x00000000
 80001d0:	080071dc 	.word	0x080071dc

080001d4 <frame_dummy>:
 80001d4:	b508      	push	{r3, lr}
 80001d6:	4b03      	ldr	r3, [pc, #12]	; (80001e4 <frame_dummy+0x10>)
 80001d8:	b11b      	cbz	r3, 80001e2 <frame_dummy+0xe>
 80001da:	4903      	ldr	r1, [pc, #12]	; (80001e8 <frame_dummy+0x14>)
 80001dc:	4803      	ldr	r0, [pc, #12]	; (80001ec <frame_dummy+0x18>)
 80001de:	f3af 8000 	nop.w
 80001e2:	bd08      	pop	{r3, pc}
 80001e4:	00000000 	.word	0x00000000
 80001e8:	20000478 	.word	0x20000478
 80001ec:	080071dc 	.word	0x080071dc

080001f0 <strlen>:
 80001f0:	4603      	mov	r3, r0
 80001f2:	f813 2b01 	ldrb.w	r2, [r3], #1
 80001f6:	2a00      	cmp	r2, #0
 80001f8:	d1fb      	bne.n	80001f2 <strlen+0x2>
 80001fa:	1a18      	subs	r0, r3, r0
 80001fc:	3801      	subs	r0, #1
 80001fe:	4770      	bx	lr

08000200 <memchr>:
 8000200:	f001 01ff 	and.w	r1, r1, #255	; 0xff
 8000204:	2a10      	cmp	r2, #16
 8000206:	db2b      	blt.n	8000260 <memchr+0x60>
 8000208:	f010 0f07 	tst.w	r0, #7
 800020c:	d008      	beq.n	8000220 <memchr+0x20>
 800020e:	f810 3b01 	ldrb.w	r3, [r0], #1
 8000212:	3a01      	subs	r2, #1
 8000214:	428b      	cmp	r3, r1
 8000216:	d02d      	beq.n	8000274 <memchr+0x74>
 8000218:	f010 0f07 	tst.w	r0, #7
 800021c:	b342      	cbz	r2, 8000270 <memchr+0x70>
 800021e:	d1f6      	bne.n	800020e <memchr+0xe>
 8000220:	b4f0      	push	{r4, r5, r6, r7}
 8000222:	ea41 2101 	orr.w	r1, r1, r1, lsl #8
 8000226:	ea41 4101 	orr.w	r1, r1, r1, lsl #16
 800022a:	f022 0407 	bic.w	r4, r2, #7
 800022e:	f07f 0700 	mvns.w	r7, #0
 8000232:	2300      	movs	r3, #0
 8000234:	e8f0 5602 	ldrd	r5, r6, [r0], #8
 8000238:	3c08      	subs	r4, #8
 800023a:	ea85 0501 	eor.w	r5, r5, r1
 800023e:	ea86 0601 	eor.w	r6, r6, r1
 8000242:	fa85 f547 	uadd8	r5, r5, r7
 8000246:	faa3 f587 	sel	r5, r3, r7
 800024a:	fa86 f647 	uadd8	r6, r6, r7
 800024e:	faa5 f687 	sel	r6, r5, r7
 8000252:	b98e      	cbnz	r6, 8000278 <memchr+0x78>
 8000254:	d1ee      	bne.n	8000234 <memchr+0x34>
 8000256:	bcf0      	pop	{r4, r5, r6, r7}
 8000258:	f001 01ff 	and.w	r1, r1, #255	; 0xff
 800025c:	f002 0207 	and.w	r2, r2, #7
 8000260:	b132      	cbz	r2, 8000270 <memchr+0x70>
 8000262:	f810 3b01 	ldrb.w	r3, [r0], #1
 8000266:	3a01      	subs	r2, #1
 8000268:	ea83 0301 	eor.w	r3, r3, r1
 800026c:	b113      	cbz	r3, 8000274 <memchr+0x74>
 800026e:	d1f8      	bne.n	8000262 <memchr+0x62>
 8000270:	2000      	movs	r0, #0
 8000272:	4770      	bx	lr
 8000274:	3801      	subs	r0, #1
 8000276:	4770      	bx	lr
 8000278:	2d00      	cmp	r5, #0
 800027a:	bf06      	itte	eq
 800027c:	4635      	moveq	r5, r6
 800027e:	3803      	subeq	r0, #3
 8000280:	3807      	subne	r0, #7
 8000282:	f015 0f01 	tst.w	r5, #1
 8000286:	d107      	bne.n	8000298 <memchr+0x98>
 8000288:	3001      	adds	r0, #1
 800028a:	f415 7f80 	tst.w	r5, #256	; 0x100
 800028e:	bf02      	ittt	eq
 8000290:	3001      	addeq	r0, #1
 8000292:	f415 3fc0 	tsteq.w	r5, #98304	; 0x18000
 8000296:	3001      	addeq	r0, #1
 8000298:	bcf0      	pop	{r4, r5, r6, r7}
 800029a:	3801      	subs	r0, #1
 800029c:	4770      	bx	lr
 800029e:	bf00      	nop

080002a0 <Reset_Handler>:

    .section  .text.Reset_Handler
  .weak  Reset_Handler
  .type  Reset_Handler, %function
Reset_Handler: 
  ldr   sp, =_estack       /* set stack pointer */
 80002a0:	f8df d034 	ldr.w	sp, [pc, #52]	; 80002d8 <LoopFillZerobss+0x14>
 
/* Copy the data segment initializers from flash to SRAM */  
  movs  r1, #0
 80002a4:	2100      	movs	r1, #0
  b  LoopCopyDataInit
 80002a6:	e003      	b.n	80002b0 <LoopCopyDataInit>

080002a8 <CopyDataInit>:

CopyDataInit:
  ldr  r3, =_sidata
 80002a8:	4b0c      	ldr	r3, [pc, #48]	; (80002dc <LoopFillZerobss+0x18>)
  ldr  r3, [r3, r1]
 80002aa:	585b      	ldr	r3, [r3, r1]
  str  r3, [r0, r1]
 80002ac:	5043      	str	r3, [r0, r1]
  adds  r1, r1, #4
 80002ae:	3104      	adds	r1, #4

080002b0 <LoopCopyDataInit>:
    
LoopCopyDataInit:
  ldr  r0, =_sdata
 80002b0:	480b      	ldr	r0, [pc, #44]	; (80002e0 <LoopFillZerobss+0x1c>)
  ldr  r3, =_edata
 80002b2:	4b0c      	ldr	r3, [pc, #48]	; (80002e4 <LoopFillZerobss+0x20>)
  adds  r2, r0, r1
 80002b4:	1842      	adds	r2, r0, r1
  cmp  r2, r3
 80002b6:	429a      	cmp	r2, r3
  bcc  CopyDataInit
 80002b8:	d3f6      	bcc.n	80002a8 <CopyDataInit>
  ldr  r2, =_sbss
 80002ba:	4a0b      	ldr	r2, [pc, #44]	; (80002e8 <LoopFillZerobss+0x24>)
  b  LoopFillZerobss
 80002bc:	e002      	b.n	80002c4 <LoopFillZerobss>

080002be <FillZerobss>:
/* Zero fill the bss segment. */  
FillZerobss:
  movs  r3, #0
 80002be:	2300      	movs	r3, #0
  str  r3, [r2], #4
 80002c0:	f842 3b04 	str.w	r3, [r2], #4

080002c4 <LoopFillZerobss>:
    
LoopFillZerobss:
  ldr  r3, = _ebss
 80002c4:	4b09      	ldr	r3, [pc, #36]	; (80002ec <LoopFillZerobss+0x28>)
  cmp  r2, r3
 80002c6:	429a      	cmp	r2, r3
  bcc  FillZerobss
 80002c8:	d3f9      	bcc.n	80002be <FillZerobss>

/* Call the clock system intitialization function.*/
  bl  SystemInit   
 80002ca:	f001 fb59 	bl	8001980 <SystemInit>
/* Call static constructors */
    bl __libc_init_array
 80002ce:	f006 fb2d 	bl	800692c <__libc_init_array>
/* Call the application's entry point.*/
  bl  main
 80002d2:	f000 fc71 	bl	8000bb8 <main>
  bx  lr    
 80002d6:	4770      	bx	lr
  ldr   sp, =_estack       /* set stack pointer */
 80002d8:	20030000 	.word	0x20030000
  ldr  r3, =_sidata
 80002dc:	08015684 	.word	0x08015684
  ldr  r0, =_sdata
 80002e0:	20000000 	.word	0x20000000
  ldr  r3, =_edata
 80002e4:	20000474 	.word	0x20000474
  ldr  r2, =_sbss
 80002e8:	20000474 	.word	0x20000474
  ldr  r3, = _ebss
 80002ec:	20000e34 	.word	0x20000e34

080002f0 <ADC_IRQHandler>:
 * @retval None       
*/
    .section  .text.Default_Handler,"ax",%progbits
Default_Handler:
Infinite_Loop:
  b  Infinite_Loop
 80002f0:	e7fe      	b.n	80002f0 <ADC_IRQHandler>
	...

080002f4 <MX_ADC1_Init>:
ADC_HandleTypeDef hadc1;
DMA_HandleTypeDef hdma_adc1;

/* ADC1 init function */
void MX_ADC1_Init(void)
{
 80002f4:	b51f      	push	{r0, r1, r2, r3, r4, lr}
  ADC_ChannelConfTypeDef sConfig;

    /**Configure the global features of the ADC (Clock, Resolution, Data Alignment and number of conversion) 
    */
  hadc1.Instance = ADC1;
 80002f6:	4815      	ldr	r0, [pc, #84]	; (800034c <MX_ADC1_Init+0x58>)
  hadc1.Init.ClockPrescaler = ADC_CLOCK_SYNC_PCLK_DIV4;
 80002f8:	4b15      	ldr	r3, [pc, #84]	; (8000350 <MX_ADC1_Init+0x5c>)
  hadc1.Init.Resolution = ADC_RESOLUTION_12B;
  hadc1.Init.ScanConvMode = ENABLE;
  hadc1.Init.ContinuousConvMode = ENABLE;
  hadc1.Init.DiscontinuousConvMode = DISABLE;
  hadc1.Init.ExternalTrigConvEdge = ADC_EXTERNALTRIGCONVEDGE_NONE;
  hadc1.Init.ExternalTrigConv = ADC_SOFTWARE_START;
 80002fa:	4916      	ldr	r1, [pc, #88]	; (8000354 <MX_ADC1_Init+0x60>)
 80002fc:	6281      	str	r1, [r0, #40]	; 0x28
  hadc1.Init.ClockPrescaler = ADC_CLOCK_SYNC_PCLK_DIV4;
 80002fe:	f44f 3c80 	mov.w	ip, #65536	; 0x10000
  hadc1.Init.Resolution = ADC_RESOLUTION_12B;
 8000302:	2200      	movs	r2, #0
  hadc1.Init.ClockPrescaler = ADC_CLOCK_SYNC_PCLK_DIV4;
 8000304:	e880 1008 	stmia.w	r0, {r3, ip}
  hadc1.Init.ScanConvMode = ENABLE;
 8000308:	2301      	movs	r3, #1
  hadc1.Init.Resolution = ADC_RESOLUTION_12B;
 800030a:	6082      	str	r2, [r0, #8]
  hadc1.Init.ScanConvMode = ENABLE;
 800030c:	6103      	str	r3, [r0, #16]
  hadc1.Init.ContinuousConvMode = ENABLE;
 800030e:	6183      	str	r3, [r0, #24]
  hadc1.Init.DiscontinuousConvMode = DISABLE;
 8000310:	6202      	str	r2, [r0, #32]
  hadc1.Init.ExternalTrigConvEdge = ADC_EXTERNALTRIGCONVEDGE_NONE;
 8000312:	62c2      	str	r2, [r0, #44]	; 0x2c
  hadc1.Init.DataAlign = ADC_DATAALIGN_RIGHT;
 8000314:	60c2      	str	r2, [r0, #12]
  hadc1.Init.NbrOfConversion = 1;
 8000316:	61c3      	str	r3, [r0, #28]
  hadc1.Init.DMAContinuousRequests = ENABLE;
 8000318:	6303      	str	r3, [r0, #48]	; 0x30
  hadc1.Init.EOCSelection = ADC_EOC_SINGLE_CONV;
 800031a:	6143      	str	r3, [r0, #20]
  if (HAL_ADC_Init(&hadc1) != HAL_OK)
 800031c:	f001 fb8e 	bl	8001a3c <HAL_ADC_Init>
 8000320:	b118      	cbz	r0, 800032a <MX_ADC1_Init+0x36>
  {
    _Error_Handler(__FILE__, __LINE__);
 8000322:	214a      	movs	r1, #74	; 0x4a
 8000324:	480c      	ldr	r0, [pc, #48]	; (8000358 <MX_ADC1_Init+0x64>)
 8000326:	f000 fcf3 	bl	8000d10 <_Error_Handler>

    /**Configure for the selected ADC regular channel its corresponding rank in the sequencer and its sample time. 
    */
  sConfig.Channel = ADC_CHANNEL_13;
  sConfig.Rank = 1;
  sConfig.SamplingTime = ADC_SAMPLETIME_480CYCLES;
 800032a:	210d      	movs	r1, #13
 800032c:	2201      	movs	r2, #1
 800032e:	2307      	movs	r3, #7
 8000330:	e88d 000e 	stmia.w	sp, {r1, r2, r3}
  if (HAL_ADC_ConfigChannel(&hadc1, &sConfig) != HAL_OK)
 8000334:	4805      	ldr	r0, [pc, #20]	; (800034c <MX_ADC1_Init+0x58>)
 8000336:	4669      	mov	r1, sp
 8000338:	f001 fd94 	bl	8001e64 <HAL_ADC_ConfigChannel>
 800033c:	b118      	cbz	r0, 8000346 <MX_ADC1_Init+0x52>
  {
    _Error_Handler(__FILE__, __LINE__);
 800033e:	2154      	movs	r1, #84	; 0x54
 8000340:	4805      	ldr	r0, [pc, #20]	; (8000358 <MX_ADC1_Init+0x64>)
 8000342:	f000 fce5 	bl	8000d10 <_Error_Handler>
  }

}
 8000346:	b005      	add	sp, #20
 8000348:	f85d fb04 	ldr.w	pc, [sp], #4
 800034c:	20000a58 	.word	0x20000a58
 8000350:	40012000 	.word	0x40012000
 8000354:	0f000001 	.word	0x0f000001
 8000358:	080071f4 	.word	0x080071f4

0800035c <HAL_ADC_MspInit>:

void HAL_ADC_MspInit(ADC_HandleTypeDef* adcHandle)
{
 800035c:	b570      	push	{r4, r5, r6, lr}

  GPIO_InitTypeDef GPIO_InitStruct;
  if(adcHandle->Instance==ADC1)
 800035e:	6802      	ldr	r2, [r0, #0]
 8000360:	4b1d      	ldr	r3, [pc, #116]	; (80003d8 <HAL_ADC_MspInit+0x7c>)
 8000362:	429a      	cmp	r2, r3
{
 8000364:	b086      	sub	sp, #24
 8000366:	4606      	mov	r6, r0
  if(adcHandle->Instance==ADC1)
 8000368:	d133      	bne.n	80003d2 <HAL_ADC_MspInit+0x76>
  {
  /* USER CODE BEGIN ADC1_MspInit 0 */

  /* USER CODE END ADC1_MspInit 0 */
    /* ADC1 clock enable */
    __HAL_RCC_ADC1_CLK_ENABLE();
 800036a:	2500      	movs	r5, #0
 800036c:	f503 338c 	add.w	r3, r3, #71680	; 0x11800
 8000370:	9500      	str	r5, [sp, #0]
 8000372:	6c5a      	ldr	r2, [r3, #68]	; 0x44
    PC3     ------> ADC1_IN13 
    */
    GPIO_InitStruct.Pin = GPIO_PIN_3;
    GPIO_InitStruct.Mode = GPIO_MODE_ANALOG;
    GPIO_InitStruct.Pull = GPIO_NOPULL;
    HAL_GPIO_Init(GPIOC, &GPIO_InitStruct);
 8000374:	4819      	ldr	r0, [pc, #100]	; (80003dc <HAL_ADC_MspInit+0x80>)

    /* ADC1 DMA Init */
    /* ADC1 Init */
    hdma_adc1.Instance = DMA2_Stream0;
 8000376:	4c1a      	ldr	r4, [pc, #104]	; (80003e0 <HAL_ADC_MspInit+0x84>)
    __HAL_RCC_ADC1_CLK_ENABLE();
 8000378:	f442 7280 	orr.w	r2, r2, #256	; 0x100
 800037c:	645a      	str	r2, [r3, #68]	; 0x44
 800037e:	6c5b      	ldr	r3, [r3, #68]	; 0x44
    GPIO_InitStruct.Pull = GPIO_NOPULL;
 8000380:	9503      	str	r5, [sp, #12]
    __HAL_RCC_ADC1_CLK_ENABLE();
 8000382:	f403 7380 	and.w	r3, r3, #256	; 0x100
 8000386:	9300      	str	r3, [sp, #0]
 8000388:	9b00      	ldr	r3, [sp, #0]
    GPIO_InitStruct.Pin = GPIO_PIN_3;
 800038a:	2308      	movs	r3, #8
 800038c:	9301      	str	r3, [sp, #4]
    HAL_GPIO_Init(GPIOC, &GPIO_InitStruct);
 800038e:	a901      	add	r1, sp, #4
    GPIO_InitStruct.Mode = GPIO_MODE_ANALOG;
 8000390:	2303      	movs	r3, #3
 8000392:	9302      	str	r3, [sp, #8]
    HAL_GPIO_Init(GPIOC, &GPIO_InitStruct);
 8000394:	f002 fa34 	bl	8002800 <HAL_GPIO_Init>
    hdma_adc1.Instance = DMA2_Stream0;
 8000398:	4b12      	ldr	r3, [pc, #72]	; (80003e4 <HAL_ADC_MspInit+0x88>)
    hdma_adc1.Init.Channel = DMA_CHANNEL_0;
    hdma_adc1.Init.Direction = DMA_PERIPH_TO_MEMORY;
 800039a:	60a5      	str	r5, [r4, #8]
    hdma_adc1.Init.Channel = DMA_CHANNEL_0;
 800039c:	e884 0028 	stmia.w	r4, {r3, r5}
    hdma_adc1.Init.PeriphInc = DMA_PINC_DISABLE;
    hdma_adc1.Init.MemInc = DMA_MINC_ENABLE;
 80003a0:	f44f 6380 	mov.w	r3, #1024	; 0x400
 80003a4:	6123      	str	r3, [r4, #16]
    hdma_adc1.Init.PeriphDataAlignment = DMA_PDATAALIGN_WORD;
 80003a6:	f44f 5380 	mov.w	r3, #4096	; 0x1000
 80003aa:	6163      	str	r3, [r4, #20]
    hdma_adc1.Init.MemDataAlignment = DMA_MDATAALIGN_WORD;
 80003ac:	f44f 4380 	mov.w	r3, #16384	; 0x4000
 80003b0:	61a3      	str	r3, [r4, #24]
    hdma_adc1.Init.Mode = DMA_CIRCULAR;
    hdma_adc1.Init.Priority = DMA_PRIORITY_LOW;
    hdma_adc1.Init.FIFOMode = DMA_FIFOMODE_DISABLE;
    if (HAL_DMA_Init(&hdma_adc1) != HAL_OK)
 80003b2:	4620      	mov	r0, r4
    hdma_adc1.Init.Mode = DMA_CIRCULAR;
 80003b4:	f44f 7380 	mov.w	r3, #256	; 0x100
    hdma_adc1.Init.PeriphInc = DMA_PINC_DISABLE;
 80003b8:	60e5      	str	r5, [r4, #12]
    hdma_adc1.Init.Mode = DMA_CIRCULAR;
 80003ba:	61e3      	str	r3, [r4, #28]
    hdma_adc1.Init.Priority = DMA_PRIORITY_LOW;
 80003bc:	6225      	str	r5, [r4, #32]
    hdma_adc1.Init.FIFOMode = DMA_FIFOMODE_DISABLE;
 80003be:	6265      	str	r5, [r4, #36]	; 0x24
    if (HAL_DMA_Init(&hdma_adc1) != HAL_OK)
 80003c0:	f001 ffd0 	bl	8002364 <HAL_DMA_Init>
 80003c4:	b118      	cbz	r0, 80003ce <HAL_ADC_MspInit+0x72>
    {
      _Error_Handler(__FILE__, __LINE__);
 80003c6:	217b      	movs	r1, #123	; 0x7b
 80003c8:	4807      	ldr	r0, [pc, #28]	; (80003e8 <HAL_ADC_MspInit+0x8c>)
 80003ca:	f000 fca1 	bl	8000d10 <_Error_Handler>
    }

    __HAL_LINKDMA(adcHandle,DMA_Handle,hdma_adc1);
 80003ce:	63b4      	str	r4, [r6, #56]	; 0x38
 80003d0:	63a6      	str	r6, [r4, #56]	; 0x38

  /* USER CODE BEGIN ADC1_MspInit 1 */

  /* USER CODE END ADC1_MspInit 1 */
  }
}
 80003d2:	b006      	add	sp, #24
 80003d4:	bd70      	pop	{r4, r5, r6, pc}
 80003d6:	bf00      	nop
 80003d8:	40012000 	.word	0x40012000
 80003dc:	40020800 	.word	0x40020800
 80003e0:	20000aa0 	.word	0x20000aa0
 80003e4:	40026410 	.word	0x40026410
 80003e8:	080071f4 	.word	0x080071f4

080003ec <MX_DAC_Init>:

DAC_HandleTypeDef hdac;

/* DAC init function */
void MX_DAC_Init(void)
{
 80003ec:	b507      	push	{r0, r1, r2, lr}
  DAC_ChannelConfTypeDef sConfig;

    /**DAC Initialization 
    */
  hdac.Instance = DAC;
 80003ee:	480d      	ldr	r0, [pc, #52]	; (8000424 <MX_DAC_Init+0x38>)
 80003f0:	4b0d      	ldr	r3, [pc, #52]	; (8000428 <MX_DAC_Init+0x3c>)
 80003f2:	6003      	str	r3, [r0, #0]
  if (HAL_DAC_Init(&hdac) != HAL_OK)
 80003f4:	f001 fe98 	bl	8002128 <HAL_DAC_Init>
 80003f8:	b118      	cbz	r0, 8000402 <MX_DAC_Init+0x16>
  {
    _Error_Handler(__FILE__, __LINE__);
 80003fa:	213d      	movs	r1, #61	; 0x3d
 80003fc:	480b      	ldr	r0, [pc, #44]	; (800042c <MX_DAC_Init+0x40>)
 80003fe:	f000 fc87 	bl	8000d10 <_Error_Handler>
  }

    /**DAC channel OUT2 config 
    */
  sConfig.DAC_Trigger = DAC_TRIGGER_NONE;
 8000402:	2300      	movs	r3, #0
  sConfig.DAC_OutputBuffer = DAC_OUTPUTBUFFER_ENABLE;
  if (HAL_DAC_ConfigChannel(&hdac, &sConfig, DAC_CHANNEL_2) != HAL_OK)
 8000404:	2210      	movs	r2, #16
 8000406:	4669      	mov	r1, sp
 8000408:	4806      	ldr	r0, [pc, #24]	; (8000424 <MX_DAC_Init+0x38>)
  sConfig.DAC_Trigger = DAC_TRIGGER_NONE;
 800040a:	9300      	str	r3, [sp, #0]
  sConfig.DAC_OutputBuffer = DAC_OUTPUTBUFFER_ENABLE;
 800040c:	9301      	str	r3, [sp, #4]
  if (HAL_DAC_ConfigChannel(&hdac, &sConfig, DAC_CHANNEL_2) != HAL_OK)
 800040e:	f001 ff11 	bl	8002234 <HAL_DAC_ConfigChannel>
 8000412:	b118      	cbz	r0, 800041c <MX_DAC_Init+0x30>
  {
    _Error_Handler(__FILE__, __LINE__);
 8000414:	2146      	movs	r1, #70	; 0x46
 8000416:	4805      	ldr	r0, [pc, #20]	; (800042c <MX_DAC_Init+0x40>)
 8000418:	f000 fc7a 	bl	8000d10 <_Error_Handler>
  }

}
 800041c:	b003      	add	sp, #12
 800041e:	f85d fb04 	ldr.w	pc, [sp], #4
 8000422:	bf00      	nop
 8000424:	20000b00 	.word	0x20000b00
 8000428:	40007400 	.word	0x40007400
 800042c:	08007207 	.word	0x08007207

08000430 <HAL_DAC_MspInit>:

void HAL_DAC_MspInit(DAC_HandleTypeDef* dacHandle)
{
 8000430:	b510      	push	{r4, lr}

  GPIO_InitTypeDef GPIO_InitStruct;
  if(dacHandle->Instance==DAC)
 8000432:	6802      	ldr	r2, [r0, #0]
 8000434:	4b11      	ldr	r3, [pc, #68]	; (800047c <HAL_DAC_MspInit+0x4c>)
 8000436:	429a      	cmp	r2, r3
{
 8000438:	b086      	sub	sp, #24
  if(dacHandle->Instance==DAC)
 800043a:	d11d      	bne.n	8000478 <HAL_DAC_MspInit+0x48>
  {
  /* USER CODE BEGIN DAC_MspInit 0 */

  /* USER CODE END DAC_MspInit 0 */
    /* DAC clock enable */
    __HAL_RCC_DAC_CLK_ENABLE();
 800043c:	2400      	movs	r4, #0
 800043e:	f503 33e2 	add.w	r3, r3, #115712	; 0x1c400
 8000442:	9400      	str	r4, [sp, #0]
 8000444:	6c1a      	ldr	r2, [r3, #64]	; 0x40
    PA5     ------> DAC_OUT2 
    */
    GPIO_InitStruct.Pin = GPIO_PIN_5;
    GPIO_InitStruct.Mode = GPIO_MODE_ANALOG;
    GPIO_InitStruct.Pull = GPIO_NOPULL;
    HAL_GPIO_Init(GPIOA, &GPIO_InitStruct);
 8000446:	480e      	ldr	r0, [pc, #56]	; (8000480 <HAL_DAC_MspInit+0x50>)
    __HAL_RCC_DAC_CLK_ENABLE();
 8000448:	f042 5200 	orr.w	r2, r2, #536870912	; 0x20000000
 800044c:	641a      	str	r2, [r3, #64]	; 0x40
 800044e:	6c1b      	ldr	r3, [r3, #64]	; 0x40
    GPIO_InitStruct.Pull = GPIO_NOPULL;
 8000450:	9403      	str	r4, [sp, #12]
    __HAL_RCC_DAC_CLK_ENABLE();
 8000452:	f003 5300 	and.w	r3, r3, #536870912	; 0x20000000
 8000456:	9300      	str	r3, [sp, #0]
 8000458:	9b00      	ldr	r3, [sp, #0]
    GPIO_InitStruct.Pin = GPIO_PIN_5;
 800045a:	2320      	movs	r3, #32
 800045c:	9301      	str	r3, [sp, #4]
    HAL_GPIO_Init(GPIOA, &GPIO_InitStruct);
 800045e:	a901      	add	r1, sp, #4
    GPIO_InitStruct.Mode = GPIO_MODE_ANALOG;
 8000460:	2303      	movs	r3, #3
 8000462:	9302      	str	r3, [sp, #8]
    HAL_GPIO_Init(GPIOA, &GPIO_InitStruct);
 8000464:	f002 f9cc 	bl	8002800 <HAL_GPIO_Init>

    /* DAC interrupt Init */
    HAL_NVIC_SetPriority(TIM6_DAC_IRQn, 0, 0);
 8000468:	2036      	movs	r0, #54	; 0x36
 800046a:	4622      	mov	r2, r4
 800046c:	4621      	mov	r1, r4
 800046e:	f001 fdcf 	bl	8002010 <HAL_NVIC_SetPriority>
    HAL_NVIC_EnableIRQ(TIM6_DAC_IRQn);
 8000472:	2036      	movs	r0, #54	; 0x36
 8000474:	f001 fe0e 	bl	8002094 <HAL_NVIC_EnableIRQ>
  /* USER CODE BEGIN DAC_MspInit 1 */

  /* USER CODE END DAC_MspInit 1 */
  }
}
 8000478:	b006      	add	sp, #24
 800047a:	bd10      	pop	{r4, pc}
 800047c:	40007400 	.word	0x40007400
 8000480:	40020000 	.word	0x40020000

08000484 <MX_DMA_Init>:

/** 
  * Enable DMA controller clock
  */
void MX_DMA_Init(void) 
{
 8000484:	b513      	push	{r0, r1, r4, lr}
  /* DMA controller clock enable */
  __HAL_RCC_DMA2_CLK_ENABLE();
 8000486:	4b0f      	ldr	r3, [pc, #60]	; (80004c4 <MX_DMA_Init+0x40>)
 8000488:	2400      	movs	r4, #0
 800048a:	9401      	str	r4, [sp, #4]
 800048c:	6b1a      	ldr	r2, [r3, #48]	; 0x30
 800048e:	f442 0280 	orr.w	r2, r2, #4194304	; 0x400000
 8000492:	631a      	str	r2, [r3, #48]	; 0x30
 8000494:	6b1b      	ldr	r3, [r3, #48]	; 0x30
 8000496:	f403 0380 	and.w	r3, r3, #4194304	; 0x400000

  /* DMA interrupt init */
  /* DMA2_Stream0_IRQn interrupt configuration */
  HAL_NVIC_SetPriority(DMA2_Stream0_IRQn, 0, 0);
 800049a:	4622      	mov	r2, r4
 800049c:	4621      	mov	r1, r4
  __HAL_RCC_DMA2_CLK_ENABLE();
 800049e:	9301      	str	r3, [sp, #4]
  HAL_NVIC_SetPriority(DMA2_Stream0_IRQn, 0, 0);
 80004a0:	2038      	movs	r0, #56	; 0x38
  __HAL_RCC_DMA2_CLK_ENABLE();
 80004a2:	9b01      	ldr	r3, [sp, #4]
  HAL_NVIC_SetPriority(DMA2_Stream0_IRQn, 0, 0);
 80004a4:	f001 fdb4 	bl	8002010 <HAL_NVIC_SetPriority>
  HAL_NVIC_EnableIRQ(DMA2_Stream0_IRQn);
 80004a8:	2038      	movs	r0, #56	; 0x38
 80004aa:	f001 fdf3 	bl	8002094 <HAL_NVIC_EnableIRQ>
  /* DMA2_Stream2_IRQn interrupt configuration */
  HAL_NVIC_SetPriority(DMA2_Stream2_IRQn, 0, 0);
 80004ae:	4622      	mov	r2, r4
 80004b0:	4621      	mov	r1, r4
 80004b2:	203a      	movs	r0, #58	; 0x3a
 80004b4:	f001 fdac 	bl	8002010 <HAL_NVIC_SetPriority>
  HAL_NVIC_EnableIRQ(DMA2_Stream2_IRQn);
 80004b8:	203a      	movs	r0, #58	; 0x3a
 80004ba:	f001 fdeb 	bl	8002094 <HAL_NVIC_EnableIRQ>

}
 80004be:	b002      	add	sp, #8
 80004c0:	bd10      	pop	{r4, pc}
 80004c2:	bf00      	nop
 80004c4:	40023800 	.word	0x40023800

080004c8 <MX_FMC_Init>:

SDRAM_HandleTypeDef hsdram1;

/* FMC initialization function */
void MX_FMC_Init(void)
{
 80004c8:	b500      	push	{lr}
  FMC_SDRAM_TimingTypeDef SdramTiming;

  /** Perform the SDRAM1 memory initialization sequence
  */
  hsdram1.Instance = FMC_SDRAM_DEVICE;
 80004ca:	4817      	ldr	r0, [pc, #92]	; (8000528 <MX_FMC_Init+0x60>)
  /* hsdram1.Init */
  hsdram1.Init.SDBank = FMC_SDRAM_BANK2;
 80004cc:	4917      	ldr	r1, [pc, #92]	; (800052c <MX_FMC_Init+0x64>)
  hsdram1.Init.ColumnBitsNumber = FMC_SDRAM_COLUMN_BITS_NUM_8;
  hsdram1.Init.RowBitsNumber = FMC_SDRAM_ROW_BITS_NUM_12;
  hsdram1.Init.MemoryDataWidth = FMC_SDRAM_MEM_BUS_WIDTH_16;
 80004ce:	2210      	movs	r2, #16
 80004d0:	6102      	str	r2, [r0, #16]
  hsdram1.Init.InternalBankNumber = FMC_SDRAM_INTERN_BANKS_NUM_4;
 80004d2:	2240      	movs	r2, #64	; 0x40
  hsdram1.Init.SDBank = FMC_SDRAM_BANK2;
 80004d4:	2301      	movs	r3, #1
  hsdram1.Init.InternalBankNumber = FMC_SDRAM_INTERN_BANKS_NUM_4;
 80004d6:	6142      	str	r2, [r0, #20]
  hsdram1.Init.CASLatency = FMC_SDRAM_CAS_LATENCY_3;
 80004d8:	f44f 72c0 	mov.w	r2, #384	; 0x180
{
 80004dc:	b089      	sub	sp, #36	; 0x24
  hsdram1.Init.SDBank = FMC_SDRAM_BANK2;
 80004de:	e880 000a 	stmia.w	r0, {r1, r3}
  hsdram1.Init.CASLatency = FMC_SDRAM_CAS_LATENCY_3;
 80004e2:	6182      	str	r2, [r0, #24]
  hsdram1.Init.ColumnBitsNumber = FMC_SDRAM_COLUMN_BITS_NUM_8;
 80004e4:	2300      	movs	r3, #0
  hsdram1.Init.WriteProtection = FMC_SDRAM_WRITE_PROTECTION_DISABLE;
  hsdram1.Init.SDClockPeriod = FMC_SDRAM_CLOCK_PERIOD_2;
 80004e6:	f44f 6200 	mov.w	r2, #2048	; 0x800
  hsdram1.Init.RowBitsNumber = FMC_SDRAM_ROW_BITS_NUM_12;
 80004ea:	2104      	movs	r1, #4
  hsdram1.Init.ColumnBitsNumber = FMC_SDRAM_COLUMN_BITS_NUM_8;
 80004ec:	6083      	str	r3, [r0, #8]
  hsdram1.Init.WriteProtection = FMC_SDRAM_WRITE_PROTECTION_DISABLE;
 80004ee:	61c3      	str	r3, [r0, #28]
  hsdram1.Init.SDClockPeriod = FMC_SDRAM_CLOCK_PERIOD_2;
 80004f0:	6202      	str	r2, [r0, #32]
  hsdram1.Init.ReadBurst = FMC_SDRAM_RBURST_DISABLE;
 80004f2:	6243      	str	r3, [r0, #36]	; 0x24
  hsdram1.Init.ReadPipeDelay = FMC_SDRAM_RPIPE_DELAY_1;
  /* SdramTiming */
  SdramTiming.LoadToActiveDelay = 2;
  SdramTiming.ExitSelfRefreshDelay = 7;
 80004f4:	2207      	movs	r2, #7
  hsdram1.Init.ReadPipeDelay = FMC_SDRAM_RPIPE_DELAY_1;
 80004f6:	f44f 5300 	mov.w	r3, #8192	; 0x2000
  hsdram1.Init.RowBitsNumber = FMC_SDRAM_ROW_BITS_NUM_12;
 80004fa:	60c1      	str	r1, [r0, #12]
  hsdram1.Init.ReadPipeDelay = FMC_SDRAM_RPIPE_DELAY_1;
 80004fc:	6283      	str	r3, [r0, #40]	; 0x28
  SdramTiming.ExitSelfRefreshDelay = 7;
 80004fe:	9202      	str	r2, [sp, #8]
  SdramTiming.LoadToActiveDelay = 2;
 8000500:	2302      	movs	r3, #2
  SdramTiming.SelfRefreshTime = 4;
 8000502:	9103      	str	r1, [sp, #12]
  SdramTiming.RowCycleDelay = 7;
 8000504:	9204      	str	r2, [sp, #16]
  SdramTiming.WriteRecoveryTime = 3;
  SdramTiming.RPDelay = 2;
  SdramTiming.RCDDelay = 2;

  if (HAL_SDRAM_Init(&hsdram1, &SdramTiming) != HAL_OK)
 8000506:	4469      	add	r1, sp
  SdramTiming.WriteRecoveryTime = 3;
 8000508:	2203      	movs	r2, #3
  SdramTiming.LoadToActiveDelay = 2;
 800050a:	9301      	str	r3, [sp, #4]
  SdramTiming.WriteRecoveryTime = 3;
 800050c:	9205      	str	r2, [sp, #20]
  SdramTiming.RPDelay = 2;
 800050e:	9306      	str	r3, [sp, #24]
  SdramTiming.RCDDelay = 2;
 8000510:	9307      	str	r3, [sp, #28]
  if (HAL_SDRAM_Init(&hsdram1, &SdramTiming) != HAL_OK)
 8000512:	f004 f8c9 	bl	80046a8 <HAL_SDRAM_Init>
 8000516:	b118      	cbz	r0, 8000520 <MX_FMC_Init+0x58>
  {
    _Error_Handler(__FILE__, __LINE__);
 8000518:	2150      	movs	r1, #80	; 0x50
 800051a:	4805      	ldr	r0, [pc, #20]	; (8000530 <MX_FMC_Init+0x68>)
 800051c:	f000 fbf8 	bl	8000d10 <_Error_Handler>
  }

}
 8000520:	b009      	add	sp, #36	; 0x24
 8000522:	f85d fb04 	ldr.w	pc, [sp], #4
 8000526:	bf00      	nop
 8000528:	20000b14 	.word	0x20000b14
 800052c:	a0000140 	.word	0xa0000140
 8000530:	0800721a 	.word	0x0800721a

08000534 <HAL_SDRAM_MspInit>:
  /* USER CODE BEGIN FMC_MspInit 1 */

  /* USER CODE END FMC_MspInit 1 */
}

void HAL_SDRAM_MspInit(SDRAM_HandleTypeDef* sdramHandle){
 8000534:	e92d 41f0 	stmdb	sp!, {r4, r5, r6, r7, r8, lr}
  if (FMC_Initialized) {
 8000538:	4b30      	ldr	r3, [pc, #192]	; (80005fc <HAL_SDRAM_MspInit+0xc8>)
 800053a:	681c      	ldr	r4, [r3, #0]
void HAL_SDRAM_MspInit(SDRAM_HandleTypeDef* sdramHandle){
 800053c:	b086      	sub	sp, #24
  if (FMC_Initialized) {
 800053e:	2c00      	cmp	r4, #0
 8000540:	d159      	bne.n	80005f6 <HAL_SDRAM_MspInit+0xc2>
  FMC_Initialized = 1;
 8000542:	f04f 0801 	mov.w	r8, #1
 8000546:	f8c3 8000 	str.w	r8, [r3]
  __HAL_RCC_FMC_CLK_ENABLE();
 800054a:	4b2d      	ldr	r3, [pc, #180]	; (8000600 <HAL_SDRAM_MspInit+0xcc>)
 800054c:	9400      	str	r4, [sp, #0]
 800054e:	6b9a      	ldr	r2, [r3, #56]	; 0x38
  HAL_GPIO_Init(GPIOF, &GPIO_InitStruct);
 8000550:	482c      	ldr	r0, [pc, #176]	; (8000604 <HAL_SDRAM_MspInit+0xd0>)
  __HAL_RCC_FMC_CLK_ENABLE();
 8000552:	ea42 0208 	orr.w	r2, r2, r8
 8000556:	639a      	str	r2, [r3, #56]	; 0x38
 8000558:	6b9b      	ldr	r3, [r3, #56]	; 0x38
  GPIO_InitStruct.Pull = GPIO_NOPULL;
 800055a:	9403      	str	r4, [sp, #12]
  __HAL_RCC_FMC_CLK_ENABLE();
 800055c:	ea03 0308 	and.w	r3, r3, r8
 8000560:	9300      	str	r3, [sp, #0]
  GPIO_InitStruct.Mode = GPIO_MODE_AF_PP;
 8000562:	2702      	movs	r7, #2
  GPIO_InitStruct.Speed = GPIO_SPEED_FREQ_VERY_HIGH;
 8000564:	2603      	movs	r6, #3
  GPIO_InitStruct.Alternate = GPIO_AF12_FMC;
 8000566:	250c      	movs	r5, #12
  __HAL_RCC_FMC_CLK_ENABLE();
 8000568:	9b00      	ldr	r3, [sp, #0]
  GPIO_InitStruct.Mode = GPIO_MODE_AF_PP;
 800056a:	9702      	str	r7, [sp, #8]
  GPIO_InitStruct.Pin = A0_Pin|A1_Pin|A2_Pin|A3_Pin 
 800056c:	f64f 033f 	movw	r3, #63551	; 0xf83f
  HAL_GPIO_Init(GPIOF, &GPIO_InitStruct);
 8000570:	a901      	add	r1, sp, #4
  GPIO_InitStruct.Pin = A0_Pin|A1_Pin|A2_Pin|A3_Pin 
 8000572:	9301      	str	r3, [sp, #4]
  GPIO_InitStruct.Speed = GPIO_SPEED_FREQ_VERY_HIGH;
 8000574:	9604      	str	r6, [sp, #16]
  GPIO_InitStruct.Alternate = GPIO_AF12_FMC;
 8000576:	9505      	str	r5, [sp, #20]
  HAL_GPIO_Init(GPIOF, &GPIO_InitStruct);
 8000578:	f002 f942 	bl	8002800 <HAL_GPIO_Init>
  HAL_GPIO_Init(SDNWE_GPIO_Port, &GPIO_InitStruct);
 800057c:	a901      	add	r1, sp, #4
 800057e:	4822      	ldr	r0, [pc, #136]	; (8000608 <HAL_SDRAM_MspInit+0xd4>)
  GPIO_InitStruct.Pin = SDNWE_Pin;
 8000580:	f8cd 8004 	str.w	r8, [sp, #4]
  GPIO_InitStruct.Mode = GPIO_MODE_AF_PP;
 8000584:	9702      	str	r7, [sp, #8]
  GPIO_InitStruct.Pull = GPIO_NOPULL;
 8000586:	9403      	str	r4, [sp, #12]
  GPIO_InitStruct.Speed = GPIO_SPEED_FREQ_VERY_HIGH;
 8000588:	9604      	str	r6, [sp, #16]
  GPIO_InitStruct.Alternate = GPIO_AF12_FMC;
 800058a:	9505      	str	r5, [sp, #20]
  HAL_GPIO_Init(SDNWE_GPIO_Port, &GPIO_InitStruct);
 800058c:	f002 f938 	bl	8002800 <HAL_GPIO_Init>
  GPIO_InitStruct.Pin = A10_Pin|A11_Pin|BA0_Pin|BA1_Pin 
 8000590:	f248 1333 	movw	r3, #33075	; 0x8133
  HAL_GPIO_Init(GPIOG, &GPIO_InitStruct);
 8000594:	a901      	add	r1, sp, #4
 8000596:	481d      	ldr	r0, [pc, #116]	; (800060c <HAL_SDRAM_MspInit+0xd8>)
  GPIO_InitStruct.Pin = A10_Pin|A11_Pin|BA0_Pin|BA1_Pin 
 8000598:	9301      	str	r3, [sp, #4]
  GPIO_InitStruct.Mode = GPIO_MODE_AF_PP;
 800059a:	9702      	str	r7, [sp, #8]
  GPIO_InitStruct.Pull = GPIO_NOPULL;
 800059c:	9403      	str	r4, [sp, #12]
  GPIO_InitStruct.Speed = GPIO_SPEED_FREQ_VERY_HIGH;
 800059e:	9604      	str	r6, [sp, #16]
  GPIO_InitStruct.Alternate = GPIO_AF12_FMC;
 80005a0:	9505      	str	r5, [sp, #20]
  HAL_GPIO_Init(GPIOG, &GPIO_InitStruct);
 80005a2:	f002 f92d 	bl	8002800 <HAL_GPIO_Init>
  GPIO_InitStruct.Pin = D4_Pin|D5_Pin|D6_Pin|D7_Pin 
 80005a6:	f64f 7383 	movw	r3, #65411	; 0xff83
  HAL_GPIO_Init(GPIOE, &GPIO_InitStruct);
 80005aa:	a901      	add	r1, sp, #4
 80005ac:	4818      	ldr	r0, [pc, #96]	; (8000610 <HAL_SDRAM_MspInit+0xdc>)
  GPIO_InitStruct.Pin = D4_Pin|D5_Pin|D6_Pin|D7_Pin 
 80005ae:	9301      	str	r3, [sp, #4]
  GPIO_InitStruct.Mode = GPIO_MODE_AF_PP;
 80005b0:	9702      	str	r7, [sp, #8]
  GPIO_InitStruct.Pull = GPIO_NOPULL;
 80005b2:	9403      	str	r4, [sp, #12]
  GPIO_InitStruct.Speed = GPIO_SPEED_FREQ_VERY_HIGH;
 80005b4:	9604      	str	r6, [sp, #16]
  GPIO_InitStruct.Alternate = GPIO_AF12_FMC;
 80005b6:	9505      	str	r5, [sp, #20]
  HAL_GPIO_Init(GPIOE, &GPIO_InitStruct);
 80005b8:	f002 f922 	bl	8002800 <HAL_GPIO_Init>
  GPIO_InitStruct.Pin = D13_Pin|D14_Pin|D15_Pin|D0_Pin 
 80005bc:	f24c 7303 	movw	r3, #50947	; 0xc703
  HAL_GPIO_Init(GPIOD, &GPIO_InitStruct);
 80005c0:	a901      	add	r1, sp, #4
 80005c2:	4814      	ldr	r0, [pc, #80]	; (8000614 <HAL_SDRAM_MspInit+0xe0>)
  GPIO_InitStruct.Pin = D13_Pin|D14_Pin|D15_Pin|D0_Pin 
 80005c4:	9301      	str	r3, [sp, #4]
  GPIO_InitStruct.Mode = GPIO_MODE_AF_PP;
 80005c6:	9702      	str	r7, [sp, #8]
  GPIO_InitStruct.Pull = GPIO_NOPULL;
 80005c8:	9403      	str	r4, [sp, #12]
  GPIO_InitStruct.Speed = GPIO_SPEED_FREQ_VERY_HIGH;
 80005ca:	9604      	str	r6, [sp, #16]
  GPIO_InitStruct.Alternate = GPIO_AF12_FMC;
 80005cc:	9505      	str	r5, [sp, #20]
  HAL_GPIO_Init(GPIOD, &GPIO_InitStruct);
 80005ce:	f002 f917 	bl	8002800 <HAL_GPIO_Init>
  GPIO_InitStruct.Pin = SDCKE1_Pin|SDNE1_Pin;
 80005d2:	2360      	movs	r3, #96	; 0x60
  HAL_GPIO_Init(GPIOB, &GPIO_InitStruct);
 80005d4:	a901      	add	r1, sp, #4
 80005d6:	4810      	ldr	r0, [pc, #64]	; (8000618 <HAL_SDRAM_MspInit+0xe4>)
  GPIO_InitStruct.Pin = SDCKE1_Pin|SDNE1_Pin;
 80005d8:	9301      	str	r3, [sp, #4]
  GPIO_InitStruct.Mode = GPIO_MODE_AF_PP;
 80005da:	9702      	str	r7, [sp, #8]
  GPIO_InitStruct.Pull = GPIO_NOPULL;
 80005dc:	9403      	str	r4, [sp, #12]
  GPIO_InitStruct.Speed = GPIO_SPEED_FREQ_VERY_HIGH;
 80005de:	9604      	str	r6, [sp, #16]
  GPIO_InitStruct.Alternate = GPIO_AF12_FMC;
 80005e0:	9505      	str	r5, [sp, #20]
  HAL_GPIO_Init(GPIOB, &GPIO_InitStruct);
 80005e2:	f002 f90d 	bl	8002800 <HAL_GPIO_Init>
  HAL_NVIC_SetPriority(FMC_IRQn, 0, 0);
 80005e6:	2030      	movs	r0, #48	; 0x30
 80005e8:	4622      	mov	r2, r4
 80005ea:	4621      	mov	r1, r4
 80005ec:	f001 fd10 	bl	8002010 <HAL_NVIC_SetPriority>
  HAL_NVIC_EnableIRQ(FMC_IRQn);
 80005f0:	2030      	movs	r0, #48	; 0x30
 80005f2:	f001 fd4f 	bl	8002094 <HAL_NVIC_EnableIRQ>
  /* USER CODE END SDRAM_MspInit 0 */
  HAL_FMC_MspInit();
  /* USER CODE BEGIN SDRAM_MspInit 1 */

  /* USER CODE END SDRAM_MspInit 1 */
}
 80005f6:	b006      	add	sp, #24
 80005f8:	e8bd 81f0 	ldmia.w	sp!, {r4, r5, r6, r7, r8, pc}
 80005fc:	20000490 	.word	0x20000490
 8000600:	40023800 	.word	0x40023800
 8000604:	40021400 	.word	0x40021400
 8000608:	40020800 	.word	0x40020800
 800060c:	40021800 	.word	0x40021800
 8000610:	40021000 	.word	0x40021000
 8000614:	40020c00 	.word	0x40020c00
 8000618:	40020400 	.word	0x40020400

0800061c <MX_GPIO_Init>:
     PB13   ------> USB_OTG_HS_VBUS
     PB14   ------> USB_OTG_HS_DM
     PB15   ------> USB_OTG_HS_DP
*/
void MX_GPIO_Init(void)
{
 800061c:	e92d 4ff0 	stmdb	sp!, {r4, r5, r6, r7, r8, r9, sl, fp, lr}
 8000620:	b091      	sub	sp, #68	; 0x44

  GPIO_InitTypeDef GPIO_InitStruct;

  /* GPIO Ports Clock Enable */
  __HAL_RCC_GPIOE_CLK_ENABLE();
 8000622:	2400      	movs	r4, #0
 8000624:	4b87      	ldr	r3, [pc, #540]	; (8000844 <MX_GPIO_Init+0x228>)
 8000626:	9403      	str	r4, [sp, #12]
 8000628:	6b1a      	ldr	r2, [r3, #48]	; 0x30
  __HAL_RCC_GPIOB_CLK_ENABLE();
  __HAL_RCC_GPIOG_CLK_ENABLE();
  __HAL_RCC_GPIOD_CLK_ENABLE();

  /*Configure GPIO pin Output Level */
  HAL_GPIO_WritePin(GPIOC, CSX_Pin|OTG_FS_PSO_Pin, GPIO_PIN_RESET);
 800062a:	f8df 822c 	ldr.w	r8, [pc, #556]	; 8000858 <MX_GPIO_Init+0x23c>

  /*Configure GPIO pin Output Level */
  HAL_GPIO_WritePin(ACP_RST_GPIO_Port, ACP_RST_Pin, GPIO_PIN_RESET);
 800062e:	4f86      	ldr	r7, [pc, #536]	; (8000848 <MX_GPIO_Init+0x22c>)

  /*Configure GPIO pin Output Level */
  HAL_GPIO_WritePin(GPIOD, RDX_Pin|WRX_DCX_Pin, GPIO_PIN_RESET);
 8000630:	f8df a228 	ldr.w	sl, [pc, #552]	; 800085c <MX_GPIO_Init+0x240>

  /*Configure GPIO pin Output Level */
  HAL_GPIO_WritePin(GPIOG, LED_Green_Pin|LED_Red_Pin, GPIO_PIN_RESET);
 8000634:	f8df 9228 	ldr.w	r9, [pc, #552]	; 8000860 <MX_GPIO_Init+0x244>

  /*Configure GPIO pin Output Level */
  HAL_GPIO_WritePin(SPI3_CS_GPIO_Port, SPI3_CS_Pin, GPIO_PIN_RESET);
 8000638:	4e84      	ldr	r6, [pc, #528]	; (800084c <MX_GPIO_Init+0x230>)

  /*Configure GPIO pins : PEPin PEPin PEPin */
  GPIO_InitStruct.Pin = USER_BUTTON2_Pin|USER_BUTTON3_Pin|USER_BUTTON4_Pin;
  GPIO_InitStruct.Mode = GPIO_MODE_IT_RISING;
 800063a:	f8df b228 	ldr.w	fp, [pc, #552]	; 8000864 <MX_GPIO_Init+0x248>
  __HAL_RCC_GPIOE_CLK_ENABLE();
 800063e:	f042 0210 	orr.w	r2, r2, #16
 8000642:	631a      	str	r2, [r3, #48]	; 0x30
 8000644:	6b1a      	ldr	r2, [r3, #48]	; 0x30
 8000646:	f002 0210 	and.w	r2, r2, #16
 800064a:	9203      	str	r2, [sp, #12]
 800064c:	9a03      	ldr	r2, [sp, #12]
  __HAL_RCC_GPIOC_CLK_ENABLE();
 800064e:	9404      	str	r4, [sp, #16]
 8000650:	6b1a      	ldr	r2, [r3, #48]	; 0x30
 8000652:	f042 0204 	orr.w	r2, r2, #4
 8000656:	631a      	str	r2, [r3, #48]	; 0x30
 8000658:	6b1a      	ldr	r2, [r3, #48]	; 0x30
 800065a:	f002 0204 	and.w	r2, r2, #4
 800065e:	9204      	str	r2, [sp, #16]
 8000660:	9a04      	ldr	r2, [sp, #16]
  __HAL_RCC_GPIOF_CLK_ENABLE();
 8000662:	9405      	str	r4, [sp, #20]
 8000664:	6b1a      	ldr	r2, [r3, #48]	; 0x30
 8000666:	f042 0220 	orr.w	r2, r2, #32
 800066a:	631a      	str	r2, [r3, #48]	; 0x30
 800066c:	6b1a      	ldr	r2, [r3, #48]	; 0x30
 800066e:	f002 0220 	and.w	r2, r2, #32
 8000672:	9205      	str	r2, [sp, #20]
 8000674:	9a05      	ldr	r2, [sp, #20]
  __HAL_RCC_GPIOH_CLK_ENABLE();
 8000676:	9406      	str	r4, [sp, #24]
 8000678:	6b1a      	ldr	r2, [r3, #48]	; 0x30
 800067a:	f042 0280 	orr.w	r2, r2, #128	; 0x80
 800067e:	631a      	str	r2, [r3, #48]	; 0x30
 8000680:	6b1a      	ldr	r2, [r3, #48]	; 0x30
 8000682:	f002 0280 	and.w	r2, r2, #128	; 0x80
 8000686:	9206      	str	r2, [sp, #24]
 8000688:	9a06      	ldr	r2, [sp, #24]
  __HAL_RCC_GPIOA_CLK_ENABLE();
 800068a:	9407      	str	r4, [sp, #28]
 800068c:	6b1a      	ldr	r2, [r3, #48]	; 0x30
 800068e:	f042 0201 	orr.w	r2, r2, #1
 8000692:	631a      	str	r2, [r3, #48]	; 0x30
 8000694:	6b1a      	ldr	r2, [r3, #48]	; 0x30
 8000696:	f002 0201 	and.w	r2, r2, #1
 800069a:	9207      	str	r2, [sp, #28]
 800069c:	9a07      	ldr	r2, [sp, #28]
  __HAL_RCC_GPIOB_CLK_ENABLE();
 800069e:	9408      	str	r4, [sp, #32]
 80006a0:	6b1a      	ldr	r2, [r3, #48]	; 0x30
 80006a2:	f042 0202 	orr.w	r2, r2, #2
 80006a6:	631a      	str	r2, [r3, #48]	; 0x30
 80006a8:	6b1a      	ldr	r2, [r3, #48]	; 0x30
 80006aa:	f002 0202 	and.w	r2, r2, #2
 80006ae:	9208      	str	r2, [sp, #32]
 80006b0:	9a08      	ldr	r2, [sp, #32]
  __HAL_RCC_GPIOG_CLK_ENABLE();
 80006b2:	9409      	str	r4, [sp, #36]	; 0x24
 80006b4:	6b1a      	ldr	r2, [r3, #48]	; 0x30
 80006b6:	f042 0240 	orr.w	r2, r2, #64	; 0x40
 80006ba:	631a      	str	r2, [r3, #48]	; 0x30
 80006bc:	6b1a      	ldr	r2, [r3, #48]	; 0x30
 80006be:	f002 0240 	and.w	r2, r2, #64	; 0x40
 80006c2:	9209      	str	r2, [sp, #36]	; 0x24
 80006c4:	9a09      	ldr	r2, [sp, #36]	; 0x24
  __HAL_RCC_GPIOD_CLK_ENABLE();
 80006c6:	940a      	str	r4, [sp, #40]	; 0x28
 80006c8:	6b1a      	ldr	r2, [r3, #48]	; 0x30
 80006ca:	f042 0208 	orr.w	r2, r2, #8
 80006ce:	631a      	str	r2, [r3, #48]	; 0x30
 80006d0:	6b1b      	ldr	r3, [r3, #48]	; 0x30
 80006d2:	f003 0308 	and.w	r3, r3, #8
 80006d6:	930a      	str	r3, [sp, #40]	; 0x28
  HAL_GPIO_WritePin(GPIOC, CSX_Pin|OTG_FS_PSO_Pin, GPIO_PIN_RESET);
 80006d8:	4622      	mov	r2, r4
 80006da:	4640      	mov	r0, r8
 80006dc:	2114      	movs	r1, #20
  __HAL_RCC_GPIOD_CLK_ENABLE();
 80006de:	9b0a      	ldr	r3, [sp, #40]	; 0x28
  HAL_GPIO_WritePin(GPIOC, CSX_Pin|OTG_FS_PSO_Pin, GPIO_PIN_RESET);
 80006e0:	f002 fac4 	bl	8002c6c <HAL_GPIO_WritePin>
  HAL_GPIO_WritePin(ACP_RST_GPIO_Port, ACP_RST_Pin, GPIO_PIN_RESET);
 80006e4:	4622      	mov	r2, r4
 80006e6:	4638      	mov	r0, r7
 80006e8:	2180      	movs	r1, #128	; 0x80
 80006ea:	f002 fabf 	bl	8002c6c <HAL_GPIO_WritePin>
  HAL_GPIO_WritePin(GPIOD, RDX_Pin|WRX_DCX_Pin, GPIO_PIN_RESET);
 80006ee:	4622      	mov	r2, r4
 80006f0:	4650      	mov	r0, sl
 80006f2:	f44f 5140 	mov.w	r1, #12288	; 0x3000
 80006f6:	f002 fab9 	bl	8002c6c <HAL_GPIO_WritePin>
  HAL_GPIO_WritePin(GPIOG, LED_Green_Pin|LED_Red_Pin, GPIO_PIN_RESET);
 80006fa:	4622      	mov	r2, r4
 80006fc:	4648      	mov	r0, r9
 80006fe:	f44f 41c0 	mov.w	r1, #24576	; 0x6000
 8000702:	f002 fab3 	bl	8002c6c <HAL_GPIO_WritePin>
  HAL_GPIO_WritePin(SPI3_CS_GPIO_Port, SPI3_CS_Pin, GPIO_PIN_RESET);
 8000706:	4622      	mov	r2, r4
 8000708:	4630      	mov	r0, r6
 800070a:	2110      	movs	r1, #16
 800070c:	f002 faae 	bl	8002c6c <HAL_GPIO_WritePin>
  GPIO_InitStruct.Pin = USER_BUTTON2_Pin|USER_BUTTON3_Pin|USER_BUTTON4_Pin;
 8000710:	231c      	movs	r3, #28
  GPIO_InitStruct.Pull = GPIO_NOPULL;
  HAL_GPIO_Init(GPIOE, &GPIO_InitStruct);
 8000712:	a90b      	add	r1, sp, #44	; 0x2c
 8000714:	484e      	ldr	r0, [pc, #312]	; (8000850 <MX_GPIO_Init+0x234>)
  GPIO_InitStruct.Pin = USER_BUTTON2_Pin|USER_BUTTON3_Pin|USER_BUTTON4_Pin;
 8000716:	930b      	str	r3, [sp, #44]	; 0x2c
  GPIO_InitStruct.Mode = GPIO_MODE_IT_RISING;
 8000718:	f8cd b030 	str.w	fp, [sp, #48]	; 0x30
  GPIO_InitStruct.Pull = GPIO_NOPULL;
 800071c:	940d      	str	r4, [sp, #52]	; 0x34
  HAL_GPIO_Init(GPIOE, &GPIO_InitStruct);
 800071e:	f002 f86f 	bl	8002800 <HAL_GPIO_Init>

  /*Configure GPIO pins : PCPin PCPin */
  GPIO_InitStruct.Pin = USER_GPIO_PC13_Pin|USER_GPIO_PC8_Pin;
 8000722:	f44f 5304 	mov.w	r3, #8448	; 0x2100
  GPIO_InitStruct.Mode = GPIO_MODE_INPUT;
  GPIO_InitStruct.Pull = GPIO_NOPULL;
  HAL_GPIO_Init(GPIOC, &GPIO_InitStruct);
 8000726:	a90b      	add	r1, sp, #44	; 0x2c
 8000728:	4640      	mov	r0, r8

  /*Configure GPIO pins : PCPin PCPin */
  GPIO_InitStruct.Pin = CSX_Pin|OTG_FS_PSO_Pin;
  GPIO_InitStruct.Mode = GPIO_MODE_OUTPUT_PP;
 800072a:	2501      	movs	r5, #1
  GPIO_InitStruct.Pin = USER_GPIO_PC13_Pin|USER_GPIO_PC8_Pin;
 800072c:	930b      	str	r3, [sp, #44]	; 0x2c
  GPIO_InitStruct.Mode = GPIO_MODE_INPUT;
 800072e:	940c      	str	r4, [sp, #48]	; 0x30
  GPIO_InitStruct.Pull = GPIO_NOPULL;
 8000730:	940d      	str	r4, [sp, #52]	; 0x34
  HAL_GPIO_Init(GPIOC, &GPIO_InitStruct);
 8000732:	f002 f865 	bl	8002800 <HAL_GPIO_Init>
  GPIO_InitStruct.Pin = CSX_Pin|OTG_FS_PSO_Pin;
 8000736:	2314      	movs	r3, #20
  GPIO_InitStruct.Pull = GPIO_NOPULL;
  GPIO_InitStruct.Speed = GPIO_SPEED_FREQ_LOW;
  HAL_GPIO_Init(GPIOC, &GPIO_InitStruct);
 8000738:	a90b      	add	r1, sp, #44	; 0x2c
 800073a:	4640      	mov	r0, r8
  GPIO_InitStruct.Pin = CSX_Pin|OTG_FS_PSO_Pin;
 800073c:	930b      	str	r3, [sp, #44]	; 0x2c
  GPIO_InitStruct.Mode = GPIO_MODE_OUTPUT_PP;
 800073e:	950c      	str	r5, [sp, #48]	; 0x30
  GPIO_InitStruct.Pull = GPIO_NOPULL;
 8000740:	940d      	str	r4, [sp, #52]	; 0x34
  GPIO_InitStruct.Speed = GPIO_SPEED_FREQ_LOW;
 8000742:	940e      	str	r4, [sp, #56]	; 0x38
  HAL_GPIO_Init(GPIOC, &GPIO_InitStruct);
 8000744:	f002 f85c 	bl	8002800 <HAL_GPIO_Init>
  ////////////////////////////////////////
  //User button - blue button on the board
  /*Configure GPIO pin : PtPin */
  GPIO_InitStruct.Pin = B1_Pin;
  GPIO_InitStruct.Mode = GPIO_MODE_INPUT;
  GPIO_InitStruct.Pull = GPIO_PULLDOWN;
 8000748:	2302      	movs	r3, #2
  HAL_GPIO_Init(B1_GPIO_Port, &GPIO_InitStruct);
 800074a:	a90b      	add	r1, sp, #44	; 0x2c
 800074c:	4638      	mov	r0, r7
  GPIO_InitStruct.Pull = GPIO_PULLDOWN;
 800074e:	930d      	str	r3, [sp, #52]	; 0x34
 8000750:	9301      	str	r3, [sp, #4]
  GPIO_InitStruct.Pin = B1_Pin;
 8000752:	950b      	str	r5, [sp, #44]	; 0x2c
  GPIO_InitStruct.Mode = GPIO_MODE_INPUT;
 8000754:	940c      	str	r4, [sp, #48]	; 0x30
  HAL_GPIO_Init(B1_GPIO_Port, &GPIO_InitStruct);
 8000756:	f002 f853 	bl	8002800 <HAL_GPIO_Init>

  /*Configure GPIO pin : PtPin */
  GPIO_InitStruct.Pin = ACP_RST_Pin;
 800075a:	2280      	movs	r2, #128	; 0x80
  GPIO_InitStruct.Mode = GPIO_MODE_OUTPUT_PP;
  GPIO_InitStruct.Pull = GPIO_NOPULL;
  GPIO_InitStruct.Speed = GPIO_SPEED_FREQ_LOW;
  HAL_GPIO_Init(ACP_RST_GPIO_Port, &GPIO_InitStruct);
 800075c:	a90b      	add	r1, sp, #44	; 0x2c
 800075e:	4638      	mov	r0, r7
  GPIO_InitStruct.Pin = ACP_RST_Pin;
 8000760:	920b      	str	r2, [sp, #44]	; 0x2c
  GPIO_InitStruct.Mode = GPIO_MODE_OUTPUT_PP;
 8000762:	950c      	str	r5, [sp, #48]	; 0x30
  GPIO_InitStruct.Pull = GPIO_NOPULL;
 8000764:	940d      	str	r4, [sp, #52]	; 0x34
  GPIO_InitStruct.Speed = GPIO_SPEED_FREQ_LOW;
 8000766:	940e      	str	r4, [sp, #56]	; 0x38
  HAL_GPIO_Init(ACP_RST_GPIO_Port, &GPIO_InitStruct);
 8000768:	f002 f84a 	bl	8002800 <HAL_GPIO_Init>

  /*Configure GPIO pin : PtPin */
  GPIO_InitStruct.Pin = OTG_FS_OC_Pin;
 800076c:	2220      	movs	r2, #32
 800076e:	920b      	str	r2, [sp, #44]	; 0x2c
  GPIO_InitStruct.Mode = GPIO_MODE_EVT_RISING;
  GPIO_InitStruct.Pull = GPIO_NOPULL;
  HAL_GPIO_Init(OTG_FS_OC_GPIO_Port, &GPIO_InitStruct);
 8000770:	a90b      	add	r1, sp, #44	; 0x2c
  GPIO_InitStruct.Mode = GPIO_MODE_EVT_RISING;
 8000772:	4a38      	ldr	r2, [pc, #224]	; (8000854 <MX_GPIO_Init+0x238>)
 8000774:	920c      	str	r2, [sp, #48]	; 0x30
  HAL_GPIO_Init(OTG_FS_OC_GPIO_Port, &GPIO_InitStruct);
 8000776:	4640      	mov	r0, r8
  GPIO_InitStruct.Pull = GPIO_NOPULL;
 8000778:	940d      	str	r4, [sp, #52]	; 0x34
  HAL_GPIO_Init(OTG_FS_OC_GPIO_Port, &GPIO_InitStruct);
 800077a:	f002 f841 	bl	8002800 <HAL_GPIO_Init>

  /*Configure GPIO pins : PBPin PBPin */
  GPIO_InitStruct.Pin = BOOT1_Pin|USER_GPIO_PB7_Pin;
 800077e:	2284      	movs	r2, #132	; 0x84
  GPIO_InitStruct.Mode = GPIO_MODE_INPUT;
  GPIO_InitStruct.Pull = GPIO_NOPULL;
  HAL_GPIO_Init(GPIOB, &GPIO_InitStruct);
 8000780:	a90b      	add	r1, sp, #44	; 0x2c
 8000782:	4630      	mov	r0, r6
  GPIO_InitStruct.Pin = BOOT1_Pin|USER_GPIO_PB7_Pin;
 8000784:	920b      	str	r2, [sp, #44]	; 0x2c
  GPIO_InitStruct.Mode = GPIO_MODE_INPUT;
 8000786:	940c      	str	r4, [sp, #48]	; 0x30
  GPIO_InitStruct.Pull = GPIO_NOPULL;
 8000788:	940d      	str	r4, [sp, #52]	; 0x34
  HAL_GPIO_Init(GPIOB, &GPIO_InitStruct);
 800078a:	f002 f839 	bl	8002800 <HAL_GPIO_Init>

  /*Configure GPIO pins : PBPin PBPin PBPin */
  GPIO_InitStruct.Pin = OTG_FS_ID_Pin|OTG_FS_DM_Pin|OTG_FS_DP_Pin;
  GPIO_InitStruct.Mode = GPIO_MODE_AF_PP;
 800078e:	9b01      	ldr	r3, [sp, #4]
 8000790:	930c      	str	r3, [sp, #48]	; 0x30
  GPIO_InitStruct.Pin = OTG_FS_ID_Pin|OTG_FS_DM_Pin|OTG_FS_DP_Pin;
 8000792:	f44f 4250 	mov.w	r2, #53248	; 0xd000
  GPIO_InitStruct.Pull = GPIO_NOPULL;
  GPIO_InitStruct.Speed = GPIO_SPEED_FREQ_LOW;
  GPIO_InitStruct.Alternate = GPIO_AF12_OTG_HS_FS;
 8000796:	230c      	movs	r3, #12
  HAL_GPIO_Init(GPIOB, &GPIO_InitStruct);
 8000798:	a90b      	add	r1, sp, #44	; 0x2c
 800079a:	4630      	mov	r0, r6
  GPIO_InitStruct.Pin = OTG_FS_ID_Pin|OTG_FS_DM_Pin|OTG_FS_DP_Pin;
 800079c:	920b      	str	r2, [sp, #44]	; 0x2c
  GPIO_InitStruct.Alternate = GPIO_AF12_OTG_HS_FS;
 800079e:	930f      	str	r3, [sp, #60]	; 0x3c
  GPIO_InitStruct.Pull = GPIO_NOPULL;
 80007a0:	940d      	str	r4, [sp, #52]	; 0x34
  GPIO_InitStruct.Speed = GPIO_SPEED_FREQ_LOW;
 80007a2:	940e      	str	r4, [sp, #56]	; 0x38
  HAL_GPIO_Init(GPIOB, &GPIO_InitStruct);
 80007a4:	f002 f82c 	bl	8002800 <HAL_GPIO_Init>

  /*Configure GPIO pin : PtPin */
  GPIO_InitStruct.Pin = VBUS_FS_Pin;
 80007a8:	f44f 5300 	mov.w	r3, #8192	; 0x2000
  GPIO_InitStruct.Mode = GPIO_MODE_INPUT;
  GPIO_InitStruct.Pull = GPIO_NOPULL;
  HAL_GPIO_Init(VBUS_FS_GPIO_Port, &GPIO_InitStruct);
 80007ac:	a90b      	add	r1, sp, #44	; 0x2c
 80007ae:	4630      	mov	r0, r6
  GPIO_InitStruct.Pin = VBUS_FS_Pin;
 80007b0:	930b      	str	r3, [sp, #44]	; 0x2c
  GPIO_InitStruct.Mode = GPIO_MODE_INPUT;
 80007b2:	940c      	str	r4, [sp, #48]	; 0x30
  GPIO_InitStruct.Pull = GPIO_NOPULL;
 80007b4:	940d      	str	r4, [sp, #52]	; 0x34
  HAL_GPIO_Init(VBUS_FS_GPIO_Port, &GPIO_InitStruct);
 80007b6:	f002 f823 	bl	8002800 <HAL_GPIO_Init>

  /*Configure GPIO pins : PDPin PDPin PDPin PDPin 
                           PDPin */
  GPIO_InitStruct.Pin = TE_Pin|USER_GPIO_PD2_Pin|USER_GPIO_PD4_Pin|USER_GPIO_PD5_Pin 
 80007ba:	f640 03b4 	movw	r3, #2228	; 0x8b4
                          |USER_GPIO_PD6_Pin;
  GPIO_InitStruct.Mode = GPIO_MODE_INPUT;
  GPIO_InitStruct.Pull = GPIO_NOPULL;
  HAL_GPIO_Init(GPIOD, &GPIO_InitStruct);
 80007be:	a90b      	add	r1, sp, #44	; 0x2c
 80007c0:	4650      	mov	r0, sl
  GPIO_InitStruct.Pin = TE_Pin|USER_GPIO_PD2_Pin|USER_GPIO_PD4_Pin|USER_GPIO_PD5_Pin 
 80007c2:	930b      	str	r3, [sp, #44]	; 0x2c
  GPIO_InitStruct.Mode = GPIO_MODE_INPUT;
 80007c4:	940c      	str	r4, [sp, #48]	; 0x30
  GPIO_InitStruct.Pull = GPIO_NOPULL;
 80007c6:	940d      	str	r4, [sp, #52]	; 0x34
  HAL_GPIO_Init(GPIOD, &GPIO_InitStruct);
 80007c8:	f002 f81a 	bl	8002800 <HAL_GPIO_Init>

  /*Configure GPIO pins : PDPin PDPin */
  GPIO_InitStruct.Pin = RDX_Pin|WRX_DCX_Pin;
 80007cc:	f44f 5340 	mov.w	r3, #12288	; 0x3000
  GPIO_InitStruct.Mode = GPIO_MODE_OUTPUT_PP;
  GPIO_InitStruct.Pull = GPIO_NOPULL;
  GPIO_InitStruct.Speed = GPIO_SPEED_FREQ_LOW;
  HAL_GPIO_Init(GPIOD, &GPIO_InitStruct);
 80007d0:	a90b      	add	r1, sp, #44	; 0x2c
 80007d2:	4650      	mov	r0, sl
  GPIO_InitStruct.Pin = RDX_Pin|WRX_DCX_Pin;
 80007d4:	930b      	str	r3, [sp, #44]	; 0x2c
  GPIO_InitStruct.Mode = GPIO_MODE_OUTPUT_PP;
 80007d6:	950c      	str	r5, [sp, #48]	; 0x30
  GPIO_InitStruct.Pull = GPIO_NOPULL;
 80007d8:	940d      	str	r4, [sp, #52]	; 0x34
  GPIO_InitStruct.Speed = GPIO_SPEED_FREQ_LOW;
 80007da:	940e      	str	r4, [sp, #56]	; 0x38
  HAL_GPIO_Init(GPIOD, &GPIO_InitStruct);
 80007dc:	f002 f810 	bl	8002800 <HAL_GPIO_Init>

  /*Configure GPIO pins : PGPin PGPin PGPin */
  GPIO_InitStruct.Pin = USER_GPIO_PG2_Pin|USER_GPIO_PG3_Pin|USER_GPIO_PG9_Pin;
 80007e0:	f44f 7303 	mov.w	r3, #524	; 0x20c
  GPIO_InitStruct.Mode = GPIO_MODE_INPUT;
  GPIO_InitStruct.Pull = GPIO_NOPULL;
  HAL_GPIO_Init(GPIOG, &GPIO_InitStruct);
 80007e4:	a90b      	add	r1, sp, #44	; 0x2c
 80007e6:	4648      	mov	r0, r9
  GPIO_InitStruct.Pin = USER_GPIO_PG2_Pin|USER_GPIO_PG3_Pin|USER_GPIO_PG9_Pin;
 80007e8:	930b      	str	r3, [sp, #44]	; 0x2c
  GPIO_InitStruct.Mode = GPIO_MODE_INPUT;
 80007ea:	940c      	str	r4, [sp, #48]	; 0x30
  GPIO_InitStruct.Pull = GPIO_NOPULL;
 80007ec:	940d      	str	r4, [sp, #52]	; 0x34
  HAL_GPIO_Init(GPIOG, &GPIO_InitStruct);
 80007ee:	f002 f807 	bl	8002800 <HAL_GPIO_Init>

  /*Configure GPIO pin : PtPin */
  GPIO_InitStruct.Pin = Touch_Panel_EXTI15_Pin;
 80007f2:	f44f 4300 	mov.w	r3, #32768	; 0x8000
  GPIO_InitStruct.Mode = GPIO_MODE_IT_RISING;
  GPIO_InitStruct.Pull = GPIO_NOPULL;
  HAL_GPIO_Init(Touch_Panel_EXTI15_GPIO_Port, &GPIO_InitStruct);
 80007f6:	a90b      	add	r1, sp, #44	; 0x2c
 80007f8:	4638      	mov	r0, r7
  GPIO_InitStruct.Pin = Touch_Panel_EXTI15_Pin;
 80007fa:	930b      	str	r3, [sp, #44]	; 0x2c
  GPIO_InitStruct.Mode = GPIO_MODE_IT_RISING;
 80007fc:	f8cd b030 	str.w	fp, [sp, #48]	; 0x30
  GPIO_InitStruct.Pull = GPIO_NOPULL;
 8000800:	940d      	str	r4, [sp, #52]	; 0x34
  HAL_GPIO_Init(Touch_Panel_EXTI15_GPIO_Port, &GPIO_InitStruct);
 8000802:	f001 fffd 	bl	8002800 <HAL_GPIO_Init>

  /*Configure GPIO pins : PGPin PGPin */
  GPIO_InitStruct.Pin = LED_Green_Pin|LED_Red_Pin;
 8000806:	f44f 43c0 	mov.w	r3, #24576	; 0x6000
  GPIO_InitStruct.Mode = GPIO_MODE_OUTPUT_PP;
  GPIO_InitStruct.Pull = GPIO_NOPULL;
  GPIO_InitStruct.Speed = GPIO_SPEED_FREQ_LOW;
  HAL_GPIO_Init(GPIOG, &GPIO_InitStruct);
 800080a:	a90b      	add	r1, sp, #44	; 0x2c
 800080c:	4648      	mov	r0, r9
  GPIO_InitStruct.Pin = LED_Green_Pin|LED_Red_Pin;
 800080e:	930b      	str	r3, [sp, #44]	; 0x2c
  GPIO_InitStruct.Mode = GPIO_MODE_OUTPUT_PP;
 8000810:	950c      	str	r5, [sp, #48]	; 0x30
  GPIO_InitStruct.Pull = GPIO_NOPULL;
 8000812:	940d      	str	r4, [sp, #52]	; 0x34
  GPIO_InitStruct.Speed = GPIO_SPEED_FREQ_LOW;
 8000814:	940e      	str	r4, [sp, #56]	; 0x38
  HAL_GPIO_Init(GPIOG, &GPIO_InitStruct);
 8000816:	f001 fff3 	bl	8002800 <HAL_GPIO_Init>

  /*Configure GPIO pin : PtPin */
  GPIO_InitStruct.Pin = SPI3_CS_Pin;
 800081a:	2310      	movs	r3, #16
  GPIO_InitStruct.Mode = GPIO_MODE_OUTPUT_PP;
  GPIO_InitStruct.Pull = GPIO_NOPULL;
  GPIO_InitStruct.Speed = GPIO_SPEED_FREQ_LOW;
  HAL_GPIO_Init(SPI3_CS_GPIO_Port, &GPIO_InitStruct);
 800081c:	a90b      	add	r1, sp, #44	; 0x2c
 800081e:	4630      	mov	r0, r6
  GPIO_InitStruct.Pin = SPI3_CS_Pin;
 8000820:	930b      	str	r3, [sp, #44]	; 0x2c
  GPIO_InitStruct.Mode = GPIO_MODE_OUTPUT_PP;
 8000822:	950c      	str	r5, [sp, #48]	; 0x30
  GPIO_InitStruct.Pull = GPIO_NOPULL;
 8000824:	940d      	str	r4, [sp, #52]	; 0x34
  GPIO_InitStruct.Speed = GPIO_SPEED_FREQ_LOW;
 8000826:	940e      	str	r4, [sp, #56]	; 0x38
  HAL_GPIO_Init(SPI3_CS_GPIO_Port, &GPIO_InitStruct);
 8000828:	f001 ffea 	bl	8002800 <HAL_GPIO_Init>

  /* EXTI interrupt init*/
  HAL_NVIC_SetPriority(EXTI15_10_IRQn, 0, 0);
 800082c:	4622      	mov	r2, r4
 800082e:	4621      	mov	r1, r4
 8000830:	2028      	movs	r0, #40	; 0x28
 8000832:	f001 fbed 	bl	8002010 <HAL_NVIC_SetPriority>
  HAL_NVIC_EnableIRQ(EXTI15_10_IRQn);
 8000836:	2028      	movs	r0, #40	; 0x28
 8000838:	f001 fc2c 	bl	8002094 <HAL_NVIC_EnableIRQ>

}
 800083c:	b011      	add	sp, #68	; 0x44
 800083e:	e8bd 8ff0 	ldmia.w	sp!, {r4, r5, r6, r7, r8, r9, sl, fp, pc}
 8000842:	bf00      	nop
 8000844:	40023800 	.word	0x40023800
 8000848:	40020000 	.word	0x40020000
 800084c:	40020400 	.word	0x40020400
 8000850:	40021000 	.word	0x40021000
 8000854:	10120000 	.word	0x10120000
 8000858:	40020800 	.word	0x40020800
 800085c:	40020c00 	.word	0x40020c00
 8000860:	40021800 	.word	0x40021800
 8000864:	10110000 	.word	0x10110000

08000868 <MX_I2C3_Init>:

I2C_HandleTypeDef hi2c3;

/* I2C3 init function */
void MX_I2C3_Init(void)
{
 8000868:	b508      	push	{r3, lr}

  hi2c3.Instance = I2C3;
 800086a:	480d      	ldr	r0, [pc, #52]	; (80008a0 <MX_I2C3_Init+0x38>)
  hi2c3.Init.ClockSpeed = 100000;
 800086c:	4b0d      	ldr	r3, [pc, #52]	; (80008a4 <MX_I2C3_Init+0x3c>)
 800086e:	f8df e03c 	ldr.w	lr, [pc, #60]	; 80008ac <MX_I2C3_Init+0x44>
  hi2c3.Init.DutyCycle = I2C_DUTYCYCLE_2;
  hi2c3.Init.OwnAddress1 = 0;
  hi2c3.Init.AddressingMode = I2C_ADDRESSINGMODE_7BIT;
 8000872:	f44f 4280 	mov.w	r2, #16384	; 0x4000
  hi2c3.Init.ClockSpeed = 100000;
 8000876:	e880 4008 	stmia.w	r0, {r3, lr}
  hi2c3.Init.DutyCycle = I2C_DUTYCYCLE_2;
 800087a:	2300      	movs	r3, #0
 800087c:	6083      	str	r3, [r0, #8]
  hi2c3.Init.OwnAddress1 = 0;
 800087e:	60c3      	str	r3, [r0, #12]
  hi2c3.Init.AddressingMode = I2C_ADDRESSINGMODE_7BIT;
 8000880:	6102      	str	r2, [r0, #16]
  hi2c3.Init.DualAddressMode = I2C_DUALADDRESS_DISABLE;
 8000882:	6143      	str	r3, [r0, #20]
  hi2c3.Init.OwnAddress2 = 0;
 8000884:	6183      	str	r3, [r0, #24]
  hi2c3.Init.GeneralCallMode = I2C_GENERALCALL_DISABLE;
 8000886:	61c3      	str	r3, [r0, #28]
  hi2c3.Init.NoStretchMode = I2C_NOSTRETCH_DISABLE;
 8000888:	6203      	str	r3, [r0, #32]
  if (HAL_I2C_Init(&hi2c3) != HAL_OK)
 800088a:	f002 fbef 	bl	800306c <HAL_I2C_Init>
 800088e:	b128      	cbz	r0, 800089c <MX_I2C3_Init+0x34>
  {
    _Error_Handler(__FILE__, __LINE__);
 8000890:	2142      	movs	r1, #66	; 0x42
 8000892:	4805      	ldr	r0, [pc, #20]	; (80008a8 <MX_I2C3_Init+0x40>)
  }

}
 8000894:	e8bd 4008 	ldmia.w	sp!, {r3, lr}
    _Error_Handler(__FILE__, __LINE__);
 8000898:	f000 ba3a 	b.w	8000d10 <_Error_Handler>
 800089c:	bd08      	pop	{r3, pc}
 800089e:	bf00      	nop
 80008a0:	20000b48 	.word	0x20000b48
 80008a4:	40005c00 	.word	0x40005c00
 80008a8:	0800722d 	.word	0x0800722d
 80008ac:	000186a0 	.word	0x000186a0

080008b0 <HAL_I2C_MspInit>:

void HAL_I2C_MspInit(I2C_HandleTypeDef* i2cHandle)
{
 80008b0:	b5f0      	push	{r4, r5, r6, r7, lr}

  GPIO_InitTypeDef GPIO_InitStruct;
  if(i2cHandle->Instance==I2C3)
 80008b2:	6802      	ldr	r2, [r0, #0]
 80008b4:	4b16      	ldr	r3, [pc, #88]	; (8000910 <HAL_I2C_MspInit+0x60>)
 80008b6:	429a      	cmp	r2, r3
{
 80008b8:	b087      	sub	sp, #28
  if(i2cHandle->Instance==I2C3)
 80008ba:	d126      	bne.n	800090a <HAL_I2C_MspInit+0x5a>
    */
    GPIO_InitStruct.Pin = I2C3_SDA_Pin;
    GPIO_InitStruct.Mode = GPIO_MODE_AF_OD;
    GPIO_InitStruct.Pull = GPIO_PULLUP;
    GPIO_InitStruct.Speed = GPIO_SPEED_FREQ_LOW;
    GPIO_InitStruct.Alternate = GPIO_AF4_I2C3;
 80008bc:	2504      	movs	r5, #4
    GPIO_InitStruct.Pin = I2C3_SDA_Pin;
 80008be:	f44f 7300 	mov.w	r3, #512	; 0x200
    GPIO_InitStruct.Speed = GPIO_SPEED_FREQ_LOW;
 80008c2:	2400      	movs	r4, #0
    GPIO_InitStruct.Mode = GPIO_MODE_AF_OD;
 80008c4:	2712      	movs	r7, #18
    GPIO_InitStruct.Pull = GPIO_PULLUP;
 80008c6:	2601      	movs	r6, #1
    HAL_GPIO_Init(I2C3_SDA_GPIO_Port, &GPIO_InitStruct);
 80008c8:	eb0d 0105 	add.w	r1, sp, r5
 80008cc:	4811      	ldr	r0, [pc, #68]	; (8000914 <HAL_I2C_MspInit+0x64>)
    GPIO_InitStruct.Pin = I2C3_SDA_Pin;
 80008ce:	9301      	str	r3, [sp, #4]
    GPIO_InitStruct.Mode = GPIO_MODE_AF_OD;
 80008d0:	9702      	str	r7, [sp, #8]
    GPIO_InitStruct.Pull = GPIO_PULLUP;
 80008d2:	9603      	str	r6, [sp, #12]
    GPIO_InitStruct.Speed = GPIO_SPEED_FREQ_LOW;
 80008d4:	9404      	str	r4, [sp, #16]
    GPIO_InitStruct.Alternate = GPIO_AF4_I2C3;
 80008d6:	9505      	str	r5, [sp, #20]
    HAL_GPIO_Init(I2C3_SDA_GPIO_Port, &GPIO_InitStruct);
 80008d8:	f001 ff92 	bl	8002800 <HAL_GPIO_Init>

    GPIO_InitStruct.Pin = I2C3_SCL_Pin;
 80008dc:	f44f 7380 	mov.w	r3, #256	; 0x100
    GPIO_InitStruct.Mode = GPIO_MODE_AF_OD;
    GPIO_InitStruct.Pull = GPIO_PULLUP;
    GPIO_InitStruct.Speed = GPIO_SPEED_FREQ_LOW;
    GPIO_InitStruct.Alternate = GPIO_AF4_I2C3;
    HAL_GPIO_Init(I2C3_SCL_GPIO_Port, &GPIO_InitStruct);
 80008e0:	eb0d 0105 	add.w	r1, sp, r5
 80008e4:	480c      	ldr	r0, [pc, #48]	; (8000918 <HAL_I2C_MspInit+0x68>)
    GPIO_InitStruct.Pin = I2C3_SCL_Pin;
 80008e6:	9301      	str	r3, [sp, #4]
    GPIO_InitStruct.Mode = GPIO_MODE_AF_OD;
 80008e8:	9702      	str	r7, [sp, #8]
    GPIO_InitStruct.Pull = GPIO_PULLUP;
 80008ea:	9603      	str	r6, [sp, #12]
    GPIO_InitStruct.Speed = GPIO_SPEED_FREQ_LOW;
 80008ec:	9404      	str	r4, [sp, #16]
    GPIO_InitStruct.Alternate = GPIO_AF4_I2C3;
 80008ee:	9505      	str	r5, [sp, #20]
    HAL_GPIO_Init(I2C3_SCL_GPIO_Port, &GPIO_InitStruct);
 80008f0:	f001 ff86 	bl	8002800 <HAL_GPIO_Init>

    /* I2C3 clock enable */
    __HAL_RCC_I2C3_CLK_ENABLE();
 80008f4:	4b09      	ldr	r3, [pc, #36]	; (800091c <HAL_I2C_MspInit+0x6c>)
 80008f6:	9400      	str	r4, [sp, #0]
 80008f8:	6c1a      	ldr	r2, [r3, #64]	; 0x40
 80008fa:	f442 0200 	orr.w	r2, r2, #8388608	; 0x800000
 80008fe:	641a      	str	r2, [r3, #64]	; 0x40
 8000900:	6c1b      	ldr	r3, [r3, #64]	; 0x40
 8000902:	f403 0300 	and.w	r3, r3, #8388608	; 0x800000
 8000906:	9300      	str	r3, [sp, #0]
 8000908:	9b00      	ldr	r3, [sp, #0]
  /* USER CODE BEGIN I2C3_MspInit 1 */

  /* USER CODE END I2C3_MspInit 1 */
  }
}
 800090a:	b007      	add	sp, #28
 800090c:	bdf0      	pop	{r4, r5, r6, r7, pc}
 800090e:	bf00      	nop
 8000910:	40005c00 	.word	0x40005c00
 8000914:	40020800 	.word	0x40020800
 8000918:	40020000 	.word	0x40020000
 800091c:	40023800 	.word	0x40023800

08000920 <MX_LTDC_Init>:
/* LTDC init function */
void MX_LTDC_Init(void)
{
  LTDC_LayerCfgTypeDef pLayerCfg;

  hltdc.Instance = LTDC;
 8000920:	4829      	ldr	r0, [pc, #164]	; (80009c8 <MX_LTDC_Init+0xa8>)
  hltdc.Init.HSPolarity = LTDC_HSPOLARITY_AL;
 8000922:	4b2a      	ldr	r3, [pc, #168]	; (80009cc <MX_LTDC_Init+0xac>)
{
 8000924:	b510      	push	{r4, lr}
  hltdc.Init.HSPolarity = LTDC_HSPOLARITY_AL;
 8000926:	2400      	movs	r4, #0
 8000928:	e880 0018 	stmia.w	r0, {r3, r4}
  hltdc.Init.VSPolarity = LTDC_VSPOLARITY_AL;
  hltdc.Init.DEPolarity = LTDC_DEPOLARITY_AL;
  hltdc.Init.PCPolarity = LTDC_PCPOLARITY_IIPC;
 800092c:	f04f 5380 	mov.w	r3, #268435456	; 0x10000000
 8000930:	6103      	str	r3, [r0, #16]
  hltdc.Init.HorizontalSync = 9;
 8000932:	2309      	movs	r3, #9
 8000934:	6143      	str	r3, [r0, #20]
  hltdc.Init.VerticalSync = 1;
 8000936:	2301      	movs	r3, #1
 8000938:	6183      	str	r3, [r0, #24]
  hltdc.Init.AccumulatedHBP = 29;
 800093a:	231d      	movs	r3, #29
 800093c:	61c3      	str	r3, [r0, #28]
  hltdc.Init.AccumulatedVBP = 3;
 800093e:	2303      	movs	r3, #3
 8000940:	6203      	str	r3, [r0, #32]
  hltdc.Init.AccumulatedActiveW = 269;
 8000942:	f240 130d 	movw	r3, #269	; 0x10d
 8000946:	6243      	str	r3, [r0, #36]	; 0x24
  hltdc.Init.AccumulatedActiveH = 323;
 8000948:	f240 1343 	movw	r3, #323	; 0x143
 800094c:	6283      	str	r3, [r0, #40]	; 0x28
  hltdc.Init.TotalWidth = 279;
 800094e:	f240 1317 	movw	r3, #279	; 0x117
{
 8000952:	b08e      	sub	sp, #56	; 0x38
  hltdc.Init.TotalWidth = 279;
 8000954:	62c3      	str	r3, [r0, #44]	; 0x2c
  hltdc.Init.TotalHeigh = 327;
 8000956:	f240 1347 	movw	r3, #327	; 0x147
  hltdc.Init.VSPolarity = LTDC_VSPOLARITY_AL;
 800095a:	6084      	str	r4, [r0, #8]
  hltdc.Init.DEPolarity = LTDC_DEPOLARITY_AL;
 800095c:	60c4      	str	r4, [r0, #12]
  hltdc.Init.TotalHeigh = 327;
 800095e:	6303      	str	r3, [r0, #48]	; 0x30
  hltdc.Init.Backcolor.Blue = 0;
 8000960:	f880 4034 	strb.w	r4, [r0, #52]	; 0x34
  hltdc.Init.Backcolor.Green = 0;
 8000964:	f880 4035 	strb.w	r4, [r0, #53]	; 0x35
  hltdc.Init.Backcolor.Red = 0;
 8000968:	f880 4036 	strb.w	r4, [r0, #54]	; 0x36
  if (HAL_LTDC_Init(&hltdc) != HAL_OK)
 800096c:	f002 fe94 	bl	8003698 <HAL_LTDC_Init>
 8000970:	b118      	cbz	r0, 800097a <MX_LTDC_Init+0x5a>
  {
    _Error_Handler(__FILE__, __LINE__);
 8000972:	214a      	movs	r1, #74	; 0x4a
 8000974:	4816      	ldr	r0, [pc, #88]	; (80009d0 <MX_LTDC_Init+0xb0>)
 8000976:	f000 f9cb 	bl	8000d10 <_Error_Handler>

  pLayerCfg.WindowX0 = 0;
  pLayerCfg.WindowX1 = 240;
  pLayerCfg.WindowY0 = 0;
  pLayerCfg.WindowY1 = 320;
  pLayerCfg.PixelFormat = LTDC_PIXEL_FORMAT_L8;
 800097a:	2105      	movs	r1, #5
 800097c:	9105      	str	r1, [sp, #20]
  pLayerCfg.Alpha = 255;
 800097e:	21ff      	movs	r1, #255	; 0xff
 8000980:	9106      	str	r1, [sp, #24]
  pLayerCfg.Alpha0 = 0;
  pLayerCfg.BlendingFactor1 = LTDC_BLENDING_FACTOR1_PAxCA;
 8000982:	f44f 61c0 	mov.w	r1, #1536	; 0x600
  pLayerCfg.WindowX1 = 240;
 8000986:	22f0      	movs	r2, #240	; 0xf0
  pLayerCfg.BlendingFactor1 = LTDC_BLENDING_FACTOR1_PAxCA;
 8000988:	9108      	str	r1, [sp, #32]
  pLayerCfg.BlendingFactor2 = LTDC_BLENDING_FACTOR2_PAxCA;
 800098a:	2107      	movs	r1, #7
  pLayerCfg.WindowY1 = 320;
 800098c:	f44f 73a0 	mov.w	r3, #320	; 0x140
  pLayerCfg.WindowX1 = 240;
 8000990:	9202      	str	r2, [sp, #8]
  pLayerCfg.BlendingFactor2 = LTDC_BLENDING_FACTOR2_PAxCA;
 8000992:	9109      	str	r1, [sp, #36]	; 0x24
  pLayerCfg.FBStartAdress = 0;
  pLayerCfg.ImageWidth = 240;
 8000994:	920b      	str	r2, [sp, #44]	; 0x2c
  pLayerCfg.ImageHeight = 320;
  pLayerCfg.Backcolor.Blue = 0;
  pLayerCfg.Backcolor.Green = 0;
  pLayerCfg.Backcolor.Red = 0;
  if (HAL_LTDC_ConfigLayer(&hltdc, &pLayerCfg, 0) != HAL_OK)
 8000996:	a901      	add	r1, sp, #4
 8000998:	2200      	movs	r2, #0
 800099a:	480b      	ldr	r0, [pc, #44]	; (80009c8 <MX_LTDC_Init+0xa8>)
  pLayerCfg.WindowX0 = 0;
 800099c:	9401      	str	r4, [sp, #4]
  pLayerCfg.WindowY0 = 0;
 800099e:	9403      	str	r4, [sp, #12]
  pLayerCfg.WindowY1 = 320;
 80009a0:	9304      	str	r3, [sp, #16]
  pLayerCfg.Alpha0 = 0;
 80009a2:	9407      	str	r4, [sp, #28]
  pLayerCfg.FBStartAdress = 0;
 80009a4:	940a      	str	r4, [sp, #40]	; 0x28
  pLayerCfg.ImageHeight = 320;
 80009a6:	930c      	str	r3, [sp, #48]	; 0x30
  pLayerCfg.Backcolor.Blue = 0;
 80009a8:	f88d 4034 	strb.w	r4, [sp, #52]	; 0x34
  pLayerCfg.Backcolor.Green = 0;
 80009ac:	f88d 4035 	strb.w	r4, [sp, #53]	; 0x35
  pLayerCfg.Backcolor.Red = 0;
 80009b0:	f88d 4036 	strb.w	r4, [sp, #54]	; 0x36
  if (HAL_LTDC_ConfigLayer(&hltdc, &pLayerCfg, 0) != HAL_OK)
 80009b4:	f002 ffaa 	bl	800390c <HAL_LTDC_ConfigLayer>
 80009b8:	b118      	cbz	r0, 80009c2 <MX_LTDC_Init+0xa2>
  {
    _Error_Handler(__FILE__, __LINE__);
 80009ba:	215e      	movs	r1, #94	; 0x5e
 80009bc:	4804      	ldr	r0, [pc, #16]	; (80009d0 <MX_LTDC_Init+0xb0>)
 80009be:	f000 f9a7 	bl	8000d10 <_Error_Handler>
  }

}
 80009c2:	b00e      	add	sp, #56	; 0x38
 80009c4:	bd10      	pop	{r4, pc}
 80009c6:	bf00      	nop
 80009c8:	20000b9c 	.word	0x20000b9c
 80009cc:	40016800 	.word	0x40016800
 80009d0:	08007240 	.word	0x08007240

080009d4 <HAL_LTDC_MspInit>:

void HAL_LTDC_MspInit(LTDC_HandleTypeDef* ltdcHandle)
{
 80009d4:	b5f0      	push	{r4, r5, r6, r7, lr}

  GPIO_InitTypeDef GPIO_InitStruct;
  if(ltdcHandle->Instance==LTDC)
 80009d6:	6802      	ldr	r2, [r0, #0]
 80009d8:	4b3d      	ldr	r3, [pc, #244]	; (8000ad0 <HAL_LTDC_MspInit+0xfc>)
 80009da:	429a      	cmp	r2, r3
{
 80009dc:	b087      	sub	sp, #28
  if(ltdcHandle->Instance==LTDC)
 80009de:	d175      	bne.n	8000acc <HAL_LTDC_MspInit+0xf8>
  {
  /* USER CODE BEGIN LTDC_MspInit 0 */

  /* USER CODE END LTDC_MspInit 0 */
    /* LTDC clock enable */
    __HAL_RCC_LTDC_CLK_ENABLE();
 80009e0:	2400      	movs	r4, #0
 80009e2:	f503 4350 	add.w	r3, r3, #53248	; 0xd000
 80009e6:	9400      	str	r4, [sp, #0]
 80009e8:	6c5a      	ldr	r2, [r3, #68]	; 0x44
    GPIO_InitStruct.Pin = ENABLE_Pin;
    GPIO_InitStruct.Mode = GPIO_MODE_AF_PP;
    GPIO_InitStruct.Pull = GPIO_NOPULL;
    GPIO_InitStruct.Speed = GPIO_SPEED_FREQ_LOW;
    GPIO_InitStruct.Alternate = GPIO_AF14_LTDC;
    HAL_GPIO_Init(ENABLE_GPIO_Port, &GPIO_InitStruct);
 80009ea:	483a      	ldr	r0, [pc, #232]	; (8000ad4 <HAL_LTDC_MspInit+0x100>)
    __HAL_RCC_LTDC_CLK_ENABLE();
 80009ec:	f042 6280 	orr.w	r2, r2, #67108864	; 0x4000000
 80009f0:	645a      	str	r2, [r3, #68]	; 0x44
 80009f2:	6c5b      	ldr	r3, [r3, #68]	; 0x44
    GPIO_InitStruct.Pull = GPIO_NOPULL;
 80009f4:	9403      	str	r4, [sp, #12]
    __HAL_RCC_LTDC_CLK_ENABLE();
 80009f6:	f003 6380 	and.w	r3, r3, #67108864	; 0x4000000
 80009fa:	9300      	str	r3, [sp, #0]
    GPIO_InitStruct.Mode = GPIO_MODE_AF_PP;
 80009fc:	2502      	movs	r5, #2
    GPIO_InitStruct.Alternate = GPIO_AF14_LTDC;
 80009fe:	260e      	movs	r6, #14
    __HAL_RCC_LTDC_CLK_ENABLE();
 8000a00:	9b00      	ldr	r3, [sp, #0]
    GPIO_InitStruct.Mode = GPIO_MODE_AF_PP;
 8000a02:	9502      	str	r5, [sp, #8]
    GPIO_InitStruct.Pin = ENABLE_Pin;
 8000a04:	f44f 6380 	mov.w	r3, #1024	; 0x400
    HAL_GPIO_Init(ENABLE_GPIO_Port, &GPIO_InitStruct);
 8000a08:	a901      	add	r1, sp, #4
    GPIO_InitStruct.Pin = ENABLE_Pin;
 8000a0a:	9301      	str	r3, [sp, #4]
    GPIO_InitStruct.Speed = GPIO_SPEED_FREQ_LOW;
 8000a0c:	9404      	str	r4, [sp, #16]
    GPIO_InitStruct.Alternate = GPIO_AF14_LTDC;
 8000a0e:	9605      	str	r6, [sp, #20]
    HAL_GPIO_Init(ENABLE_GPIO_Port, &GPIO_InitStruct);
 8000a10:	f001 fef6 	bl	8002800 <HAL_GPIO_Init>

    GPIO_InitStruct.Pin = B5_Pin|VSYNC_Pin|G2_Pin|R4_Pin 
 8000a14:	f641 0358 	movw	r3, #6232	; 0x1858
                          |R5_Pin;
    GPIO_InitStruct.Mode = GPIO_MODE_AF_PP;
    GPIO_InitStruct.Pull = GPIO_NOPULL;
    GPIO_InitStruct.Speed = GPIO_SPEED_FREQ_LOW;
    GPIO_InitStruct.Alternate = GPIO_AF14_LTDC;
    HAL_GPIO_Init(GPIOA, &GPIO_InitStruct);
 8000a18:	a901      	add	r1, sp, #4
 8000a1a:	482f      	ldr	r0, [pc, #188]	; (8000ad8 <HAL_LTDC_MspInit+0x104>)
    GPIO_InitStruct.Pin = B5_Pin|VSYNC_Pin|G2_Pin|R4_Pin 
 8000a1c:	9301      	str	r3, [sp, #4]

    GPIO_InitStruct.Pin = R3_Pin|R6_Pin;
    GPIO_InitStruct.Mode = GPIO_MODE_AF_PP;
    GPIO_InitStruct.Pull = GPIO_NOPULL;
    GPIO_InitStruct.Speed = GPIO_SPEED_FREQ_LOW;
    GPIO_InitStruct.Alternate = GPIO_AF9_LTDC;
 8000a1e:	2709      	movs	r7, #9
    GPIO_InitStruct.Mode = GPIO_MODE_AF_PP;
 8000a20:	9502      	str	r5, [sp, #8]
    GPIO_InitStruct.Pull = GPIO_NOPULL;
 8000a22:	9403      	str	r4, [sp, #12]
    GPIO_InitStruct.Speed = GPIO_SPEED_FREQ_LOW;
 8000a24:	9404      	str	r4, [sp, #16]
    GPIO_InitStruct.Alternate = GPIO_AF14_LTDC;
 8000a26:	9605      	str	r6, [sp, #20]
    HAL_GPIO_Init(GPIOA, &GPIO_InitStruct);
 8000a28:	f001 feea 	bl	8002800 <HAL_GPIO_Init>
    GPIO_InitStruct.Pin = R3_Pin|R6_Pin;
 8000a2c:	2303      	movs	r3, #3
    HAL_GPIO_Init(GPIOB, &GPIO_InitStruct);
 8000a2e:	a901      	add	r1, sp, #4
 8000a30:	482a      	ldr	r0, [pc, #168]	; (8000adc <HAL_LTDC_MspInit+0x108>)
    GPIO_InitStruct.Pin = R3_Pin|R6_Pin;
 8000a32:	9301      	str	r3, [sp, #4]
    GPIO_InitStruct.Mode = GPIO_MODE_AF_PP;
 8000a34:	9502      	str	r5, [sp, #8]
    GPIO_InitStruct.Pull = GPIO_NOPULL;
 8000a36:	9403      	str	r4, [sp, #12]
    GPIO_InitStruct.Speed = GPIO_SPEED_FREQ_LOW;
 8000a38:	9404      	str	r4, [sp, #16]
    GPIO_InitStruct.Alternate = GPIO_AF9_LTDC;
 8000a3a:	9705      	str	r7, [sp, #20]
    HAL_GPIO_Init(GPIOB, &GPIO_InitStruct);
 8000a3c:	f001 fee0 	bl	8002800 <HAL_GPIO_Init>

    GPIO_InitStruct.Pin = G4_Pin|G5_Pin|B6_Pin|B7_Pin;
 8000a40:	f44f 6370 	mov.w	r3, #3840	; 0xf00
    GPIO_InitStruct.Mode = GPIO_MODE_AF_PP;
    GPIO_InitStruct.Pull = GPIO_NOPULL;
    GPIO_InitStruct.Speed = GPIO_SPEED_FREQ_LOW;
    GPIO_InitStruct.Alternate = GPIO_AF14_LTDC;
    HAL_GPIO_Init(GPIOB, &GPIO_InitStruct);
 8000a44:	a901      	add	r1, sp, #4
 8000a46:	4825      	ldr	r0, [pc, #148]	; (8000adc <HAL_LTDC_MspInit+0x108>)
    GPIO_InitStruct.Pin = G4_Pin|G5_Pin|B6_Pin|B7_Pin;
 8000a48:	9301      	str	r3, [sp, #4]
    GPIO_InitStruct.Mode = GPIO_MODE_AF_PP;
 8000a4a:	9502      	str	r5, [sp, #8]
    GPIO_InitStruct.Pull = GPIO_NOPULL;
 8000a4c:	9403      	str	r4, [sp, #12]
    GPIO_InitStruct.Speed = GPIO_SPEED_FREQ_LOW;
 8000a4e:	9404      	str	r4, [sp, #16]
    GPIO_InitStruct.Alternate = GPIO_AF14_LTDC;
 8000a50:	9605      	str	r6, [sp, #20]
    HAL_GPIO_Init(GPIOB, &GPIO_InitStruct);
 8000a52:	f001 fed5 	bl	8002800 <HAL_GPIO_Init>

    GPIO_InitStruct.Pin = R7_Pin|DOTCLK_Pin|B3_Pin;
 8000a56:	f44f 630c 	mov.w	r3, #2240	; 0x8c0
    GPIO_InitStruct.Mode = GPIO_MODE_AF_PP;
    GPIO_InitStruct.Pull = GPIO_NOPULL;
    GPIO_InitStruct.Speed = GPIO_SPEED_FREQ_LOW;
    GPIO_InitStruct.Alternate = GPIO_AF14_LTDC;
    HAL_GPIO_Init(GPIOG, &GPIO_InitStruct);
 8000a5a:	a901      	add	r1, sp, #4
 8000a5c:	4820      	ldr	r0, [pc, #128]	; (8000ae0 <HAL_LTDC_MspInit+0x10c>)
    GPIO_InitStruct.Pin = R7_Pin|DOTCLK_Pin|B3_Pin;
 8000a5e:	9301      	str	r3, [sp, #4]
    GPIO_InitStruct.Mode = GPIO_MODE_AF_PP;
 8000a60:	9502      	str	r5, [sp, #8]
    GPIO_InitStruct.Pull = GPIO_NOPULL;
 8000a62:	9403      	str	r4, [sp, #12]
    GPIO_InitStruct.Speed = GPIO_SPEED_FREQ_LOW;
 8000a64:	9404      	str	r4, [sp, #16]
    GPIO_InitStruct.Alternate = GPIO_AF14_LTDC;
 8000a66:	9605      	str	r6, [sp, #20]
    HAL_GPIO_Init(GPIOG, &GPIO_InitStruct);
 8000a68:	f001 feca 	bl	8002800 <HAL_GPIO_Init>

    GPIO_InitStruct.Pin = HSYNC_Pin|G6_Pin|R2_Pin;
 8000a6c:	f44f 6398 	mov.w	r3, #1216	; 0x4c0
    GPIO_InitStruct.Mode = GPIO_MODE_AF_PP;
    GPIO_InitStruct.Pull = GPIO_NOPULL;
    GPIO_InitStruct.Speed = GPIO_SPEED_FREQ_LOW;
    GPIO_InitStruct.Alternate = GPIO_AF14_LTDC;
    HAL_GPIO_Init(GPIOC, &GPIO_InitStruct);
 8000a70:	a901      	add	r1, sp, #4
 8000a72:	481c      	ldr	r0, [pc, #112]	; (8000ae4 <HAL_LTDC_MspInit+0x110>)
    GPIO_InitStruct.Pin = HSYNC_Pin|G6_Pin|R2_Pin;
 8000a74:	9301      	str	r3, [sp, #4]
    GPIO_InitStruct.Mode = GPIO_MODE_AF_PP;
 8000a76:	9502      	str	r5, [sp, #8]
    GPIO_InitStruct.Pull = GPIO_NOPULL;
 8000a78:	9403      	str	r4, [sp, #12]
    GPIO_InitStruct.Speed = GPIO_SPEED_FREQ_LOW;
 8000a7a:	9404      	str	r4, [sp, #16]
    GPIO_InitStruct.Alternate = GPIO_AF14_LTDC;
 8000a7c:	9605      	str	r6, [sp, #20]
    HAL_GPIO_Init(GPIOC, &GPIO_InitStruct);
 8000a7e:	f001 febf 	bl	8002800 <HAL_GPIO_Init>

    GPIO_InitStruct.Pin = G7_Pin|B2_Pin;
 8000a82:	2348      	movs	r3, #72	; 0x48
    GPIO_InitStruct.Mode = GPIO_MODE_AF_PP;
    GPIO_InitStruct.Pull = GPIO_NOPULL;
    GPIO_InitStruct.Speed = GPIO_SPEED_FREQ_LOW;
    GPIO_InitStruct.Alternate = GPIO_AF14_LTDC;
    HAL_GPIO_Init(GPIOD, &GPIO_InitStruct);
 8000a84:	a901      	add	r1, sp, #4
 8000a86:	4818      	ldr	r0, [pc, #96]	; (8000ae8 <HAL_LTDC_MspInit+0x114>)
    GPIO_InitStruct.Pin = G7_Pin|B2_Pin;
 8000a88:	9301      	str	r3, [sp, #4]
    GPIO_InitStruct.Mode = GPIO_MODE_AF_PP;
 8000a8a:	9502      	str	r5, [sp, #8]
    GPIO_InitStruct.Pull = GPIO_NOPULL;
 8000a8c:	9403      	str	r4, [sp, #12]
    GPIO_InitStruct.Speed = GPIO_SPEED_FREQ_LOW;
 8000a8e:	9404      	str	r4, [sp, #16]
    GPIO_InitStruct.Alternate = GPIO_AF14_LTDC;
 8000a90:	9605      	str	r6, [sp, #20]
    HAL_GPIO_Init(GPIOD, &GPIO_InitStruct);
 8000a92:	f001 feb5 	bl	8002800 <HAL_GPIO_Init>

    GPIO_InitStruct.Pin = G3_Pin|B4_Pin;
 8000a96:	f44f 53a0 	mov.w	r3, #5120	; 0x1400
    GPIO_InitStruct.Mode = GPIO_MODE_AF_PP;
    GPIO_InitStruct.Pull = GPIO_NOPULL;
    GPIO_InitStruct.Speed = GPIO_SPEED_FREQ_LOW;
    GPIO_InitStruct.Alternate = GPIO_AF9_LTDC;
    HAL_GPIO_Init(GPIOG, &GPIO_InitStruct);
 8000a9a:	a901      	add	r1, sp, #4
 8000a9c:	4810      	ldr	r0, [pc, #64]	; (8000ae0 <HAL_LTDC_MspInit+0x10c>)
    GPIO_InitStruct.Pin = G3_Pin|B4_Pin;
 8000a9e:	9301      	str	r3, [sp, #4]
    GPIO_InitStruct.Mode = GPIO_MODE_AF_PP;
 8000aa0:	9502      	str	r5, [sp, #8]
    GPIO_InitStruct.Pull = GPIO_NOPULL;
 8000aa2:	9403      	str	r4, [sp, #12]
    GPIO_InitStruct.Speed = GPIO_SPEED_FREQ_LOW;
 8000aa4:	9404      	str	r4, [sp, #16]
    GPIO_InitStruct.Alternate = GPIO_AF9_LTDC;
 8000aa6:	9705      	str	r7, [sp, #20]
    HAL_GPIO_Init(GPIOG, &GPIO_InitStruct);
 8000aa8:	f001 feaa 	bl	8002800 <HAL_GPIO_Init>

    /* LTDC interrupt Init */
    HAL_NVIC_SetPriority(LTDC_IRQn, 0, 0);
 8000aac:	4622      	mov	r2, r4
 8000aae:	4621      	mov	r1, r4
 8000ab0:	2058      	movs	r0, #88	; 0x58
 8000ab2:	f001 faad 	bl	8002010 <HAL_NVIC_SetPriority>
    HAL_NVIC_EnableIRQ(LTDC_IRQn);
 8000ab6:	2058      	movs	r0, #88	; 0x58
 8000ab8:	f001 faec 	bl	8002094 <HAL_NVIC_EnableIRQ>
    HAL_NVIC_SetPriority(LTDC_ER_IRQn, 0, 0);
 8000abc:	2059      	movs	r0, #89	; 0x59
 8000abe:	4622      	mov	r2, r4
 8000ac0:	4621      	mov	r1, r4
 8000ac2:	f001 faa5 	bl	8002010 <HAL_NVIC_SetPriority>
    HAL_NVIC_EnableIRQ(LTDC_ER_IRQn);
 8000ac6:	2059      	movs	r0, #89	; 0x59
 8000ac8:	f001 fae4 	bl	8002094 <HAL_NVIC_EnableIRQ>
  /* USER CODE BEGIN LTDC_MspInit 1 */

  /* USER CODE END LTDC_MspInit 1 */
  }
}
 8000acc:	b007      	add	sp, #28
 8000ace:	bdf0      	pop	{r4, r5, r6, r7, pc}
 8000ad0:	40016800 	.word	0x40016800
 8000ad4:	40021400 	.word	0x40021400
 8000ad8:	40020000 	.word	0x40020000
 8000adc:	40020400 	.word	0x40020400
 8000ae0:	40021800 	.word	0x40021800
 8000ae4:	40020800 	.word	0x40020800
 8000ae8:	40020c00 	.word	0x40020c00

08000aec <SystemClock_Config>:
}

/** System Clock Configuration
*/
void SystemClock_Config(void)
{
 8000aec:	b530      	push	{r4, r5, lr}
 8000aee:	b0a1      	sub	sp, #132	; 0x84
  RCC_ClkInitTypeDef RCC_ClkInitStruct;
  RCC_PeriphCLKInitTypeDef PeriphClkInitStruct;

    /**Configure the main internal regulator output voltage 
    */
  __HAL_RCC_PWR_CLK_ENABLE();
 8000af0:	4b2f      	ldr	r3, [pc, #188]	; (8000bb0 <SystemClock_Config+0xc4>)
 8000af2:	2100      	movs	r1, #0
 8000af4:	9101      	str	r1, [sp, #4]
 8000af6:	6c1a      	ldr	r2, [r3, #64]	; 0x40
 8000af8:	f042 5280 	orr.w	r2, r2, #268435456	; 0x10000000
 8000afc:	641a      	str	r2, [r3, #64]	; 0x40
 8000afe:	6c1b      	ldr	r3, [r3, #64]	; 0x40
 8000b00:	f003 5380 	and.w	r3, r3, #268435456	; 0x10000000
 8000b04:	9301      	str	r3, [sp, #4]
 8000b06:	9b01      	ldr	r3, [sp, #4]

  __HAL_PWR_VOLTAGESCALING_CONFIG(PWR_REGULATOR_VOLTAGE_SCALE1);
 8000b08:	4b2a      	ldr	r3, [pc, #168]	; (8000bb4 <SystemClock_Config+0xc8>)
 8000b0a:	9102      	str	r1, [sp, #8]
 8000b0c:	681a      	ldr	r2, [r3, #0]
 8000b0e:	f442 4240 	orr.w	r2, r2, #49152	; 0xc000
 8000b12:	601a      	str	r2, [r3, #0]
 8000b14:	681b      	ldr	r3, [r3, #0]
 8000b16:	f403 4340 	and.w	r3, r3, #49152	; 0xc000
 8000b1a:	9302      	str	r3, [sp, #8]
 8000b1c:	9b02      	ldr	r3, [sp, #8]

    /**Initializes the CPU, AHB and APB busses clocks 
    */
  RCC_OscInitStruct.OscillatorType = RCC_OSCILLATORTYPE_HSE;
 8000b1e:	2301      	movs	r3, #1
 8000b20:	9308      	str	r3, [sp, #32]
  RCC_OscInitStruct.HSEState = RCC_HSE_ON;
 8000b22:	f44f 3380 	mov.w	r3, #65536	; 0x10000
 8000b26:	9309      	str	r3, [sp, #36]	; 0x24
  RCC_OscInitStruct.PLL.PLLState = RCC_PLL_ON;
  RCC_OscInitStruct.PLL.PLLSource = RCC_PLLSOURCE_HSE;
 8000b28:	f44f 0380 	mov.w	r3, #4194304	; 0x400000
 8000b2c:	930f      	str	r3, [sp, #60]	; 0x3c
  RCC_OscInitStruct.PLL.PLLM = 8;
  RCC_OscInitStruct.PLL.PLLN = 336;
 8000b2e:	f44f 73a8 	mov.w	r3, #336	; 0x150
  RCC_OscInitStruct.PLL.PLLState = RCC_PLL_ON;
 8000b32:	2402      	movs	r4, #2
  RCC_OscInitStruct.PLL.PLLM = 8;
 8000b34:	2508      	movs	r5, #8
  RCC_OscInitStruct.PLL.PLLN = 336;
 8000b36:	9311      	str	r3, [sp, #68]	; 0x44
  RCC_OscInitStruct.PLL.PLLP = RCC_PLLP_DIV2;
  RCC_OscInitStruct.PLL.PLLQ = 7;
  if (HAL_RCC_OscConfig(&RCC_OscInitStruct) != HAL_OK)
 8000b38:	a808      	add	r0, sp, #32
  RCC_OscInitStruct.PLL.PLLQ = 7;
 8000b3a:	2307      	movs	r3, #7
  RCC_OscInitStruct.PLL.PLLState = RCC_PLL_ON;
 8000b3c:	940e      	str	r4, [sp, #56]	; 0x38
  RCC_OscInitStruct.PLL.PLLM = 8;
 8000b3e:	9510      	str	r5, [sp, #64]	; 0x40
  RCC_OscInitStruct.PLL.PLLP = RCC_PLLP_DIV2;
 8000b40:	9412      	str	r4, [sp, #72]	; 0x48
  RCC_OscInitStruct.PLL.PLLQ = 7;
 8000b42:	9313      	str	r3, [sp, #76]	; 0x4c
  if (HAL_RCC_OscConfig(&RCC_OscInitStruct) != HAL_OK)
 8000b44:	f003 f812 	bl	8003b6c <HAL_RCC_OscConfig>
 8000b48:	b100      	cbz	r0, 8000b4c <SystemClock_Config+0x60>
 8000b4a:	e7fe      	b.n	8000b4a <SystemClock_Config+0x5e>
    _Error_Handler(__FILE__, __LINE__);
  }

    /**Initializes the CPU, AHB and APB busses clocks 
    */
  RCC_ClkInitStruct.ClockType = RCC_CLOCKTYPE_HCLK|RCC_CLOCKTYPE_SYSCLK
 8000b4c:	230f      	movs	r3, #15
 8000b4e:	9303      	str	r3, [sp, #12]
                              |RCC_CLOCKTYPE_PCLK1|RCC_CLOCKTYPE_PCLK2;
  RCC_ClkInitStruct.SYSCLKSource = RCC_SYSCLKSOURCE_PLLCLK;
  RCC_ClkInitStruct.AHBCLKDivider = RCC_SYSCLK_DIV1;
  RCC_ClkInitStruct.APB1CLKDivider = RCC_HCLK_DIV4;
 8000b50:	f44f 53a0 	mov.w	r3, #5120	; 0x1400
  RCC_ClkInitStruct.AHBCLKDivider = RCC_SYSCLK_DIV1;
 8000b54:	9005      	str	r0, [sp, #20]
  RCC_ClkInitStruct.APB1CLKDivider = RCC_HCLK_DIV4;
 8000b56:	9306      	str	r3, [sp, #24]
  RCC_ClkInitStruct.APB2CLKDivider = RCC_HCLK_DIV2;

  if (HAL_RCC_ClockConfig(&RCC_ClkInitStruct, FLASH_LATENCY_5) != HAL_OK)
 8000b58:	2105      	movs	r1, #5
  RCC_ClkInitStruct.APB2CLKDivider = RCC_HCLK_DIV2;
 8000b5a:	f44f 5380 	mov.w	r3, #4096	; 0x1000
  if (HAL_RCC_ClockConfig(&RCC_ClkInitStruct, FLASH_LATENCY_5) != HAL_OK)
 8000b5e:	a803      	add	r0, sp, #12
  RCC_ClkInitStruct.SYSCLKSource = RCC_SYSCLKSOURCE_PLLCLK;
 8000b60:	9404      	str	r4, [sp, #16]
  RCC_ClkInitStruct.APB2CLKDivider = RCC_HCLK_DIV2;
 8000b62:	9307      	str	r3, [sp, #28]
  if (HAL_RCC_ClockConfig(&RCC_ClkInitStruct, FLASH_LATENCY_5) != HAL_OK)
 8000b64:	f003 fa3e 	bl	8003fe4 <HAL_RCC_ClockConfig>
 8000b68:	b100      	cbz	r0, 8000b6c <SystemClock_Config+0x80>
 8000b6a:	e7fe      	b.n	8000b6a <SystemClock_Config+0x7e>
  {
    _Error_Handler(__FILE__, __LINE__);
  }

  PeriphClkInitStruct.PeriphClockSelection = RCC_PERIPHCLK_LTDC;
  PeriphClkInitStruct.PLLSAI.PLLSAIN = 192;
 8000b6c:	23c0      	movs	r3, #192	; 0xc0
  PeriphClkInitStruct.PeriphClockSelection = RCC_PERIPHCLK_LTDC;
 8000b6e:	9514      	str	r5, [sp, #80]	; 0x50
  PeriphClkInitStruct.PLLSAI.PLLSAIN = 192;
 8000b70:	9318      	str	r3, [sp, #96]	; 0x60
  PeriphClkInitStruct.PLLSAI.PLLSAIR = 4;
 8000b72:	2504      	movs	r5, #4
  PeriphClkInitStruct.PLLSAIDivR = RCC_PLLSAIDIVR_8;
 8000b74:	f44f 3300 	mov.w	r3, #131072	; 0x20000
  if (HAL_RCCEx_PeriphCLKConfig(&PeriphClkInitStruct) != HAL_OK)
 8000b78:	a814      	add	r0, sp, #80	; 0x50
  PeriphClkInitStruct.PLLSAI.PLLSAIR = 4;
 8000b7a:	951a      	str	r5, [sp, #104]	; 0x68
  PeriphClkInitStruct.PLLSAIDivR = RCC_PLLSAIDIVR_8;
 8000b7c:	931d      	str	r3, [sp, #116]	; 0x74
  if (HAL_RCCEx_PeriphCLKConfig(&PeriphClkInitStruct) != HAL_OK)
 8000b7e:	f003 fb95 	bl	80042ac <HAL_RCCEx_PeriphCLKConfig>
 8000b82:	4604      	mov	r4, r0
 8000b84:	b100      	cbz	r0, 8000b88 <SystemClock_Config+0x9c>
 8000b86:	e7fe      	b.n	8000b86 <SystemClock_Config+0x9a>
    _Error_Handler(__FILE__, __LINE__);
  }

    /**Configure the Systick interrupt time 
    */
  HAL_SYSTICK_Config(HAL_RCC_GetHCLKFreq()/1000);
 8000b88:	f003 fb3c 	bl	8004204 <HAL_RCC_GetHCLKFreq>
 8000b8c:	f44f 737a 	mov.w	r3, #1000	; 0x3e8
 8000b90:	fbb0 f0f3 	udiv	r0, r0, r3
 8000b94:	f001 fa94 	bl	80020c0 <HAL_SYSTICK_Config>

    /**Configure the Systick 
    */
  HAL_SYSTICK_CLKSourceConfig(SYSTICK_CLKSOURCE_HCLK);
 8000b98:	4628      	mov	r0, r5
 8000b9a:	f001 faa7 	bl	80020ec <HAL_SYSTICK_CLKSourceConfig>

  /* SysTick_IRQn interrupt configuration */
  HAL_NVIC_SetPriority(SysTick_IRQn, 0, 0);
 8000b9e:	4622      	mov	r2, r4
 8000ba0:	4621      	mov	r1, r4
 8000ba2:	f04f 30ff 	mov.w	r0, #4294967295
 8000ba6:	f001 fa33 	bl	8002010 <HAL_NVIC_SetPriority>
}
 8000baa:	b021      	add	sp, #132	; 0x84
 8000bac:	bd30      	pop	{r4, r5, pc}
 8000bae:	bf00      	nop
 8000bb0:	40023800 	.word	0x40023800
 8000bb4:	40007000 	.word	0x40007000

08000bb8 <main>:
{
 8000bb8:	b508      	push	{r3, lr}
  HAL_Init();
 8000bba:	f000 ff07 	bl	80019cc <HAL_Init>
  SystemClock_Config();
 8000bbe:	f7ff ff95 	bl	8000aec <SystemClock_Config>
  MX_GPIO_Init();
 8000bc2:	f7ff fd2b 	bl	800061c <MX_GPIO_Init>
  MX_DMA_Init();
 8000bc6:	f7ff fc5d 	bl	8000484 <MX_DMA_Init>
  MX_FMC_Init();
 8000bca:	f7ff fc7d 	bl	80004c8 <MX_FMC_Init>
  MX_LTDC_Init();
 8000bce:	f7ff fea7 	bl	8000920 <MX_LTDC_Init>
  MX_USART1_UART_Init();
 8000bd2:	f000 fab7 	bl	8001144 <MX_USART1_UART_Init>
  MX_DAC_Init();
 8000bd6:	f7ff fc09 	bl	80003ec <MX_DAC_Init>
  MX_SPI3_Init();
 8000bda:	f000 f89b 	bl	8000d14 <MX_SPI3_Init>
  MX_I2C3_Init();
 8000bde:	f7ff fe43 	bl	8000868 <MX_I2C3_Init>
  MX_TIM9_Init();
 8000be2:	f000 fa75 	bl	80010d0 <MX_TIM9_Init>
  MX_ADC1_Init();
 8000be6:	f7ff fb85 	bl	80002f4 <MX_ADC1_Init>
  MX_TIM6_Init();
 8000bea:	f000 f9bb 	bl	8000f64 <MX_TIM6_Init>
  MX_TIM7_Init();
 8000bee:	f000 f9e1 	bl	8000fb4 <MX_TIM7_Init>
	SDRAM_Initialization_sequence(REFRESH_COUNT);
 8000bf2:	f240 5069 	movw	r0, #1385	; 0x569
 8000bf6:	f000 fc33 	bl	8001460 <SDRAM_Initialization_sequence>
	LCD_Clear(0, BLACK);
 8000bfa:	2100      	movs	r1, #0
 8000bfc:	4608      	mov	r0, r1
 8000bfe:	f000 fb71 	bl	80012e4 <LCD_Clear>
	LCD_Clear(1, BLACK);
 8000c02:	2100      	movs	r1, #0
 8000c04:	2001      	movs	r0, #1
 8000c06:	f000 fb6d 	bl	80012e4 <LCD_Clear>
	ili9341_Init();
 8000c0a:	f000 fc75 	bl	80014f8 <ili9341_Init>
	TouchPanel_init();
 8000c0e:	f005 fdcf 	bl	80067b0 <TouchPanel_init>
	SlidePot_init();
 8000c12:	f000 fb0b 	bl	800122c <SlidePot_init>
	HAL_LTDC_ConfigCLUT(&hltdc, colorPalletRGB332 , 256, 0);
 8000c16:	2300      	movs	r3, #0
 8000c18:	f44f 7280 	mov.w	r2, #256	; 0x100
 8000c1c:	492b      	ldr	r1, [pc, #172]	; (8000ccc <main+0x114>)
 8000c1e:	482c      	ldr	r0, [pc, #176]	; (8000cd0 <main+0x118>)
			while (!HAL_GPIO_ReadPin(UserButtonBlue_GPIO_Port, UserButtonBlue_Pin))
 8000c20:	4d2c      	ldr	r5, [pc, #176]	; (8000cd4 <main+0x11c>)
		gameTick++;
 8000c22:	4c2d      	ldr	r4, [pc, #180]	; (8000cd8 <main+0x120>)
	HAL_LTDC_ConfigCLUT(&hltdc, colorPalletRGB332 , 256, 0);
 8000c24:	f002 ff0c 	bl	8003a40 <HAL_LTDC_ConfigCLUT>
	HAL_LTDC_EnableCLUT(&hltdc, 0);
 8000c28:	2100      	movs	r1, #0
 8000c2a:	4829      	ldr	r0, [pc, #164]	; (8000cd0 <main+0x118>)
 8000c2c:	f002 ff50 	bl	8003ad0 <HAL_LTDC_EnableCLUT>
	HAL_LTDC_SetAddress(&hltdc, (uint32_t)SDRAM_LCD_LAYER_0, 0);
 8000c30:	2200      	movs	r2, #0
 8000c32:	492a      	ldr	r1, [pc, #168]	; (8000cdc <main+0x124>)
 8000c34:	4826      	ldr	r0, [pc, #152]	; (8000cd0 <main+0x118>)
 8000c36:	f002 ff6f 	bl	8003b18 <HAL_LTDC_SetAddress>
	Sprite_Init();
 8000c3a:	f005 faf7 	bl	800622c <Sprite_Init>
	Sound_Init();
 8000c3e:	f005 f941 	bl	8005ec4 <Sound_Init>
		Sprite_Ball_Move();
 8000c42:	f005 fc69 	bl	8006518 <Sprite_Ball_Move>
		Sprite_Player_Move();
 8000c46:	f005 fbe9 	bl	800641c <Sprite_Player_Move>
		Sprite_Draw();
 8000c4a:	f005 fb0f 	bl	800626c <Sprite_Draw>
		if(Sprite_GetBallMissedFlag() == 1)
 8000c4e:	f005 f983 	bl	8005f58 <Sprite_GetBallMissedFlag>
 8000c52:	2801      	cmp	r0, #1
 8000c54:	d105      	bne.n	8000c62 <main+0xaa>
			Sprite_ClearBallMissedFlag();
 8000c56:	f005 f985 	bl	8005f64 <Sprite_ClearBallMissedFlag>
			Sprite_DisplayDroppedBall();		//decrement player
 8000c5a:	f005 f989 	bl	8005f70 <Sprite_DisplayDroppedBall>
			Ball_Init();						//start the ball again
 8000c5e:	f005 fa0f 	bl	8006080 <Ball_Init>
		if (!Sprite_GetNumPlayers())
 8000c62:	f005 fb89 	bl	8006378 <Sprite_GetNumPlayers>
 8000c66:	b328      	cbz	r0, 8000cb4 <main+0xfc>
		if (!Sprite_GetNumTiles())
 8000c68:	f005 fb8c 	bl	8006384 <Sprite_GetNumTiles>
 8000c6c:	b978      	cbnz	r0, 8000c8e <main+0xd6>
			Sound_Play_Sinewave();
 8000c6e:	f005 f967 	bl	8005f40 <Sound_Play_Sinewave>
			HAL_Delay(1000);
 8000c72:	f44f 707a 	mov.w	r0, #1000	; 0x3e8
 8000c76:	f000 fed1 	bl	8001a1c <HAL_Delay>
			Tile_Init();
 8000c7a:	f005 fa15 	bl	80060a8 <Tile_Init>
			Ball_Init();
 8000c7e:	f005 f9ff 	bl	8006080 <Ball_Init>
			Sprite_IncreaseGameLevel();
 8000c82:	f005 fbb1 	bl	80063e8 <Sprite_IncreaseGameLevel>
			HAL_Delay(1000);
 8000c86:	f44f 707a 	mov.w	r0, #1000	; 0x3e8
 8000c8a:	f000 fec7 	bl	8001a1c <HAL_Delay>
		if (HAL_GPIO_ReadPin(UserButtonBlue_GPIO_Port, UserButtonBlue_Pin))
 8000c8e:	2101      	movs	r1, #1
 8000c90:	4628      	mov	r0, r5
 8000c92:	f001 ffd9 	bl	8002c48 <HAL_GPIO_ReadPin>
 8000c96:	b108      	cbz	r0, 8000c9c <main+0xe4>
			Sprite_GameMode_ToggleMode();
 8000c98:	f005 fb8c 	bl	80063b4 <Sprite_GameMode_ToggleMode>
		gameTick++;
 8000c9c:	6823      	ldr	r3, [r4, #0]
		HAL_GPIO_TogglePin(LED_Green_GPIO_Port, LED_Green_Pin);
 8000c9e:	4810      	ldr	r0, [pc, #64]	; (8000ce0 <main+0x128>)
		gameTick++;
 8000ca0:	3301      	adds	r3, #1
		HAL_GPIO_TogglePin(LED_Green_GPIO_Port, LED_Green_Pin);
 8000ca2:	f44f 5100 	mov.w	r1, #8192	; 0x2000
		gameTick++;
 8000ca6:	6023      	str	r3, [r4, #0]
		HAL_GPIO_TogglePin(LED_Green_GPIO_Port, LED_Green_Pin);
 8000ca8:	f001 fffa 	bl	8002ca0 <HAL_GPIO_TogglePin>
		HAL_Delay(10);
 8000cac:	200a      	movs	r0, #10
 8000cae:	f000 feb5 	bl	8001a1c <HAL_Delay>
		Sprite_Ball_Move();
 8000cb2:	e7c6      	b.n	8000c42 <main+0x8a>
			Sprite_DisplayGameOver();
 8000cb4:	f005 f9a4 	bl	8006000 <Sprite_DisplayGameOver>
			while (!HAL_GPIO_ReadPin(UserButtonBlue_GPIO_Port, UserButtonBlue_Pin))
 8000cb8:	2101      	movs	r1, #1
 8000cba:	4628      	mov	r0, r5
 8000cbc:	f001 ffc4 	bl	8002c48 <HAL_GPIO_ReadPin>
 8000cc0:	2800      	cmp	r0, #0
 8000cc2:	d1d1      	bne.n	8000c68 <main+0xb0>
				Sprite_DisplayGameStart();
 8000cc4:	f005 fa2c 	bl	8006120 <Sprite_DisplayGameStart>
 8000cc8:	e7f6      	b.n	8000cb8 <main+0x100>
 8000cca:	bf00      	nop
 8000ccc:	20000000 	.word	0x20000000
 8000cd0:	20000b9c 	.word	0x20000b9c
 8000cd4:	40020000 	.word	0x40020000
 8000cd8:	20000494 	.word	0x20000494
 8000cdc:	d0020000 	.word	0xd0020000
 8000ce0:	40021800 	.word	0x40021800

08000ce4 <HAL_TIM_PeriodElapsedCallback>:
void HAL_TIM_PeriodElapsedCallback(TIM_HandleTypeDef *htim)
{
/* USER CODE BEGIN Callback 0 */

/* USER CODE END Callback 0 */
  if (htim->Instance == TIM1) {
 8000ce4:	6802      	ldr	r2, [r0, #0]
 8000ce6:	4b08      	ldr	r3, [pc, #32]	; (8000d08 <HAL_TIM_PeriodElapsedCallback+0x24>)
 8000ce8:	429a      	cmp	r2, r3
{
 8000cea:	b510      	push	{r4, lr}
 8000cec:	4604      	mov	r4, r0
  if (htim->Instance == TIM1) {
 8000cee:	d101      	bne.n	8000cf4 <HAL_TIM_PeriodElapsedCallback+0x10>
    HAL_IncTick();
 8000cf0:	f000 fe86 	bl	8001a00 <HAL_IncTick>
/* USER CODE BEGIN Callback 1 */

  //////////////////////////////////////////////
  //Timer TIM7 - Use this one for the DAC / sound

  if (htim->Instance == TIM7)
 8000cf4:	6822      	ldr	r2, [r4, #0]
 8000cf6:	4b05      	ldr	r3, [pc, #20]	; (8000d0c <HAL_TIM_PeriodElapsedCallback+0x28>)
 8000cf8:	429a      	cmp	r2, r3
 8000cfa:	d103      	bne.n	8000d04 <HAL_TIM_PeriodElapsedCallback+0x20>
  {

  }

/* USER CODE END Callback 1 */
}
 8000cfc:	e8bd 4010 	ldmia.w	sp!, {r4, lr}
	  Sound_InterruptHandler();
 8000d00:	f005 b8f6 	b.w	8005ef0 <Sound_InterruptHandler>
 8000d04:	bd10      	pop	{r4, pc}
 8000d06:	bf00      	nop
 8000d08:	40010000 	.word	0x40010000
 8000d0c:	40001400 	.word	0x40001400

08000d10 <_Error_Handler>:
  * @brief  This function is executed in case of error occurrence.
  * @param  None
  * @retval None
  */
void _Error_Handler(char * file, int line)
{
 8000d10:	e7fe      	b.n	8000d10 <_Error_Handler>

08000d12 <assert_failed>:
   * @param file: pointer to the source file name
   * @param line: assert_param error line source number
   * @retval None
   */
void assert_failed(uint8_t* file, uint32_t line)
{
 8000d12:	4770      	bx	lr

08000d14 <MX_SPI3_Init>:

SPI_HandleTypeDef hspi3;

/* SPI3 init function */
void MX_SPI3_Init(void)
{
 8000d14:	b508      	push	{r3, lr}

  hspi3.Instance = SPI3;
 8000d16:	480f      	ldr	r0, [pc, #60]	; (8000d54 <MX_SPI3_Init+0x40>)
  hspi3.Init.Mode = SPI_MODE_MASTER;
 8000d18:	4b0f      	ldr	r3, [pc, #60]	; (8000d58 <MX_SPI3_Init+0x44>)
 8000d1a:	f44f 7e82 	mov.w	lr, #260	; 0x104
  hspi3.Init.Direction = SPI_DIRECTION_2LINES;
  hspi3.Init.DataSize = SPI_DATASIZE_8BIT;
  hspi3.Init.CLKPolarity = SPI_POLARITY_LOW;
  hspi3.Init.CLKPhase = SPI_PHASE_1EDGE;
  hspi3.Init.NSS = SPI_NSS_SOFT;
 8000d1e:	f44f 7200 	mov.w	r2, #512	; 0x200
  hspi3.Init.Mode = SPI_MODE_MASTER;
 8000d22:	e880 4008 	stmia.w	r0, {r3, lr}
  hspi3.Init.Direction = SPI_DIRECTION_2LINES;
 8000d26:	2300      	movs	r3, #0
 8000d28:	6083      	str	r3, [r0, #8]
  hspi3.Init.DataSize = SPI_DATASIZE_8BIT;
 8000d2a:	60c3      	str	r3, [r0, #12]
  hspi3.Init.CLKPolarity = SPI_POLARITY_LOW;
 8000d2c:	6103      	str	r3, [r0, #16]
  hspi3.Init.CLKPhase = SPI_PHASE_1EDGE;
 8000d2e:	6143      	str	r3, [r0, #20]
  hspi3.Init.NSS = SPI_NSS_SOFT;
 8000d30:	6182      	str	r2, [r0, #24]
  hspi3.Init.BaudRatePrescaler = SPI_BAUDRATEPRESCALER_16;
  hspi3.Init.FirstBit = SPI_FIRSTBIT_MSB;
 8000d32:	6203      	str	r3, [r0, #32]
  hspi3.Init.BaudRatePrescaler = SPI_BAUDRATEPRESCALER_16;
 8000d34:	2218      	movs	r2, #24
  hspi3.Init.TIMode = SPI_TIMODE_DISABLE;
 8000d36:	6243      	str	r3, [r0, #36]	; 0x24
  hspi3.Init.CRCCalculation = SPI_CRCCALCULATION_DISABLE;
 8000d38:	6283      	str	r3, [r0, #40]	; 0x28
  hspi3.Init.CRCPolynomial = 10;
 8000d3a:	230a      	movs	r3, #10
  hspi3.Init.BaudRatePrescaler = SPI_BAUDRATEPRESCALER_16;
 8000d3c:	61c2      	str	r2, [r0, #28]
  hspi3.Init.CRCPolynomial = 10;
 8000d3e:	62c3      	str	r3, [r0, #44]	; 0x2c
  if (HAL_SPI_Init(&hspi3) != HAL_OK)
 8000d40:	f003 fd62 	bl	8004808 <HAL_SPI_Init>
 8000d44:	b128      	cbz	r0, 8000d52 <MX_SPI3_Init+0x3e>
  {
    _Error_Handler(__FILE__, __LINE__);
 8000d46:	2145      	movs	r1, #69	; 0x45
 8000d48:	4804      	ldr	r0, [pc, #16]	; (8000d5c <MX_SPI3_Init+0x48>)
  }

}
 8000d4a:	e8bd 4008 	ldmia.w	sp!, {r3, lr}
    _Error_Handler(__FILE__, __LINE__);
 8000d4e:	f7ff bfdf 	b.w	8000d10 <_Error_Handler>
 8000d52:	bd08      	pop	{r3, pc}
 8000d54:	20000c44 	.word	0x20000c44
 8000d58:	40003c00 	.word	0x40003c00
 8000d5c:	08007254 	.word	0x08007254

08000d60 <HAL_SPI_MspInit>:

void HAL_SPI_MspInit(SPI_HandleTypeDef* spiHandle)
{
 8000d60:	b5f0      	push	{r4, r5, r6, r7, lr}

  GPIO_InitTypeDef GPIO_InitStruct;
  if(spiHandle->Instance==SPI3)
 8000d62:	6802      	ldr	r2, [r0, #0]
 8000d64:	4b15      	ldr	r3, [pc, #84]	; (8000dbc <HAL_SPI_MspInit+0x5c>)
 8000d66:	429a      	cmp	r2, r3
{
 8000d68:	b087      	sub	sp, #28
  if(spiHandle->Instance==SPI3)
 8000d6a:	d124      	bne.n	8000db6 <HAL_SPI_MspInit+0x56>
  {
  /* USER CODE BEGIN SPI3_MspInit 0 */

  /* USER CODE END SPI3_MspInit 0 */
    /* SPI3 clock enable */
    __HAL_RCC_SPI3_CLK_ENABLE();
 8000d6c:	2400      	movs	r4, #0
 8000d6e:	f503 33fe 	add.w	r3, r3, #130048	; 0x1fc00
 8000d72:	9400      	str	r4, [sp, #0]
 8000d74:	6c1a      	ldr	r2, [r3, #64]	; 0x40
    GPIO_InitStruct.Pin = GPIO_PIN_11|GPIO_PIN_12;
    GPIO_InitStruct.Mode = GPIO_MODE_AF_PP;
    GPIO_InitStruct.Pull = GPIO_NOPULL;
    GPIO_InitStruct.Speed = GPIO_SPEED_FREQ_VERY_HIGH;
    GPIO_InitStruct.Alternate = GPIO_AF6_SPI3;
    HAL_GPIO_Init(GPIOC, &GPIO_InitStruct);
 8000d76:	4812      	ldr	r0, [pc, #72]	; (8000dc0 <HAL_SPI_MspInit+0x60>)
    __HAL_RCC_SPI3_CLK_ENABLE();
 8000d78:	f442 4200 	orr.w	r2, r2, #32768	; 0x8000
 8000d7c:	641a      	str	r2, [r3, #64]	; 0x40
 8000d7e:	6c1b      	ldr	r3, [r3, #64]	; 0x40
    GPIO_InitStruct.Pull = GPIO_NOPULL;
 8000d80:	9403      	str	r4, [sp, #12]
    __HAL_RCC_SPI3_CLK_ENABLE();
 8000d82:	f403 4300 	and.w	r3, r3, #32768	; 0x8000
 8000d86:	9300      	str	r3, [sp, #0]
 8000d88:	9b00      	ldr	r3, [sp, #0]
    GPIO_InitStruct.Mode = GPIO_MODE_AF_PP;
 8000d8a:	2702      	movs	r7, #2
    GPIO_InitStruct.Pin = GPIO_PIN_11|GPIO_PIN_12;
 8000d8c:	f44f 53c0 	mov.w	r3, #6144	; 0x1800
    GPIO_InitStruct.Speed = GPIO_SPEED_FREQ_VERY_HIGH;
 8000d90:	2603      	movs	r6, #3
    GPIO_InitStruct.Alternate = GPIO_AF6_SPI3;
 8000d92:	2506      	movs	r5, #6
    HAL_GPIO_Init(GPIOC, &GPIO_InitStruct);
 8000d94:	a901      	add	r1, sp, #4
    GPIO_InitStruct.Pin = GPIO_PIN_11|GPIO_PIN_12;
 8000d96:	9301      	str	r3, [sp, #4]
    GPIO_InitStruct.Mode = GPIO_MODE_AF_PP;
 8000d98:	9702      	str	r7, [sp, #8]
    GPIO_InitStruct.Speed = GPIO_SPEED_FREQ_VERY_HIGH;
 8000d9a:	9604      	str	r6, [sp, #16]
    GPIO_InitStruct.Alternate = GPIO_AF6_SPI3;
 8000d9c:	9505      	str	r5, [sp, #20]
    HAL_GPIO_Init(GPIOC, &GPIO_InitStruct);
 8000d9e:	f001 fd2f 	bl	8002800 <HAL_GPIO_Init>

    GPIO_InitStruct.Pin = GPIO_PIN_3;
 8000da2:	2308      	movs	r3, #8
    GPIO_InitStruct.Mode = GPIO_MODE_AF_PP;
    GPIO_InitStruct.Pull = GPIO_NOPULL;
    GPIO_InitStruct.Speed = GPIO_SPEED_FREQ_VERY_HIGH;
    GPIO_InitStruct.Alternate = GPIO_AF6_SPI3;
    HAL_GPIO_Init(GPIOB, &GPIO_InitStruct);
 8000da4:	a901      	add	r1, sp, #4
 8000da6:	4807      	ldr	r0, [pc, #28]	; (8000dc4 <HAL_SPI_MspInit+0x64>)
    GPIO_InitStruct.Pin = GPIO_PIN_3;
 8000da8:	9301      	str	r3, [sp, #4]
    GPIO_InitStruct.Mode = GPIO_MODE_AF_PP;
 8000daa:	9702      	str	r7, [sp, #8]
    GPIO_InitStruct.Pull = GPIO_NOPULL;
 8000dac:	9403      	str	r4, [sp, #12]
    GPIO_InitStruct.Speed = GPIO_SPEED_FREQ_VERY_HIGH;
 8000dae:	9604      	str	r6, [sp, #16]
    GPIO_InitStruct.Alternate = GPIO_AF6_SPI3;
 8000db0:	9505      	str	r5, [sp, #20]
    HAL_GPIO_Init(GPIOB, &GPIO_InitStruct);
 8000db2:	f001 fd25 	bl	8002800 <HAL_GPIO_Init>

  /* USER CODE BEGIN SPI3_MspInit 1 */

  /* USER CODE END SPI3_MspInit 1 */
  }
}
 8000db6:	b007      	add	sp, #28
 8000db8:	bdf0      	pop	{r4, r5, r6, r7, pc}
 8000dba:	bf00      	nop
 8000dbc:	40003c00 	.word	0x40003c00
 8000dc0:	40020800 	.word	0x40020800
 8000dc4:	40020400 	.word	0x40020400

08000dc8 <HAL_SPI_MspDeInit>:

void HAL_SPI_MspDeInit(SPI_HandleTypeDef* spiHandle)
{
 8000dc8:	b508      	push	{r3, lr}

  if(spiHandle->Instance==SPI3)
 8000dca:	6802      	ldr	r2, [r0, #0]
 8000dcc:	4b09      	ldr	r3, [pc, #36]	; (8000df4 <HAL_SPI_MspDeInit+0x2c>)
 8000dce:	429a      	cmp	r2, r3
 8000dd0:	d10f      	bne.n	8000df2 <HAL_SPI_MspDeInit+0x2a>
  {
  /* USER CODE BEGIN SPI3_MspDeInit 0 */

  /* USER CODE END SPI3_MspDeInit 0 */
    /* Peripheral clock disable */
    __HAL_RCC_SPI3_CLK_DISABLE();
 8000dd2:	4a09      	ldr	r2, [pc, #36]	; (8000df8 <HAL_SPI_MspDeInit+0x30>)
    /**SPI3 GPIO Configuration    
    PC11     ------> SPI3_MISO
    PC12     ------> SPI3_MOSI
    PB3     ------> SPI3_SCK 
    */
    HAL_GPIO_DeInit(GPIOC, GPIO_PIN_11|GPIO_PIN_12);
 8000dd4:	4809      	ldr	r0, [pc, #36]	; (8000dfc <HAL_SPI_MspDeInit+0x34>)
    __HAL_RCC_SPI3_CLK_DISABLE();
 8000dd6:	6c13      	ldr	r3, [r2, #64]	; 0x40
 8000dd8:	f423 4300 	bic.w	r3, r3, #32768	; 0x8000
 8000ddc:	6413      	str	r3, [r2, #64]	; 0x40
    HAL_GPIO_DeInit(GPIOC, GPIO_PIN_11|GPIO_PIN_12);
 8000dde:	f44f 51c0 	mov.w	r1, #6144	; 0x1800
 8000de2:	f001 fe65 	bl	8002ab0 <HAL_GPIO_DeInit>

    HAL_GPIO_DeInit(GPIOB, GPIO_PIN_3);
 8000de6:	2108      	movs	r1, #8
 8000de8:	4805      	ldr	r0, [pc, #20]	; (8000e00 <HAL_SPI_MspDeInit+0x38>)

  /* USER CODE BEGIN SPI3_MspDeInit 1 */

  /* USER CODE END SPI3_MspDeInit 1 */
  }
} 
 8000dea:	e8bd 4008 	ldmia.w	sp!, {r3, lr}
    HAL_GPIO_DeInit(GPIOB, GPIO_PIN_3);
 8000dee:	f001 be5f 	b.w	8002ab0 <HAL_GPIO_DeInit>
 8000df2:	bd08      	pop	{r3, pc}
 8000df4:	40003c00 	.word	0x40003c00
 8000df8:	40023800 	.word	0x40023800
 8000dfc:	40020800 	.word	0x40020800
 8000e00:	40020400 	.word	0x40020400

08000e04 <HAL_MspInit>:
/* USER CODE END 0 */
/**
  * Initializes the Global MSP.
  */
void HAL_MspInit(void)
{
 8000e04:	b508      	push	{r3, lr}
  /* USER CODE BEGIN MspInit 0 */

  /* USER CODE END MspInit 0 */

  HAL_NVIC_SetPriorityGrouping(NVIC_PRIORITYGROUP_4);
 8000e06:	2003      	movs	r0, #3
 8000e08:	f001 f8e4 	bl	8001fd4 <HAL_NVIC_SetPriorityGrouping>

  /* System interrupt init*/
  /* MemoryManagement_IRQn interrupt configuration */
  HAL_NVIC_SetPriority(MemoryManagement_IRQn, 0, 0);
 8000e0c:	2200      	movs	r2, #0
 8000e0e:	4611      	mov	r1, r2
 8000e10:	f06f 000b 	mvn.w	r0, #11
 8000e14:	f001 f8fc 	bl	8002010 <HAL_NVIC_SetPriority>
  /* BusFault_IRQn interrupt configuration */
  HAL_NVIC_SetPriority(BusFault_IRQn, 0, 0);
 8000e18:	2200      	movs	r2, #0
 8000e1a:	4611      	mov	r1, r2
 8000e1c:	f06f 000a 	mvn.w	r0, #10
 8000e20:	f001 f8f6 	bl	8002010 <HAL_NVIC_SetPriority>
  /* UsageFault_IRQn interrupt configuration */
  HAL_NVIC_SetPriority(UsageFault_IRQn, 0, 0);
 8000e24:	2200      	movs	r2, #0
 8000e26:	4611      	mov	r1, r2
 8000e28:	f06f 0009 	mvn.w	r0, #9
 8000e2c:	f001 f8f0 	bl	8002010 <HAL_NVIC_SetPriority>
  /* SVCall_IRQn interrupt configuration */
  HAL_NVIC_SetPriority(SVCall_IRQn, 0, 0);
 8000e30:	2200      	movs	r2, #0
 8000e32:	4611      	mov	r1, r2
 8000e34:	f06f 0004 	mvn.w	r0, #4
 8000e38:	f001 f8ea 	bl	8002010 <HAL_NVIC_SetPriority>
  /* DebugMonitor_IRQn interrupt configuration */
  HAL_NVIC_SetPriority(DebugMonitor_IRQn, 0, 0);
 8000e3c:	2200      	movs	r2, #0
 8000e3e:	4611      	mov	r1, r2
 8000e40:	f06f 0003 	mvn.w	r0, #3
 8000e44:	f001 f8e4 	bl	8002010 <HAL_NVIC_SetPriority>
  /* PendSV_IRQn interrupt configuration */
  HAL_NVIC_SetPriority(PendSV_IRQn, 0, 0);
 8000e48:	2200      	movs	r2, #0
 8000e4a:	4611      	mov	r1, r2
 8000e4c:	f06f 0001 	mvn.w	r0, #1
 8000e50:	f001 f8de 	bl	8002010 <HAL_NVIC_SetPriority>
  /* SysTick_IRQn interrupt configuration */
  HAL_NVIC_SetPriority(SysTick_IRQn, 0, 0);
 8000e54:	2200      	movs	r2, #0
 8000e56:	4611      	mov	r1, r2
 8000e58:	f04f 30ff 	mov.w	r0, #4294967295

  /* USER CODE BEGIN MspInit 1 */

  /* USER CODE END MspInit 1 */
}
 8000e5c:	e8bd 4008 	ldmia.w	sp!, {r3, lr}
  HAL_NVIC_SetPriority(SysTick_IRQn, 0, 0);
 8000e60:	f001 b8d6 	b.w	8002010 <HAL_NVIC_SetPriority>

08000e64 <HAL_InitTick>:
  *         reset by HAL_Init() or at any time when clock is configured, by HAL_RCC_ClockConfig(). 
  * @param  TickPriority: Tick interrupt priorty.
  * @retval HAL status
  */
HAL_StatusTypeDef HAL_InitTick(uint32_t TickPriority)
{
 8000e64:	b530      	push	{r4, r5, lr}
  uint32_t              uwTimclock = 0;
  uint32_t              uwPrescalerValue = 0;
  uint32_t              pFLatency;
  
  /*Configure the TIM1 IRQ priority */
  HAL_NVIC_SetPriority(TIM1_UP_TIM10_IRQn, TickPriority ,0); 
 8000e66:	4601      	mov	r1, r0
{
 8000e68:	b089      	sub	sp, #36	; 0x24
  HAL_NVIC_SetPriority(TIM1_UP_TIM10_IRQn, TickPriority ,0); 
 8000e6a:	2200      	movs	r2, #0
 8000e6c:	2019      	movs	r0, #25
 8000e6e:	f001 f8cf 	bl	8002010 <HAL_NVIC_SetPriority>
  
  /* Enable the TIM1 global Interrupt */
  HAL_NVIC_EnableIRQ(TIM1_UP_TIM10_IRQn); 
 8000e72:	2019      	movs	r0, #25
 8000e74:	f001 f90e 	bl	8002094 <HAL_NVIC_EnableIRQ>
  
  /* Enable TIM1 clock */
  __HAL_RCC_TIM1_CLK_ENABLE();
 8000e78:	2500      	movs	r5, #0
 8000e7a:	4b15      	ldr	r3, [pc, #84]	; (8000ed0 <HAL_InitTick+0x6c>)
 8000e7c:	9502      	str	r5, [sp, #8]
 8000e7e:	6c5a      	ldr	r2, [r3, #68]	; 0x44
   
  /* Compute the prescaler value to have TIM1 counter clock equal to 1MHz */
  uwPrescalerValue = (uint32_t) ((uwTimclock / 1000000) - 1);
  
  /* Initialize TIM1 */
  htim1.Instance = TIM1;
 8000e80:	4c14      	ldr	r4, [pc, #80]	; (8000ed4 <HAL_InitTick+0x70>)
  __HAL_RCC_TIM1_CLK_ENABLE();
 8000e82:	f042 0201 	orr.w	r2, r2, #1
 8000e86:	645a      	str	r2, [r3, #68]	; 0x44
 8000e88:	6c5b      	ldr	r3, [r3, #68]	; 0x44
 8000e8a:	f003 0301 	and.w	r3, r3, #1
 8000e8e:	9302      	str	r3, [sp, #8]
  HAL_RCC_GetClockConfig(&clkconfig, &pFLatency);
 8000e90:	a901      	add	r1, sp, #4
 8000e92:	a803      	add	r0, sp, #12
  __HAL_RCC_TIM1_CLK_ENABLE();
 8000e94:	9b02      	ldr	r3, [sp, #8]
  HAL_RCC_GetClockConfig(&clkconfig, &pFLatency);
 8000e96:	f003 f9eb 	bl	8004270 <HAL_RCC_GetClockConfig>
  uwTimclock = 2*HAL_RCC_GetPCLK2Freq();
 8000e9a:	f003 f9d1 	bl	8004240 <HAL_RCC_GetPCLK2Freq>
  htim1.Instance = TIM1;
 8000e9e:	4b0e      	ldr	r3, [pc, #56]	; (8000ed8 <HAL_InitTick+0x74>)
 8000ea0:	6023      	str	r3, [r4, #0]
  + Period = [(TIM1CLK/1000) - 1]. to have a (1/1000) s time base.
  + Prescaler = (uwTimclock/1000000 - 1) to have a 1MHz counter clock.
  + ClockDivision = 0
  + Counter direction = Up
  */
  htim1.Init.Period = (1000000 / 1000) - 1;
 8000ea2:	f240 33e7 	movw	r3, #999	; 0x3e7
 8000ea6:	60e3      	str	r3, [r4, #12]
  uwTimclock = 2*HAL_RCC_GetPCLK2Freq();
 8000ea8:	0040      	lsls	r0, r0, #1
  uwPrescalerValue = (uint32_t) ((uwTimclock / 1000000) - 1);
 8000eaa:	4b0c      	ldr	r3, [pc, #48]	; (8000edc <HAL_InitTick+0x78>)
 8000eac:	fbb0 f0f3 	udiv	r0, r0, r3
 8000eb0:	3801      	subs	r0, #1
  htim1.Init.Prescaler = uwPrescalerValue;
 8000eb2:	6060      	str	r0, [r4, #4]
  htim1.Init.ClockDivision = 0;
  htim1.Init.CounterMode = TIM_COUNTERMODE_UP;
  if(HAL_TIM_Base_Init(&htim1) == HAL_OK)
 8000eb4:	4620      	mov	r0, r4
  htim1.Init.ClockDivision = 0;
 8000eb6:	6125      	str	r5, [r4, #16]
  htim1.Init.CounterMode = TIM_COUNTERMODE_UP;
 8000eb8:	60a5      	str	r5, [r4, #8]
  if(HAL_TIM_Base_Init(&htim1) == HAL_OK)
 8000eba:	f004 f8b7 	bl	800502c <HAL_TIM_Base_Init>
 8000ebe:	b920      	cbnz	r0, 8000eca <HAL_InitTick+0x66>
  {
    /* Start the TIM time Base generation in interrupt mode */
    return HAL_TIM_Base_Start_IT(&htim1);
 8000ec0:	4620      	mov	r0, r4
 8000ec2:	f003 ff03 	bl	8004ccc <HAL_TIM_Base_Start_IT>
  }
  
  /* Return function status */
  return HAL_ERROR;
}
 8000ec6:	b009      	add	sp, #36	; 0x24
 8000ec8:	bd30      	pop	{r4, r5, pc}
  return HAL_ERROR;
 8000eca:	2001      	movs	r0, #1
 8000ecc:	e7fb      	b.n	8000ec6 <HAL_InitTick+0x62>
 8000ece:	bf00      	nop
 8000ed0:	40023800 	.word	0x40023800
 8000ed4:	20000c9c 	.word	0x20000c9c
 8000ed8:	40010000 	.word	0x40010000
 8000edc:	000f4240 	.word	0x000f4240

08000ee0 <SVC_Handler>:
 8000ee0:	4770      	bx	lr

08000ee2 <PendSV_Handler>:

/**
* @brief This function handles Pendable request for system service.
*/
void PendSV_Handler(void)
{
 8000ee2:	4770      	bx	lr

08000ee4 <SysTick_Handler>:
void SysTick_Handler(void)
{
  /* USER CODE BEGIN SysTick_IRQn 0 */

  /* USER CODE END SysTick_IRQn 0 */
  HAL_SYSTICK_IRQHandler();
 8000ee4:	f001 b91b 	b.w	800211e <HAL_SYSTICK_IRQHandler>

08000ee8 <TIM1_UP_TIM10_IRQHandler>:
void TIM1_UP_TIM10_IRQHandler(void)
{
  /* USER CODE BEGIN TIM1_UP_TIM10_IRQn 0 */

  /* USER CODE END TIM1_UP_TIM10_IRQn 0 */
  HAL_TIM_IRQHandler(&htim1);
 8000ee8:	4801      	ldr	r0, [pc, #4]	; (8000ef0 <TIM1_UP_TIM10_IRQHandler+0x8>)
 8000eea:	f003 bf99 	b.w	8004e20 <HAL_TIM_IRQHandler>
 8000eee:	bf00      	nop
 8000ef0:	20000c9c 	.word	0x20000c9c

08000ef4 <USART1_IRQHandler>:
void USART1_IRQHandler(void)
{
  /* USER CODE BEGIN USART1_IRQn 0 */

  /* USER CODE END USART1_IRQn 0 */
  HAL_UART_IRQHandler(&huart1);
 8000ef4:	4801      	ldr	r0, [pc, #4]	; (8000efc <USART1_IRQHandler+0x8>)
 8000ef6:	f004 bd6b 	b.w	80059d0 <HAL_UART_IRQHandler>
 8000efa:	bf00      	nop
 8000efc:	20000dec 	.word	0x20000dec

08000f00 <EXTI15_10_IRQHandler>:
void EXTI15_10_IRQHandler(void)
{
  /* USER CODE BEGIN EXTI15_10_IRQn 0 */

  /* USER CODE END EXTI15_10_IRQn 0 */
  HAL_GPIO_EXTI_IRQHandler(GPIO_PIN_15);
 8000f00:	f44f 4000 	mov.w	r0, #32768	; 0x8000
 8000f04:	f001 bedc 	b.w	8002cc0 <HAL_GPIO_EXTI_IRQHandler>

08000f08 <FMC_IRQHandler>:
void FMC_IRQHandler(void)
{
  /* USER CODE BEGIN FMC_IRQn 0 */

  /* USER CODE END FMC_IRQn 0 */
  HAL_SDRAM_IRQHandler(&hsdram1);
 8000f08:	4801      	ldr	r0, [pc, #4]	; (8000f10 <FMC_IRQHandler+0x8>)
 8000f0a:	f003 bbee 	b.w	80046ea <HAL_SDRAM_IRQHandler>
 8000f0e:	bf00      	nop
 8000f10:	20000b14 	.word	0x20000b14

08000f14 <TIM6_DAC_IRQHandler>:

/**
* @brief This function handles TIM6 global interrupt, DAC1 and DAC2 underrun error interrupts.
*/
void TIM6_DAC_IRQHandler(void)
{
 8000f14:	b508      	push	{r3, lr}
  /* USER CODE BEGIN TIM6_DAC_IRQn 0 */

  /* USER CODE END TIM6_DAC_IRQn 0 */
  HAL_DAC_IRQHandler(&hdac);
 8000f16:	4804      	ldr	r0, [pc, #16]	; (8000f28 <TIM6_DAC_IRQHandler+0x14>)
 8000f18:	f001 f95f 	bl	80021da <HAL_DAC_IRQHandler>
  HAL_TIM_IRQHandler(&htim6);
 8000f1c:	4803      	ldr	r0, [pc, #12]	; (8000f2c <TIM6_DAC_IRQHandler+0x18>)
  /* USER CODE BEGIN TIM6_DAC_IRQn 1 */

  /* USER CODE END TIM6_DAC_IRQn 1 */
}
 8000f1e:	e8bd 4008 	ldmia.w	sp!, {r3, lr}
  HAL_TIM_IRQHandler(&htim6);
 8000f22:	f003 bf7d 	b.w	8004e20 <HAL_TIM_IRQHandler>
 8000f26:	bf00      	nop
 8000f28:	20000b00 	.word	0x20000b00
 8000f2c:	20000cd8 	.word	0x20000cd8

08000f30 <TIM7_IRQHandler>:
void TIM7_IRQHandler(void)
{
  /* USER CODE BEGIN TIM7_IRQn 0 */

  /* USER CODE END TIM7_IRQn 0 */
  HAL_TIM_IRQHandler(&htim7);
 8000f30:	4801      	ldr	r0, [pc, #4]	; (8000f38 <TIM7_IRQHandler+0x8>)
 8000f32:	f003 bf75 	b.w	8004e20 <HAL_TIM_IRQHandler>
 8000f36:	bf00      	nop
 8000f38:	20000d50 	.word	0x20000d50

08000f3c <DMA2_Stream0_IRQHandler>:
void DMA2_Stream0_IRQHandler(void)
{
  /* USER CODE BEGIN DMA2_Stream0_IRQn 0 */

  /* USER CODE END DMA2_Stream0_IRQn 0 */
  HAL_DMA_IRQHandler(&hdma_adc1);
 8000f3c:	4801      	ldr	r0, [pc, #4]	; (8000f44 <DMA2_Stream0_IRQHandler+0x8>)
 8000f3e:	f001 bba1 	b.w	8002684 <HAL_DMA_IRQHandler>
 8000f42:	bf00      	nop
 8000f44:	20000aa0 	.word	0x20000aa0

08000f48 <DMA2_Stream2_IRQHandler>:
void DMA2_Stream2_IRQHandler(void)
{
  /* USER CODE BEGIN DMA2_Stream2_IRQn 0 */

  /* USER CODE END DMA2_Stream2_IRQn 0 */
  HAL_DMA_IRQHandler(&hdma_usart1_rx);
 8000f48:	4801      	ldr	r0, [pc, #4]	; (8000f50 <DMA2_Stream2_IRQHandler+0x8>)
 8000f4a:	f001 bb9b 	b.w	8002684 <HAL_DMA_IRQHandler>
 8000f4e:	bf00      	nop
 8000f50:	20000d8c 	.word	0x20000d8c

08000f54 <LTDC_ER_IRQHandler>:
void LTDC_ER_IRQHandler(void)
{
  /* USER CODE BEGIN LTDC_ER_IRQn 0 */

  /* USER CODE END LTDC_ER_IRQn 0 */
  HAL_LTDC_IRQHandler(&hltdc);
 8000f54:	4801      	ldr	r0, [pc, #4]	; (8000f5c <LTDC_ER_IRQHandler+0x8>)
 8000f56:	f002 bc7c 	b.w	8003852 <HAL_LTDC_IRQHandler>
 8000f5a:	bf00      	nop
 8000f5c:	20000b9c 	.word	0x20000b9c

08000f60 <LTDC_IRQHandler>:
 8000f60:	f7ff bff8 	b.w	8000f54 <LTDC_ER_IRQHandler>

08000f64 <MX_TIM6_Init>:
TIM_HandleTypeDef htim7;
TIM_HandleTypeDef htim9;

/* TIM6 init function */
void MX_TIM6_Init(void)
{
 8000f64:	b513      	push	{r0, r1, r4, lr}
  TIM_MasterConfigTypeDef sMasterConfig;

  htim6.Instance = TIM6;
  htim6.Init.Prescaler = 83;
 8000f66:	4b0f      	ldr	r3, [pc, #60]	; (8000fa4 <MX_TIM6_Init+0x40>)
  htim6.Instance = TIM6;
 8000f68:	480f      	ldr	r0, [pc, #60]	; (8000fa8 <MX_TIM6_Init+0x44>)
  htim6.Init.Prescaler = 83;
 8000f6a:	f04f 0c53 	mov.w	ip, #83	; 0x53
 8000f6e:	e880 1008 	stmia.w	r0, {r3, ip}
  htim6.Init.CounterMode = TIM_COUNTERMODE_UP;
 8000f72:	2400      	movs	r4, #0
  htim6.Init.Period = 100000;
 8000f74:	4b0d      	ldr	r3, [pc, #52]	; (8000fac <MX_TIM6_Init+0x48>)
  htim6.Init.CounterMode = TIM_COUNTERMODE_UP;
 8000f76:	6084      	str	r4, [r0, #8]
  htim6.Init.Period = 100000;
 8000f78:	60c3      	str	r3, [r0, #12]
  if (HAL_TIM_Base_Init(&htim6) != HAL_OK)
 8000f7a:	f004 f857 	bl	800502c <HAL_TIM_Base_Init>
 8000f7e:	b118      	cbz	r0, 8000f88 <MX_TIM6_Init+0x24>
  {
    _Error_Handler(__FILE__, __LINE__);
 8000f80:	213e      	movs	r1, #62	; 0x3e
 8000f82:	480b      	ldr	r0, [pc, #44]	; (8000fb0 <MX_TIM6_Init+0x4c>)
 8000f84:	f7ff fec4 	bl	8000d10 <_Error_Handler>
  }

  sMasterConfig.MasterOutputTrigger = TIM_TRGO_RESET;
  sMasterConfig.MasterSlaveMode = TIM_MASTERSLAVEMODE_DISABLE;
  if (HAL_TIMEx_MasterConfigSynchronization(&htim6, &sMasterConfig) != HAL_OK)
 8000f88:	4669      	mov	r1, sp
 8000f8a:	4807      	ldr	r0, [pc, #28]	; (8000fa8 <MX_TIM6_Init+0x44>)
  sMasterConfig.MasterOutputTrigger = TIM_TRGO_RESET;
 8000f8c:	9400      	str	r4, [sp, #0]
  sMasterConfig.MasterSlaveMode = TIM_MASTERSLAVEMODE_DISABLE;
 8000f8e:	9401      	str	r4, [sp, #4]
  if (HAL_TIMEx_MasterConfigSynchronization(&htim6, &sMasterConfig) != HAL_OK)
 8000f90:	f004 faa0 	bl	80054d4 <HAL_TIMEx_MasterConfigSynchronization>
 8000f94:	b118      	cbz	r0, 8000f9e <MX_TIM6_Init+0x3a>
  {
    _Error_Handler(__FILE__, __LINE__);
 8000f96:	2145      	movs	r1, #69	; 0x45
 8000f98:	4805      	ldr	r0, [pc, #20]	; (8000fb0 <MX_TIM6_Init+0x4c>)
 8000f9a:	f7ff feb9 	bl	8000d10 <_Error_Handler>
  }
}
 8000f9e:	b002      	add	sp, #8
 8000fa0:	bd10      	pop	{r4, pc}
 8000fa2:	bf00      	nop
 8000fa4:	40001000 	.word	0x40001000
 8000fa8:	20000cd8 	.word	0x20000cd8
 8000fac:	000186a0 	.word	0x000186a0
 8000fb0:	08007267 	.word	0x08007267

08000fb4 <MX_TIM7_Init>:

/* TIM7 init function */
///////////////////////////////////
//tim7 - 84mhz clock. 84 000 000
void MX_TIM7_Init(void)
{
 8000fb4:	b513      	push	{r0, r1, r4, lr}
  TIM_MasterConfigTypeDef sMasterConfig;

  htim7.Instance = TIM7;
  htim7.Init.Prescaler = 32;
 8000fb6:	4b0f      	ldr	r3, [pc, #60]	; (8000ff4 <MX_TIM7_Init+0x40>)
  htim7.Instance = TIM7;
 8000fb8:	480f      	ldr	r0, [pc, #60]	; (8000ff8 <MX_TIM7_Init+0x44>)
  htim7.Init.Prescaler = 32;
 8000fba:	f04f 0c20 	mov.w	ip, #32
 8000fbe:	e880 1008 	stmia.w	r0, {r3, ip}
  htim7.Init.CounterMode = TIM_COUNTERMODE_UP;
 8000fc2:	2400      	movs	r4, #0
  htim7.Init.Period = 120;
 8000fc4:	2378      	movs	r3, #120	; 0x78
  htim7.Init.CounterMode = TIM_COUNTERMODE_UP;
 8000fc6:	6084      	str	r4, [r0, #8]
  htim7.Init.Period = 120;
 8000fc8:	60c3      	str	r3, [r0, #12]
  if (HAL_TIM_Base_Init(&htim7) != HAL_OK)
 8000fca:	f004 f82f 	bl	800502c <HAL_TIM_Base_Init>
 8000fce:	b118      	cbz	r0, 8000fd8 <MX_TIM7_Init+0x24>
  {
    _Error_Handler(__FILE__, __LINE__);
 8000fd0:	2156      	movs	r1, #86	; 0x56
 8000fd2:	480a      	ldr	r0, [pc, #40]	; (8000ffc <MX_TIM7_Init+0x48>)
 8000fd4:	f7ff fe9c 	bl	8000d10 <_Error_Handler>
  }

  sMasterConfig.MasterOutputTrigger = TIM_TRGO_RESET;
  sMasterConfig.MasterSlaveMode = TIM_MASTERSLAVEMODE_DISABLE;
  if (HAL_TIMEx_MasterConfigSynchronization(&htim7, &sMasterConfig) != HAL_OK)
 8000fd8:	4669      	mov	r1, sp
 8000fda:	4807      	ldr	r0, [pc, #28]	; (8000ff8 <MX_TIM7_Init+0x44>)
  sMasterConfig.MasterOutputTrigger = TIM_TRGO_RESET;
 8000fdc:	9400      	str	r4, [sp, #0]
  sMasterConfig.MasterSlaveMode = TIM_MASTERSLAVEMODE_DISABLE;
 8000fde:	9401      	str	r4, [sp, #4]
  if (HAL_TIMEx_MasterConfigSynchronization(&htim7, &sMasterConfig) != HAL_OK)
 8000fe0:	f004 fa78 	bl	80054d4 <HAL_TIMEx_MasterConfigSynchronization>
 8000fe4:	b118      	cbz	r0, 8000fee <MX_TIM7_Init+0x3a>
  {
    _Error_Handler(__FILE__, __LINE__);
 8000fe6:	215d      	movs	r1, #93	; 0x5d
 8000fe8:	4804      	ldr	r0, [pc, #16]	; (8000ffc <MX_TIM7_Init+0x48>)
 8000fea:	f7ff fe91 	bl	8000d10 <_Error_Handler>
  }

}
 8000fee:	b002      	add	sp, #8
 8000ff0:	bd10      	pop	{r4, pc}
 8000ff2:	bf00      	nop
 8000ff4:	40001400 	.word	0x40001400
 8000ff8:	20000d50 	.word	0x20000d50
 8000ffc:	08007267 	.word	0x08007267

08001000 <HAL_TIM_Base_MspInit>:
  HAL_TIM_MspPostInit(&htim9);

}

void HAL_TIM_Base_MspInit(TIM_HandleTypeDef* tim_baseHandle)
{
 8001000:	b507      	push	{r0, r1, r2, lr}

  if(tim_baseHandle->Instance==TIM6)
 8001002:	6803      	ldr	r3, [r0, #0]
 8001004:	4a16      	ldr	r2, [pc, #88]	; (8001060 <HAL_TIM_Base_MspInit+0x60>)
 8001006:	4293      	cmp	r3, r2
 8001008:	d115      	bne.n	8001036 <HAL_TIM_Base_MspInit+0x36>
  {
  /* USER CODE BEGIN TIM6_MspInit 0 */

  /* USER CODE END TIM6_MspInit 0 */
    /* TIM6 clock enable */
    __HAL_RCC_TIM6_CLK_ENABLE();
 800100a:	2200      	movs	r2, #0
 800100c:	4b15      	ldr	r3, [pc, #84]	; (8001064 <HAL_TIM_Base_MspInit+0x64>)
 800100e:	9200      	str	r2, [sp, #0]
 8001010:	6c19      	ldr	r1, [r3, #64]	; 0x40
 8001012:	f041 0110 	orr.w	r1, r1, #16
 8001016:	6419      	str	r1, [r3, #64]	; 0x40
 8001018:	6c1b      	ldr	r3, [r3, #64]	; 0x40
 800101a:	f003 0310 	and.w	r3, r3, #16
 800101e:	9300      	str	r3, [sp, #0]

    /* TIM6 interrupt Init */
    HAL_NVIC_SetPriority(TIM6_DAC_IRQn, 0, 0);
 8001020:	2036      	movs	r0, #54	; 0x36
 8001022:	4611      	mov	r1, r2
    __HAL_RCC_TIM6_CLK_ENABLE();
 8001024:	9b00      	ldr	r3, [sp, #0]
    HAL_NVIC_SetPriority(TIM6_DAC_IRQn, 0, 0);
 8001026:	f000 fff3 	bl	8002010 <HAL_NVIC_SetPriority>
    HAL_NVIC_EnableIRQ(TIM6_DAC_IRQn);
 800102a:	2036      	movs	r0, #54	; 0x36
    /* TIM7 clock enable */
    __HAL_RCC_TIM7_CLK_ENABLE();

    /* TIM7 interrupt Init */
    HAL_NVIC_SetPriority(TIM7_IRQn, 0, 0);
    HAL_NVIC_EnableIRQ(TIM7_IRQn);
 800102c:	f001 f832 	bl	8002094 <HAL_NVIC_EnableIRQ>
  /* USER CODE BEGIN TIM7_MspInit 1 */

  /* USER CODE END TIM7_MspInit 1 */
  }
}
 8001030:	b003      	add	sp, #12
 8001032:	f85d fb04 	ldr.w	pc, [sp], #4
  else if(tim_baseHandle->Instance==TIM7)
 8001036:	4a0c      	ldr	r2, [pc, #48]	; (8001068 <HAL_TIM_Base_MspInit+0x68>)
 8001038:	4293      	cmp	r3, r2
 800103a:	d1f9      	bne.n	8001030 <HAL_TIM_Base_MspInit+0x30>
    __HAL_RCC_TIM7_CLK_ENABLE();
 800103c:	2200      	movs	r2, #0
 800103e:	4b09      	ldr	r3, [pc, #36]	; (8001064 <HAL_TIM_Base_MspInit+0x64>)
 8001040:	9201      	str	r2, [sp, #4]
 8001042:	6c19      	ldr	r1, [r3, #64]	; 0x40
 8001044:	f041 0120 	orr.w	r1, r1, #32
 8001048:	6419      	str	r1, [r3, #64]	; 0x40
 800104a:	6c1b      	ldr	r3, [r3, #64]	; 0x40
 800104c:	f003 0320 	and.w	r3, r3, #32
 8001050:	9301      	str	r3, [sp, #4]
    HAL_NVIC_SetPriority(TIM7_IRQn, 0, 0);
 8001052:	2037      	movs	r0, #55	; 0x37
 8001054:	4611      	mov	r1, r2
    __HAL_RCC_TIM7_CLK_ENABLE();
 8001056:	9b01      	ldr	r3, [sp, #4]
    HAL_NVIC_SetPriority(TIM7_IRQn, 0, 0);
 8001058:	f000 ffda 	bl	8002010 <HAL_NVIC_SetPriority>
    HAL_NVIC_EnableIRQ(TIM7_IRQn);
 800105c:	2037      	movs	r0, #55	; 0x37
 800105e:	e7e5      	b.n	800102c <HAL_TIM_Base_MspInit+0x2c>
 8001060:	40001000 	.word	0x40001000
 8001064:	40023800 	.word	0x40023800
 8001068:	40001400 	.word	0x40001400

0800106c <HAL_TIM_PWM_MspInit>:

void HAL_TIM_PWM_MspInit(TIM_HandleTypeDef* tim_pwmHandle)
{

  if(tim_pwmHandle->Instance==TIM9)
 800106c:	6802      	ldr	r2, [r0, #0]
 800106e:	4b09      	ldr	r3, [pc, #36]	; (8001094 <HAL_TIM_PWM_MspInit+0x28>)
 8001070:	429a      	cmp	r2, r3
{
 8001072:	b082      	sub	sp, #8
  if(tim_pwmHandle->Instance==TIM9)
 8001074:	d10b      	bne.n	800108e <HAL_TIM_PWM_MspInit+0x22>
  {
  /* USER CODE BEGIN TIM9_MspInit 0 */

  /* USER CODE END TIM9_MspInit 0 */
    /* TIM9 clock enable */
    __HAL_RCC_TIM9_CLK_ENABLE();
 8001076:	2300      	movs	r3, #0
 8001078:	9301      	str	r3, [sp, #4]
 800107a:	4b07      	ldr	r3, [pc, #28]	; (8001098 <HAL_TIM_PWM_MspInit+0x2c>)
 800107c:	6c5a      	ldr	r2, [r3, #68]	; 0x44
 800107e:	f442 3280 	orr.w	r2, r2, #65536	; 0x10000
 8001082:	645a      	str	r2, [r3, #68]	; 0x44
 8001084:	6c5b      	ldr	r3, [r3, #68]	; 0x44
 8001086:	f403 3380 	and.w	r3, r3, #65536	; 0x10000
 800108a:	9301      	str	r3, [sp, #4]
 800108c:	9b01      	ldr	r3, [sp, #4]
  /* USER CODE BEGIN TIM9_MspInit 1 */

  /* USER CODE END TIM9_MspInit 1 */
  }
}
 800108e:	b002      	add	sp, #8
 8001090:	4770      	bx	lr
 8001092:	bf00      	nop
 8001094:	40014000 	.word	0x40014000
 8001098:	40023800 	.word	0x40023800

0800109c <HAL_TIM_MspPostInit>:
void HAL_TIM_MspPostInit(TIM_HandleTypeDef* timHandle)
{
 800109c:	b57f      	push	{r0, r1, r2, r3, r4, r5, r6, lr}

  GPIO_InitTypeDef GPIO_InitStruct;
  if(timHandle->Instance==TIM9)
 800109e:	6802      	ldr	r2, [r0, #0]
 80010a0:	4b09      	ldr	r3, [pc, #36]	; (80010c8 <HAL_TIM_MspPostInit+0x2c>)
 80010a2:	429a      	cmp	r2, r3
 80010a4:	d10c      	bne.n	80010c0 <HAL_TIM_MspPostInit+0x24>
  
    /**TIM9 GPIO Configuration    
    PE5     ------> TIM9_CH1
    PE6     ------> TIM9_CH2 
    */
    GPIO_InitStruct.Pin = GPIO_PIN_5|GPIO_PIN_6;
 80010a6:	2360      	movs	r3, #96	; 0x60
 80010a8:	9301      	str	r3, [sp, #4]
    GPIO_InitStruct.Mode = GPIO_MODE_AF_PP;
 80010aa:	2302      	movs	r3, #2
 80010ac:	9302      	str	r3, [sp, #8]
    GPIO_InitStruct.Pull = GPIO_NOPULL;
 80010ae:	2300      	movs	r3, #0
 80010b0:	9303      	str	r3, [sp, #12]
    GPIO_InitStruct.Speed = GPIO_SPEED_FREQ_LOW;
 80010b2:	9304      	str	r3, [sp, #16]
    GPIO_InitStruct.Alternate = GPIO_AF3_TIM9;
    HAL_GPIO_Init(GPIOE, &GPIO_InitStruct);
 80010b4:	a901      	add	r1, sp, #4
    GPIO_InitStruct.Alternate = GPIO_AF3_TIM9;
 80010b6:	2303      	movs	r3, #3
    HAL_GPIO_Init(GPIOE, &GPIO_InitStruct);
 80010b8:	4804      	ldr	r0, [pc, #16]	; (80010cc <HAL_TIM_MspPostInit+0x30>)
    GPIO_InitStruct.Alternate = GPIO_AF3_TIM9;
 80010ba:	9305      	str	r3, [sp, #20]
    HAL_GPIO_Init(GPIOE, &GPIO_InitStruct);
 80010bc:	f001 fba0 	bl	8002800 <HAL_GPIO_Init>
  /* USER CODE BEGIN TIM9_MspPostInit 1 */

  /* USER CODE END TIM9_MspPostInit 1 */
  }

}
 80010c0:	b007      	add	sp, #28
 80010c2:	f85d fb04 	ldr.w	pc, [sp], #4
 80010c6:	bf00      	nop
 80010c8:	40014000 	.word	0x40014000
 80010cc:	40021000 	.word	0x40021000

080010d0 <MX_TIM9_Init>:
{
 80010d0:	b500      	push	{lr}
  htim9.Instance = TIM9;
 80010d2:	4819      	ldr	r0, [pc, #100]	; (8001138 <MX_TIM9_Init+0x68>)
  htim9.Init.Prescaler = 83;
 80010d4:	4919      	ldr	r1, [pc, #100]	; (800113c <MX_TIM9_Init+0x6c>)
 80010d6:	2353      	movs	r3, #83	; 0x53
{
 80010d8:	b089      	sub	sp, #36	; 0x24
  htim9.Init.Prescaler = 83;
 80010da:	e880 000a 	stmia.w	r0, {r1, r3}
  htim9.Init.Period = 4999;
 80010de:	f241 3287 	movw	r2, #4999	; 0x1387
  htim9.Init.CounterMode = TIM_COUNTERMODE_UP;
 80010e2:	2300      	movs	r3, #0
 80010e4:	6083      	str	r3, [r0, #8]
  htim9.Init.Period = 4999;
 80010e6:	60c2      	str	r2, [r0, #12]
  htim9.Init.ClockDivision = TIM_CLOCKDIVISION_DIV1;
 80010e8:	6103      	str	r3, [r0, #16]
  if (HAL_TIM_PWM_Init(&htim9) != HAL_OK)
 80010ea:	f004 f813 	bl	8005114 <HAL_TIM_PWM_Init>
 80010ee:	b118      	cbz	r0, 80010f8 <MX_TIM9_Init+0x28>
    _Error_Handler(__FILE__, __LINE__);
 80010f0:	216d      	movs	r1, #109	; 0x6d
 80010f2:	4813      	ldr	r0, [pc, #76]	; (8001140 <MX_TIM9_Init+0x70>)
 80010f4:	f7ff fe0c 	bl	8000d10 <_Error_Handler>
  sConfigOC.Pulse = 0;
 80010f8:	2200      	movs	r2, #0
  sConfigOC.OCMode = TIM_OCMODE_PWM1;
 80010fa:	2360      	movs	r3, #96	; 0x60
  if (HAL_TIM_PWM_ConfigChannel(&htim9, &sConfigOC, TIM_CHANNEL_1) != HAL_OK)
 80010fc:	a901      	add	r1, sp, #4
 80010fe:	480e      	ldr	r0, [pc, #56]	; (8001138 <MX_TIM9_Init+0x68>)
  sConfigOC.OCMode = TIM_OCMODE_PWM1;
 8001100:	9301      	str	r3, [sp, #4]
  sConfigOC.Pulse = 0;
 8001102:	9202      	str	r2, [sp, #8]
  sConfigOC.OCPolarity = TIM_OCPOLARITY_HIGH;
 8001104:	9203      	str	r2, [sp, #12]
  sConfigOC.OCFastMode = TIM_OCFAST_DISABLE;
 8001106:	9205      	str	r2, [sp, #20]
  if (HAL_TIM_PWM_ConfigChannel(&htim9, &sConfigOC, TIM_CHANNEL_1) != HAL_OK)
 8001108:	f004 f8bc 	bl	8005284 <HAL_TIM_PWM_ConfigChannel>
 800110c:	b118      	cbz	r0, 8001116 <MX_TIM9_Init+0x46>
    _Error_Handler(__FILE__, __LINE__);
 800110e:	2176      	movs	r1, #118	; 0x76
 8001110:	480b      	ldr	r0, [pc, #44]	; (8001140 <MX_TIM9_Init+0x70>)
 8001112:	f7ff fdfd 	bl	8000d10 <_Error_Handler>
  if (HAL_TIM_PWM_ConfigChannel(&htim9, &sConfigOC, TIM_CHANNEL_2) != HAL_OK)
 8001116:	2204      	movs	r2, #4
 8001118:	eb0d 0102 	add.w	r1, sp, r2
 800111c:	4806      	ldr	r0, [pc, #24]	; (8001138 <MX_TIM9_Init+0x68>)
 800111e:	f004 f8b1 	bl	8005284 <HAL_TIM_PWM_ConfigChannel>
 8001122:	b118      	cbz	r0, 800112c <MX_TIM9_Init+0x5c>
    _Error_Handler(__FILE__, __LINE__);
 8001124:	217b      	movs	r1, #123	; 0x7b
 8001126:	4806      	ldr	r0, [pc, #24]	; (8001140 <MX_TIM9_Init+0x70>)
 8001128:	f7ff fdf2 	bl	8000d10 <_Error_Handler>
  HAL_TIM_MspPostInit(&htim9);
 800112c:	4802      	ldr	r0, [pc, #8]	; (8001138 <MX_TIM9_Init+0x68>)
 800112e:	f7ff ffb5 	bl	800109c <HAL_TIM_MspPostInit>
}
 8001132:	b009      	add	sp, #36	; 0x24
 8001134:	f85d fb04 	ldr.w	pc, [sp], #4
 8001138:	20000d14 	.word	0x20000d14
 800113c:	40014000 	.word	0x40014000
 8001140:	08007267 	.word	0x08007267

08001144 <MX_USART1_UART_Init>:
DMA_HandleTypeDef hdma_usart1_rx;

/* USART1 init function */

void MX_USART1_UART_Init(void)
{
 8001144:	b508      	push	{r3, lr}

  huart1.Instance = USART1;
 8001146:	480c      	ldr	r0, [pc, #48]	; (8001178 <MX_USART1_UART_Init+0x34>)
  huart1.Init.BaudRate = 115200;
 8001148:	4b0c      	ldr	r3, [pc, #48]	; (800117c <MX_USART1_UART_Init+0x38>)
 800114a:	f44f 3ee1 	mov.w	lr, #115200	; 0x1c200
 800114e:	e880 4008 	stmia.w	r0, {r3, lr}
  huart1.Init.WordLength = UART_WORDLENGTH_8B;
  huart1.Init.StopBits = UART_STOPBITS_1;
  huart1.Init.Parity = UART_PARITY_NONE;
  huart1.Init.Mode = UART_MODE_TX_RX;
 8001152:	220c      	movs	r2, #12
  huart1.Init.WordLength = UART_WORDLENGTH_8B;
 8001154:	2300      	movs	r3, #0
 8001156:	6083      	str	r3, [r0, #8]
  huart1.Init.StopBits = UART_STOPBITS_1;
 8001158:	60c3      	str	r3, [r0, #12]
  huart1.Init.Parity = UART_PARITY_NONE;
 800115a:	6103      	str	r3, [r0, #16]
  huart1.Init.Mode = UART_MODE_TX_RX;
 800115c:	6142      	str	r2, [r0, #20]
  huart1.Init.HwFlowCtl = UART_HWCONTROL_NONE;
 800115e:	6183      	str	r3, [r0, #24]
  huart1.Init.OverSampling = UART_OVERSAMPLING_16;
 8001160:	61c3      	str	r3, [r0, #28]
  if (HAL_UART_Init(&huart1) != HAL_OK)
 8001162:	f004 fb6d 	bl	8005840 <HAL_UART_Init>
 8001166:	b128      	cbz	r0, 8001174 <MX_USART1_UART_Init+0x30>
  {
    _Error_Handler(__FILE__, __LINE__);
 8001168:	2144      	movs	r1, #68	; 0x44
 800116a:	4805      	ldr	r0, [pc, #20]	; (8001180 <MX_USART1_UART_Init+0x3c>)
  }

}
 800116c:	e8bd 4008 	ldmia.w	sp!, {r3, lr}
    _Error_Handler(__FILE__, __LINE__);
 8001170:	f7ff bdce 	b.w	8000d10 <_Error_Handler>
 8001174:	bd08      	pop	{r3, pc}
 8001176:	bf00      	nop
 8001178:	20000dec 	.word	0x20000dec
 800117c:	40011000 	.word	0x40011000
 8001180:	0800727a 	.word	0x0800727a

08001184 <HAL_UART_MspInit>:

void HAL_UART_MspInit(UART_HandleTypeDef* uartHandle)
{
 8001184:	b570      	push	{r4, r5, r6, lr}

  GPIO_InitTypeDef GPIO_InitStruct;
  if(uartHandle->Instance==USART1)
 8001186:	6802      	ldr	r2, [r0, #0]
 8001188:	4b23      	ldr	r3, [pc, #140]	; (8001218 <HAL_UART_MspInit+0x94>)
 800118a:	429a      	cmp	r2, r3
{
 800118c:	b086      	sub	sp, #24
 800118e:	4606      	mov	r6, r0
  if(uartHandle->Instance==USART1)
 8001190:	d13f      	bne.n	8001212 <HAL_UART_MspInit+0x8e>
  {
  /* USER CODE BEGIN USART1_MspInit 0 */

  /* USER CODE END USART1_MspInit 0 */
    /* USART1 clock enable */
    __HAL_RCC_USART1_CLK_ENABLE();
 8001192:	2500      	movs	r5, #0
 8001194:	f503 3394 	add.w	r3, r3, #75776	; 0x12800
 8001198:	9500      	str	r5, [sp, #0]
 800119a:	6c5a      	ldr	r2, [r3, #68]	; 0x44
    GPIO_InitStruct.Pin = GPIO_PIN_9|GPIO_PIN_10;
    GPIO_InitStruct.Mode = GPIO_MODE_AF_PP;
    GPIO_InitStruct.Pull = GPIO_PULLUP;
    GPIO_InitStruct.Speed = GPIO_SPEED_FREQ_VERY_HIGH;
    GPIO_InitStruct.Alternate = GPIO_AF7_USART1;
    HAL_GPIO_Init(GPIOA, &GPIO_InitStruct);
 800119c:	481f      	ldr	r0, [pc, #124]	; (800121c <HAL_UART_MspInit+0x98>)

    /* USART1 DMA Init */
    /* USART1_RX Init */
    hdma_usart1_rx.Instance = DMA2_Stream2;
 800119e:	4c20      	ldr	r4, [pc, #128]	; (8001220 <HAL_UART_MspInit+0x9c>)
    __HAL_RCC_USART1_CLK_ENABLE();
 80011a0:	f042 0210 	orr.w	r2, r2, #16
 80011a4:	645a      	str	r2, [r3, #68]	; 0x44
 80011a6:	6c5b      	ldr	r3, [r3, #68]	; 0x44
 80011a8:	f003 0310 	and.w	r3, r3, #16
 80011ac:	9300      	str	r3, [sp, #0]
 80011ae:	9b00      	ldr	r3, [sp, #0]
    GPIO_InitStruct.Pin = GPIO_PIN_9|GPIO_PIN_10;
 80011b0:	f44f 63c0 	mov.w	r3, #1536	; 0x600
 80011b4:	9301      	str	r3, [sp, #4]
    GPIO_InitStruct.Mode = GPIO_MODE_AF_PP;
 80011b6:	2302      	movs	r3, #2
 80011b8:	9302      	str	r3, [sp, #8]
    GPIO_InitStruct.Pull = GPIO_PULLUP;
 80011ba:	2301      	movs	r3, #1
 80011bc:	9303      	str	r3, [sp, #12]
    GPIO_InitStruct.Speed = GPIO_SPEED_FREQ_VERY_HIGH;
 80011be:	2303      	movs	r3, #3
 80011c0:	9304      	str	r3, [sp, #16]
    HAL_GPIO_Init(GPIOA, &GPIO_InitStruct);
 80011c2:	a901      	add	r1, sp, #4
    GPIO_InitStruct.Alternate = GPIO_AF7_USART1;
 80011c4:	2307      	movs	r3, #7
 80011c6:	9305      	str	r3, [sp, #20]
    HAL_GPIO_Init(GPIOA, &GPIO_InitStruct);
 80011c8:	f001 fb1a 	bl	8002800 <HAL_GPIO_Init>
    hdma_usart1_rx.Init.Channel = DMA_CHANNEL_4;
 80011cc:	4a15      	ldr	r2, [pc, #84]	; (8001224 <HAL_UART_MspInit+0xa0>)
    hdma_usart1_rx.Init.Direction = DMA_PERIPH_TO_MEMORY;
 80011ce:	60a5      	str	r5, [r4, #8]
    hdma_usart1_rx.Init.Channel = DMA_CHANNEL_4;
 80011d0:	f04f 6300 	mov.w	r3, #134217728	; 0x8000000
 80011d4:	e884 000c 	stmia.w	r4, {r2, r3}
    hdma_usart1_rx.Init.PeriphInc = DMA_PINC_DISABLE;
    hdma_usart1_rx.Init.MemInc = DMA_MINC_ENABLE;
 80011d8:	f44f 6380 	mov.w	r3, #1024	; 0x400
 80011dc:	6123      	str	r3, [r4, #16]
    hdma_usart1_rx.Init.PeriphDataAlignment = DMA_PDATAALIGN_BYTE;
    hdma_usart1_rx.Init.MemDataAlignment = DMA_MDATAALIGN_BYTE;
    hdma_usart1_rx.Init.Mode = DMA_CIRCULAR;
    hdma_usart1_rx.Init.Priority = DMA_PRIORITY_LOW;
    hdma_usart1_rx.Init.FIFOMode = DMA_FIFOMODE_DISABLE;
    if (HAL_DMA_Init(&hdma_usart1_rx) != HAL_OK)
 80011de:	4620      	mov	r0, r4
    hdma_usart1_rx.Init.Mode = DMA_CIRCULAR;
 80011e0:	f44f 7380 	mov.w	r3, #256	; 0x100
    hdma_usart1_rx.Init.PeriphInc = DMA_PINC_DISABLE;
 80011e4:	60e5      	str	r5, [r4, #12]
    hdma_usart1_rx.Init.PeriphDataAlignment = DMA_PDATAALIGN_BYTE;
 80011e6:	6165      	str	r5, [r4, #20]
    hdma_usart1_rx.Init.MemDataAlignment = DMA_MDATAALIGN_BYTE;
 80011e8:	61a5      	str	r5, [r4, #24]
    hdma_usart1_rx.Init.Mode = DMA_CIRCULAR;
 80011ea:	61e3      	str	r3, [r4, #28]
    hdma_usart1_rx.Init.Priority = DMA_PRIORITY_LOW;
 80011ec:	6225      	str	r5, [r4, #32]
    hdma_usart1_rx.Init.FIFOMode = DMA_FIFOMODE_DISABLE;
 80011ee:	6265      	str	r5, [r4, #36]	; 0x24
    if (HAL_DMA_Init(&hdma_usart1_rx) != HAL_OK)
 80011f0:	f001 f8b8 	bl	8002364 <HAL_DMA_Init>
 80011f4:	b118      	cbz	r0, 80011fe <HAL_UART_MspInit+0x7a>
    {
      _Error_Handler(__FILE__, __LINE__);
 80011f6:	216e      	movs	r1, #110	; 0x6e
 80011f8:	480b      	ldr	r0, [pc, #44]	; (8001228 <HAL_UART_MspInit+0xa4>)
 80011fa:	f7ff fd89 	bl	8000d10 <_Error_Handler>
    }

    __HAL_LINKDMA(uartHandle,hdmarx,hdma_usart1_rx);

    /* USART1 interrupt Init */
    HAL_NVIC_SetPriority(USART1_IRQn, 0, 0);
 80011fe:	2200      	movs	r2, #0
    __HAL_LINKDMA(uartHandle,hdmarx,hdma_usart1_rx);
 8001200:	6374      	str	r4, [r6, #52]	; 0x34
    HAL_NVIC_SetPriority(USART1_IRQn, 0, 0);
 8001202:	2025      	movs	r0, #37	; 0x25
 8001204:	4611      	mov	r1, r2
    __HAL_LINKDMA(uartHandle,hdmarx,hdma_usart1_rx);
 8001206:	63a6      	str	r6, [r4, #56]	; 0x38
    HAL_NVIC_SetPriority(USART1_IRQn, 0, 0);
 8001208:	f000 ff02 	bl	8002010 <HAL_NVIC_SetPriority>
    HAL_NVIC_EnableIRQ(USART1_IRQn);
 800120c:	2025      	movs	r0, #37	; 0x25
 800120e:	f000 ff41 	bl	8002094 <HAL_NVIC_EnableIRQ>
  /* USER CODE BEGIN USART1_MspInit 1 */

  /* USER CODE END USART1_MspInit 1 */
  }
}
 8001212:	b006      	add	sp, #24
 8001214:	bd70      	pop	{r4, r5, r6, pc}
 8001216:	bf00      	nop
 8001218:	40011000 	.word	0x40011000
 800121c:	40020000 	.word	0x40020000
 8001220:	20000d8c 	.word	0x20000d8c
 8001224:	40026440 	.word	0x40026440
 8001228:	0800727a 	.word	0x0800727a

0800122c <SlidePot_init>:
static uint16_t adcPosition = 0x00;

void SlidePot_init(void)
{
	adcRawData = 0x00;
	adcPosition = 0x00;
 800122c:	4a04      	ldr	r2, [pc, #16]	; (8001240 <SlidePot_init+0x14>)
	adcRawData = 0x00;
 800122e:	4905      	ldr	r1, [pc, #20]	; (8001244 <SlidePot_init+0x18>)

	//start the dma transfer - continuous
	HAL_ADC_Start_DMA(&hadc1, &adcRawData, 1);
 8001230:	4805      	ldr	r0, [pc, #20]	; (8001248 <SlidePot_init+0x1c>)
	adcRawData = 0x00;
 8001232:	2300      	movs	r3, #0
	adcPosition = 0x00;
 8001234:	8013      	strh	r3, [r2, #0]
	HAL_ADC_Start_DMA(&hadc1, &adcRawData, 1);
 8001236:	2201      	movs	r2, #1
	adcRawData = 0x00;
 8001238:	600b      	str	r3, [r1, #0]
	HAL_ADC_Start_DMA(&hadc1, &adcRawData, 1);
 800123a:	f000 bd3f 	b.w	8001cbc <HAL_ADC_Start_DMA>
 800123e:	bf00      	nop
 8001240:	20000498 	.word	0x20000498
 8001244:	2000049c 	.word	0x2000049c
 8001248:	20000a58 	.word	0x20000a58

0800124c <SlidePot_ReadPosition>:
}

uint16_t SlidePot_ReadPosition(void)
{
	return (uint16_t)adcPosition;
}
 800124c:	4b01      	ldr	r3, [pc, #4]	; (8001254 <SlidePot_ReadPosition+0x8>)
 800124e:	8818      	ldrh	r0, [r3, #0]
 8001250:	4770      	bx	lr
 8001252:	bf00      	nop
 8001254:	20000498 	.word	0x20000498

08001258 <HAL_ADC_ConvCpltCallback>:
//Compute the position and reset the dma
void HAL_ADC_ConvCpltCallback(ADC_HandleTypeDef* hadc)
{
	uint32_t temp;

	if (hadc == &hadc1)
 8001258:	4b0c      	ldr	r3, [pc, #48]	; (800128c <HAL_ADC_ConvCpltCallback+0x34>)
 800125a:	4283      	cmp	r3, r0
 800125c:	d111      	bne.n	8001282 <HAL_ADC_ConvCpltCallback+0x2a>
	{
		temp = ((1000 * adcRawData) / 4095) * 240;
 800125e:	4b0c      	ldr	r3, [pc, #48]	; (8001290 <HAL_ADC_ConvCpltCallback+0x38>)
 8001260:	681b      	ldr	r3, [r3, #0]
 8001262:	f44f 717a 	mov.w	r1, #1000	; 0x3e8
 8001266:	434b      	muls	r3, r1
 8001268:	f640 72ff 	movw	r2, #4095	; 0xfff
 800126c:	fbb3 f2f2 	udiv	r2, r3, r2
 8001270:	23f0      	movs	r3, #240	; 0xf0
 8001272:	4353      	muls	r3, r2

		//set x in a valid range
		if (temp > 240)
		temp = 240;

		adcPosition = temp;
 8001274:	4a07      	ldr	r2, [pc, #28]	; (8001294 <HAL_ADC_ConvCpltCallback+0x3c>)
		temp = temp / 1000;
 8001276:	fbb3 f3f1 	udiv	r3, r3, r1
		adcPosition = temp;
 800127a:	2bf0      	cmp	r3, #240	; 0xf0
 800127c:	bf28      	it	cs
 800127e:	23f0      	movcs	r3, #240	; 0xf0
 8001280:	8013      	strh	r3, [r2, #0]

	}

	HAL_ADC_Start_DMA(&hadc1, &adcRawData, 1);
 8001282:	2201      	movs	r2, #1
 8001284:	4902      	ldr	r1, [pc, #8]	; (8001290 <HAL_ADC_ConvCpltCallback+0x38>)
 8001286:	4801      	ldr	r0, [pc, #4]	; (800128c <HAL_ADC_ConvCpltCallback+0x34>)
 8001288:	f000 bd18 	b.w	8001cbc <HAL_ADC_Start_DMA>
 800128c:	20000a58 	.word	0x20000a58
 8001290:	2000049c 	.word	0x2000049c
 8001294:	20000498 	.word	0x20000498

08001298 <LCD_SetTextLineColor>:
};


void LCD_SetTextLineColor(uint16_t color)
{
	m_lcdTextLineColor = color;
 8001298:	4b01      	ldr	r3, [pc, #4]	; (80012a0 <LCD_SetTextLineColor+0x8>)
 800129a:	8018      	strh	r0, [r3, #0]
 800129c:	4770      	bx	lr
 800129e:	bf00      	nop
 80012a0:	20000400 	.word	0x20000400

080012a4 <LCD_SetTextBackColor>:
}

void LCD_SetTextBackColor(uint16_t color)
{
	m_lcdTextBackColor = color;
 80012a4:	4b01      	ldr	r3, [pc, #4]	; (80012ac <LCD_SetTextBackColor+0x8>)
 80012a6:	8018      	strh	r0, [r3, #0]
 80012a8:	4770      	bx	lr
 80012aa:	bf00      	nop
 80012ac:	200004a0 	.word	0x200004a0

080012b0 <LCD_GetRGB332PalletValue>:
{
	uint8_t red = (uint8_t)((color >> 13) & 0x07);
	uint8_t green = (uint8_t)((color >> 8) & 0x07);
	uint8_t blue = (uint8_t)((color >> 3) & 0x03);

	uint8_t finalColor = (red << 5) | ( green << 2) | (blue);
 80012b0:	0b42      	lsrs	r2, r0, #13
	uint8_t blue = (uint8_t)((color >> 3) & 0x03);
 80012b2:	f3c0 03c1 	ubfx	r3, r0, #3, #2
	uint8_t finalColor = (red << 5) | ( green << 2) | (blue);
 80012b6:	ea43 1342 	orr.w	r3, r3, r2, lsl #5
 80012ba:	f3c0 2002 	ubfx	r0, r0, #8, #3
	return finalColor;
}
 80012be:	ea43 0080 	orr.w	r0, r3, r0, lsl #2
 80012c2:	4770      	bx	lr

080012c4 <LCD_RGB_332_565>:
	//red >> 16 + 3 and back 11
	//green >> 8 + 2 and back 5
	//blue >> 3 and back 0


	uint32_t temp = colorPalletRGB332[color];
 80012c4:	4b06      	ldr	r3, [pc, #24]	; (80012e0 <LCD_RGB_332_565+0x1c>)
 80012c6:	f853 3020 	ldr.w	r3, [r3, r0, lsl #2]

//	uint32_t red = ((temp >> 19) & 0x1F) << 11;
//	uint32_t green =  ((temp >> 10) & 0x3F) << 5;
//	uint32_t blue = ((temp >> 3) & 0x1F);

	uint32_t blue = ((temp >> 19) & 0x1F) << 11;
 80012ca:	0a18      	lsrs	r0, r3, #8
	uint32_t green =  ((temp >> 10) & 0x3F) << 5;
 80012cc:	095a      	lsrs	r2, r3, #5
 80012ce:	f402 62fc 	and.w	r2, r2, #2016	; 0x7e0
	uint32_t blue = ((temp >> 19) & 0x1F) << 11;
 80012d2:	f400 4078 	and.w	r0, r0, #63488	; 0xf800
	uint32_t red = ((temp >> 3) & 0x1F);

	uint32_t output = red | green | blue;
 80012d6:	4310      	orrs	r0, r2
	uint32_t red = ((temp >> 3) & 0x1F);
 80012d8:	f3c3 03c4 	ubfx	r3, r3, #3, #5
	return (uint16_t)output;

}
 80012dc:	4318      	orrs	r0, r3
 80012de:	4770      	bx	lr
 80012e0:	20000000 	.word	0x20000000

080012e4 <LCD_Clear>:
//We could probably cut the number of writes
//in half if the layer used the top and bottom bytes
//
//
void LCD_Clear(uint32_t layer, uint16_t color)
{
 80012e4:	b510      	push	{r4, lr}
 80012e6:	4604      	mov	r4, r0
	//get the 8 bit color value from the 16 bit value
	uint8_t color8 = LCD_GetRGB332PalletValue(color);
 80012e8:	4608      	mov	r0, r1
 80012ea:	f7ff ffe1 	bl	80012b0 <LCD_GetRGB332PalletValue>
	uint32_t index = 0;

	uint32_t numPixels = LCD_WIDTH * LCD_HEIGHT;
	uint32_t pageOffset = layer * SDRAM_LCD_LAYER_SIZE;
 80012ee:	0463      	lsls	r3, r4, #17
 80012f0:	f103 4350 	add.w	r3, r3, #3489660928	; 0xd0000000
 80012f4:	f503 3200 	add.w	r2, r3, #131072	; 0x20000
 80012f8:	f503 334b 	add.w	r3, r3, #207872	; 0x32c00

	for (index = 0 ; index < numPixels ; index++)
	{
		//deref value of address = color
		*(__IO uint32_t*) (SDRAM_BASE_ADDR + SDRAM_LCD_LAYER_OFFSET + pageOffset + index) = color8;
 80012fc:	f842 0b01 	str.w	r0, [r2], #1
	for (index = 0 ; index < numPixels ; index++)
 8001300:	429a      	cmp	r2, r3
 8001302:	d1fb      	bne.n	80012fc <LCD_Clear+0x18>
	}
}
 8001304:	bd10      	pop	{r4, pc}

08001306 <LCD_PutPixel>:
//dead/unknown data.
//
void LCD_PutPixel(uint32_t layer, uint32_t x, uint32_t y, uint16_t color)
{
    //do simple test for x and y in range
    if ((x < 0) || (x > LCD_WIDTH-1))
 8001306:	29ef      	cmp	r1, #239	; 0xef
{
 8001308:	b537      	push	{r0, r1, r2, r4, r5, lr}
 800130a:	4604      	mov	r4, r0
 800130c:	4615      	mov	r5, r2
    if ((x < 0) || (x > LCD_WIDTH-1))
 800130e:	d815      	bhi.n	800133c <LCD_PutPixel+0x36>
        return;

    if ((y < 0) || (y > LCD_HEIGHT - 1))
 8001310:	f5b2 7fa0 	cmp.w	r2, #320	; 0x140
 8001314:	d212      	bcs.n	800133c <LCD_PutPixel+0x36>
        return;

    uint32_t color8 = LCD_GetRGB332PalletValue(color) & 0xFF;
 8001316:	4618      	mov	r0, r3
 8001318:	f7ff ffca 	bl	80012b0 <LCD_GetRGB332PalletValue>
    uint32_t rowOffset = y * LCD_WIDTH;
    uint32_t colOffset = x;
    uint32_t cell = rowOffset + colOffset;

    //read one up for or-ing to the current at the msb
    volatile uint32_t oneUp = *(__IO uint32_t*) (SDRAM_BASE_ADDR + SDRAM_LCD_LAYER_OFFSET +
 800131c:	f504 44d0 	add.w	r4, r4, #26624	; 0x6800
    uint32_t rowOffset = y * LCD_WIDTH;
 8001320:	23f0      	movs	r3, #240	; 0xf0
 8001322:	fb03 f205 	mul.w	r2, r3, r5
    volatile uint32_t oneUp = *(__IO uint32_t*) (SDRAM_BASE_ADDR + SDRAM_LCD_LAYER_OFFSET +
 8001326:	3401      	adds	r4, #1
						(layer * SDRAM_LCD_LAYER_SIZE) + cell + 1);
 8001328:	eb02 4244 	add.w	r2, r2, r4, lsl #17
 800132c:	1853      	adds	r3, r2, r1
    volatile uint32_t oneUp = *(__IO uint32_t*) (SDRAM_BASE_ADDR + SDRAM_LCD_LAYER_OFFSET +
 800132e:	f8d3 3001 	ldr.w	r3, [r3, #1]
 8001332:	9301      	str	r3, [sp, #4]

    //add color into the lsb
	*(__IO uint32_t*) (SDRAM_BASE_ADDR + SDRAM_LCD_LAYER_OFFSET +
						(layer * SDRAM_LCD_LAYER_SIZE) + cell) = color8 | (oneUp << 8);
 8001334:	9b01      	ldr	r3, [sp, #4]
 8001336:	ea40 2003 	orr.w	r0, r0, r3, lsl #8
 800133a:	5050      	str	r0, [r2, r1]
}
 800133c:	b003      	add	sp, #12
 800133e:	bd30      	pop	{r4, r5, pc}

08001340 <LCD_DrawChar>:
	uint16_t charWidth = 16;
	uint16_t charHeight = 24;

	//starting point for a single char
	uint16_t xOffset = col * charWidth;
	uint16_t yOffset = row * charHeight;
 8001340:	eb01 0141 	add.w	r1, r1, r1, lsl #1
{
 8001344:	e92d 4ff8 	stmdb	sp!, {r3, r4, r5, r6, r7, r8, r9, sl, fp, lr}
 8001348:	00cc      	lsls	r4, r1, #3

	//write the char in terms of x,y space calling put pixel
	//first char in the lookup table is ascii 32
	 uint16_t line = (uint16_t)letter - (uint16_t)32;
 800134a:	3b20      	subs	r3, #32
	uint16_t xOffset = col * charWidth;
 800134c:	0117      	lsls	r7, r2, #4

	//there are 24 elements per char height
	for (uint16_t i = 0 ; i < 24 ;  i++)
	{
		//get element and test for flip top/bottom
		uint32_t temp = Ascii_16_24_Table[(line*24)+i];
 800134e:	b29b      	uxth	r3, r3
 8001350:	4262      	negs	r2, r4
 8001352:	2118      	movs	r1, #24
 8001354:	fb01 2303 	mla	r3, r1, r3, r2
 8001358:	4a10      	ldr	r2, [pc, #64]	; (800139c <LCD_DrawChar+0x5c>)
{
 800135a:	4606      	mov	r6, r0
 800135c:	f104 0818 	add.w	r8, r4, #24
 8001360:	eb02 0943 	add.w	r9, r2, r3, lsl #1
		uint32_t temp = Ascii_16_24_Table[(line*24)+i];
 8001364:	f839 a014 	ldrh.w	sl, [r9, r4, lsl #1]
 8001368:	2500      	movs	r5, #0
		{
			//font table is reading flipped left to right
//			bit = (((uint16_t)1u << (p-1) ) & temp) >> (p-1);

			//scan right to left
			bit = (((uint16_t)1u << (16-p) ) & temp) >> (16-p);
 800136a:	f04f 0b01 	mov.w	fp, #1
 800136e:	fa0b f305 	lsl.w	r3, fp, r5
 8001372:	ea03 030a 	and.w	r3, r3, sl
 8001376:	40eb      	lsrs	r3, r5

			//if the bit = 0 - it's blank - back color
			//if the bit = 1 - it's a color - line color
			if (bit == 1)
 8001378:	2b01      	cmp	r3, #1
			{
				//draws flipped left to right
				LCD_PutPixel(layer, xOffset + 16 - p, yOffset + i, m_lcdTextLineColor);
 800137a:	bf0c      	ite	eq
 800137c:	4b08      	ldreq	r3, [pc, #32]	; (80013a0 <LCD_DrawChar+0x60>)
			}
			else
			{
				LCD_PutPixel(layer, xOffset + 16 - p, yOffset + i, m_lcdTextBackColor);
 800137e:	4b09      	ldrne	r3, [pc, #36]	; (80013a4 <LCD_DrawChar+0x64>)
 8001380:	1979      	adds	r1, r7, r5
 8001382:	881b      	ldrh	r3, [r3, #0]
 8001384:	4622      	mov	r2, r4
 8001386:	4630      	mov	r0, r6
 8001388:	3501      	adds	r5, #1
 800138a:	f7ff ffbc 	bl	8001306 <LCD_PutPixel>
		while (p > 0)
 800138e:	2d10      	cmp	r5, #16
 8001390:	d1ed      	bne.n	800136e <LCD_DrawChar+0x2e>
 8001392:	3401      	adds	r4, #1
	for (uint16_t i = 0 ; i < 24 ;  i++)
 8001394:	4544      	cmp	r4, r8
 8001396:	d1e5      	bne.n	8001364 <LCD_DrawChar+0x24>
			}

			p--;
		}
	}
}
 8001398:	e8bd 8ff8 	ldmia.w	sp!, {r3, r4, r5, r6, r7, r8, r9, sl, fp, pc}
 800139c:	0800858c 	.word	0x0800858c
 80013a0:	20000400 	.word	0x20000400
 80013a4:	200004a0 	.word	0x200004a0

080013a8 <LCD_DrawString>:

//LCD_DrawString - Displays a string on the LCD at a
//given layer and row.  Does not support kerning
void LCD_DrawString(uint8_t layer, uint8_t row, char* output)
{
 80013a8:	e92d 41f0 	stmdb	sp!, {r4, r5, r6, r7, r8, lr}
 80013ac:	4607      	mov	r7, r0
	//get the length limited by max cols
	uint8_t length = strlen(output);
 80013ae:	4610      	mov	r0, r2
{
 80013b0:	4615      	mov	r5, r2
 80013b2:	4688      	mov	r8, r1
	uint8_t length = strlen(output);
 80013b4:	f7fe ff1c 	bl	80001f0 <strlen>
 80013b8:	b2c4      	uxtb	r4, r0
 80013ba:	2c0e      	cmp	r4, #14
 80013bc:	bf28      	it	cs
 80013be:	240e      	movcs	r4, #14
	if (length > MAX_COLS)
		length = MAX_COLS;

	for (uint8_t i = 0 ; i < length ; i++)
 80013c0:	462e      	mov	r6, r5
 80013c2:	1b72      	subs	r2, r6, r5
 80013c4:	b2d2      	uxtb	r2, r2
 80013c6:	4294      	cmp	r4, r2
 80013c8:	d801      	bhi.n	80013ce <LCD_DrawString+0x26>
		LCD_DrawChar(layer, row, i, output[i]);
}
 80013ca:	e8bd 81f0 	ldmia.w	sp!, {r4, r5, r6, r7, r8, pc}
		LCD_DrawChar(layer, row, i, output[i]);
 80013ce:	f816 3b01 	ldrb.w	r3, [r6], #1
 80013d2:	4641      	mov	r1, r8
 80013d4:	4638      	mov	r0, r7
 80013d6:	f7ff ffb3 	bl	8001340 <LCD_DrawChar>
 80013da:	e7f2      	b.n	80013c2 <LCD_DrawString+0x1a>

080013dc <LCD_DrawStringLength>:

void LCD_DrawStringLength(uint8_t layer, uint8_t row, char output[], uint8_t length)
{
 80013dc:	2b0e      	cmp	r3, #14
 80013de:	bf28      	it	cs
 80013e0:	230e      	movcs	r3, #14
 80013e2:	e92d 41f0 	stmdb	sp!, {r4, r5, r6, r7, r8, lr}
 80013e6:	4607      	mov	r7, r0
 80013e8:	4688      	mov	r8, r1
 80013ea:	4615      	mov	r5, r2
 80013ec:	461e      	mov	r6, r3
	//get the length limited by max cols
	uint8_t size = length;
	if (length > MAX_COLS)
		size = MAX_COLS;

	for (uint8_t i = 0 ; i < size ; i++)
 80013ee:	4614      	mov	r4, r2
 80013f0:	1b62      	subs	r2, r4, r5
 80013f2:	b2d2      	uxtb	r2, r2
 80013f4:	4296      	cmp	r6, r2
 80013f6:	d801      	bhi.n	80013fc <LCD_DrawStringLength+0x20>
		LCD_DrawChar(layer, row, i, output[i]);
}
 80013f8:	e8bd 81f0 	ldmia.w	sp!, {r4, r5, r6, r7, r8, pc}
		LCD_DrawChar(layer, row, i, output[i]);
 80013fc:	f814 3b01 	ldrb.w	r3, [r4], #1
 8001400:	4641      	mov	r1, r8
 8001402:	4638      	mov	r0, r7
 8001404:	f7ff ff9c 	bl	8001340 <LCD_DrawChar>
 8001408:	e7f2      	b.n	80013f0 <LCD_DrawStringLength+0x14>

0800140a <LCD_DrawBitmapTransparent>:

///////////////////////////////////////////////
//Draw bitmap with transparent color
//
void LCD_DrawBitmapTransparent(uint32_t layer, uint32_t x0, uint32_t y0, const ImageData* image, uint16_t transparentColor)
{
 800140a:	e92d 4ff8 	stmdb	sp!, {r3, r4, r5, r6, r7, r8, r9, sl, fp, lr}
 800140e:	4688      	mov	r8, r1
	const uint8_t *data = image->pImageData;
	uint16_t color = 0x00;

	///////////////////////////////////
	//8 bit color
	if (image->bitsPerPixel == 8)
 8001410:	88d9      	ldrh	r1, [r3, #6]
{
 8001412:	f8bd a028 	ldrh.w	sl, [sp, #40]	; 0x28
	if (image->bitsPerPixel == 8)
 8001416:	2908      	cmp	r1, #8
{
 8001418:	4681      	mov	r9, r0
	if (image->bitsPerPixel == 8)
 800141a:	d11e      	bne.n	800145a <LCD_DrawBitmapTransparent+0x50>
	uint16_t sizeX = image->xSize;
 800141c:	881f      	ldrh	r7, [r3, #0]
	uint16_t sizeY = image->ySize;
 800141e:	885e      	ldrh	r6, [r3, #2]
	const uint8_t *data = image->pImageData;
 8001420:	689b      	ldr	r3, [r3, #8]
 8001422:	4614      	mov	r4, r2
	{
		for (uint32_t i = y0 ; i < (sizeY + y0) ; i++)
 8001424:	4416      	add	r6, r2
		{
			for (uint32_t j = x0 ; j < (sizeX + x0) ; j++)
 8001426:	4447      	add	r7, r8
		for (uint32_t i = y0 ; i < (sizeY + y0) ; i++)
 8001428:	42b4      	cmp	r4, r6
 800142a:	d216      	bcs.n	800145a <LCD_DrawBitmapTransparent+0x50>
 800142c:	461d      	mov	r5, r3
 800142e:	eba8 0b03 	sub.w	fp, r8, r3
 8001432:	e00b      	b.n	800144c <LCD_DrawBitmapTransparent+0x42>
			{
				color = LCD_RGB_332_565(*data);
 8001434:	7818      	ldrb	r0, [r3, #0]
 8001436:	f7ff ff45 	bl	80012c4 <LCD_RGB_332_565>

				if (color != transparentColor)
 800143a:	4550      	cmp	r0, sl
 800143c:	f105 0501 	add.w	r5, r5, #1
				color = LCD_RGB_332_565(*data);
 8001440:	4603      	mov	r3, r0
				if (color != transparentColor)
 8001442:	d003      	beq.n	800144c <LCD_DrawBitmapTransparent+0x42>
					LCD_PutPixel(layer, j, i, color);
 8001444:	4622      	mov	r2, r4
 8001446:	4648      	mov	r0, r9
 8001448:	f7ff ff5d 	bl	8001306 <LCD_PutPixel>
 800144c:	eb0b 0105 	add.w	r1, fp, r5
			for (uint32_t j = x0 ; j < (sizeX + x0) ; j++)
 8001450:	428f      	cmp	r7, r1
 8001452:	462b      	mov	r3, r5
 8001454:	d8ee      	bhi.n	8001434 <LCD_DrawBitmapTransparent+0x2a>
		for (uint32_t i = y0 ; i < (sizeY + y0) ; i++)
 8001456:	3401      	adds	r4, #1
 8001458:	e7e6      	b.n	8001428 <LCD_DrawBitmapTransparent+0x1e>
 800145a:	e8bd 8ff8 	ldmia.w	sp!, {r3, r4, r5, r6, r7, r8, r9, sl, fp, pc}
	...

08001460 <SDRAM_Initialization_sequence>:




void SDRAM_Initialization_sequence(uint32_t RefreshCount)
{
 8001460:	e92d 43f0 	stmdb	sp!, {r4, r5, r6, r7, r8, r9, lr}
  Command.CommandTarget           = FMC_SDRAM_CMD_TARGET_BANK2;
  Command.AutoRefreshNumber       = 1;
  Command.ModeRegisterDefinition  = 0;

  /* Send the command */
  HAL_SDRAM_SendCommand(&hsdram1, &Command, SDRAM_TIMEOUT);
 8001464:	4c23      	ldr	r4, [pc, #140]	; (80014f4 <SDRAM_Initialization_sequence+0x94>)
{
 8001466:	b087      	sub	sp, #28
  Command.CommandTarget           = FMC_SDRAM_CMD_TARGET_BANK2;
 8001468:	2608      	movs	r6, #8
  __IO uint32_t tmpmrd =0;
 800146a:	2700      	movs	r7, #0
  Command.CommandMode             = FMC_SDRAM_CMD_CLK_ENABLE;
 800146c:	2501      	movs	r5, #1
  HAL_SDRAM_SendCommand(&hsdram1, &Command, SDRAM_TIMEOUT);
 800146e:	eb0d 0106 	add.w	r1, sp, r6
{
 8001472:	4681      	mov	r9, r0
  HAL_SDRAM_SendCommand(&hsdram1, &Command, SDRAM_TIMEOUT);
 8001474:	f64f 72ff 	movw	r2, #65535	; 0xffff
 8001478:	4620      	mov	r0, r4
  __IO uint32_t tmpmrd =0;
 800147a:	9701      	str	r7, [sp, #4]
  Command.CommandMode             = FMC_SDRAM_CMD_CLK_ENABLE;
 800147c:	9502      	str	r5, [sp, #8]
  Command.CommandTarget           = FMC_SDRAM_CMD_TARGET_BANK2;
 800147e:	9603      	str	r6, [sp, #12]
  Command.AutoRefreshNumber       = 1;
 8001480:	9504      	str	r5, [sp, #16]
  Command.ModeRegisterDefinition  = 0;
 8001482:	9705      	str	r7, [sp, #20]
  HAL_SDRAM_SendCommand(&hsdram1, &Command, SDRAM_TIMEOUT);
 8001484:	f003 f93f 	bl	8004706 <HAL_SDRAM_SendCommand>

  /* Step 2: Insert 100 us minimum delay */ 
  /* Inserted delay is equal to 1 ms due to systick time base unit (ms) */
  HAL_Delay(100);
 8001488:	2064      	movs	r0, #100	; 0x64
 800148a:	f000 fac7 	bl	8001a1c <HAL_Delay>

  /* Step 3: Configure a PALL (precharge all) command */ 
  Command.CommandMode             = FMC_SDRAM_CMD_PALL;
 800148e:	2302      	movs	r3, #2
  Command.CommandTarget           = FMC_SDRAM_CMD_TARGET_BANK2;
  Command.AutoRefreshNumber       = 1;
  Command.ModeRegisterDefinition  = 0;

  /* Send the command */
  HAL_SDRAM_SendCommand(&hsdram1, &Command, SDRAM_TIMEOUT);
 8001490:	eb0d 0106 	add.w	r1, sp, r6
 8001494:	f64f 72ff 	movw	r2, #65535	; 0xffff
 8001498:	4620      	mov	r0, r4
  Command.CommandMode             = FMC_SDRAM_CMD_PALL;
 800149a:	9302      	str	r3, [sp, #8]
  
  /* Step 4: Configure an Auto Refresh command */ 
  Command.CommandMode             = FMC_SDRAM_CMD_AUTOREFRESH_MODE;
  Command.CommandTarget           = FMC_SDRAM_CMD_TARGET_BANK2;
  Command.AutoRefreshNumber       = 4;
 800149c:	f04f 0804 	mov.w	r8, #4
  Command.CommandTarget           = FMC_SDRAM_CMD_TARGET_BANK2;
 80014a0:	9603      	str	r6, [sp, #12]
  Command.AutoRefreshNumber       = 1;
 80014a2:	9504      	str	r5, [sp, #16]
  Command.ModeRegisterDefinition  = 0;
 80014a4:	9705      	str	r7, [sp, #20]
  HAL_SDRAM_SendCommand(&hsdram1, &Command, SDRAM_TIMEOUT);
 80014a6:	f003 f92e 	bl	8004706 <HAL_SDRAM_SendCommand>
  Command.CommandMode             = FMC_SDRAM_CMD_AUTOREFRESH_MODE;
 80014aa:	2303      	movs	r3, #3
  Command.ModeRegisterDefinition  = 0;

  /* Send the command */
  HAL_SDRAM_SendCommand(&hsdram1, &Command, SDRAM_TIMEOUT);
 80014ac:	eb0d 0106 	add.w	r1, sp, r6
 80014b0:	f64f 72ff 	movw	r2, #65535	; 0xffff
 80014b4:	4620      	mov	r0, r4
  Command.CommandMode             = FMC_SDRAM_CMD_AUTOREFRESH_MODE;
 80014b6:	9302      	str	r3, [sp, #8]
  Command.CommandTarget           = FMC_SDRAM_CMD_TARGET_BANK2;
 80014b8:	9603      	str	r6, [sp, #12]
  Command.AutoRefreshNumber       = 4;
 80014ba:	f8cd 8010 	str.w	r8, [sp, #16]
  Command.ModeRegisterDefinition  = 0;
 80014be:	9705      	str	r7, [sp, #20]
  HAL_SDRAM_SendCommand(&hsdram1, &Command, SDRAM_TIMEOUT);
 80014c0:	f003 f921 	bl	8004706 <HAL_SDRAM_SendCommand>
  
  tmpmrd = (uint32_t)SDRAM_MODEREG_BURST_LENGTH_2          |
 80014c4:	f240 2331 	movw	r3, #561	; 0x231
 80014c8:	9301      	str	r3, [sp, #4]

  
  Command.CommandMode             = FMC_SDRAM_CMD_LOAD_MODE;
  Command.CommandTarget           = FMC_SDRAM_CMD_TARGET_BANK2;
  Command.AutoRefreshNumber       = 1;
  Command.ModeRegisterDefinition  = tmpmrd;
 80014ca:	9b01      	ldr	r3, [sp, #4]
 80014cc:	9305      	str	r3, [sp, #20]

  /* Send the command */
  HAL_SDRAM_SendCommand(&hsdram1, &Command, SDRAM_TIMEOUT);
 80014ce:	f64f 72ff 	movw	r2, #65535	; 0xffff
 80014d2:	eb0d 0106 	add.w	r1, sp, r6
 80014d6:	4620      	mov	r0, r4
  Command.CommandMode             = FMC_SDRAM_CMD_LOAD_MODE;
 80014d8:	f8cd 8008 	str.w	r8, [sp, #8]
  Command.CommandTarget           = FMC_SDRAM_CMD_TARGET_BANK2;
 80014dc:	9603      	str	r6, [sp, #12]
  Command.AutoRefreshNumber       = 1;
 80014de:	9504      	str	r5, [sp, #16]
  HAL_SDRAM_SendCommand(&hsdram1, &Command, SDRAM_TIMEOUT);
 80014e0:	f003 f911 	bl	8004706 <HAL_SDRAM_SendCommand>
  
  /* Step 6: Set the refresh rate counter */
  /* Set the device refresh rate */
  HAL_SDRAM_ProgramRefreshRate(&hsdram1, RefreshCount);
 80014e4:	4649      	mov	r1, r9
 80014e6:	4620      	mov	r0, r4
 80014e8:	f003 f924 	bl	8004734 <HAL_SDRAM_ProgramRefreshRate>
}
 80014ec:	b007      	add	sp, #28
 80014ee:	e8bd 83f0 	ldmia.w	sp!, {r4, r5, r6, r7, r8, r9, pc}
 80014f2:	bf00      	nop
 80014f4:	20000b14 	.word	0x20000b14

080014f8 <ili9341_Init>:
  * @brief  Power on the LCD.
  * @param  None
  * @retval None
  */
void ili9341_Init(void)
{
 80014f8:	b508      	push	{r3, lr}
  /* Initialize ILI9341 low level bus layer ----------------------------------*/
  LCD_IO_Init();
 80014fa:	f000 f9ab 	bl	8001854 <LCD_IO_Init>
  * @param  LCD_Reg: address of the selected register.
  * @retval None
  */
void ili9341_WriteReg(uint8_t LCD_Reg)
{
  LCD_IO_WriteReg(LCD_Reg);
 80014fe:	20ca      	movs	r0, #202	; 0xca
 8001500:	f000 fa20 	bl	8001944 <LCD_IO_WriteReg>
  * @param  LCD_Reg: address of the selected register.
  * @retval None
  */
void ili9341_WriteData(uint16_t RegValue)
{
  LCD_IO_WriteData(RegValue);
 8001504:	20c3      	movs	r0, #195	; 0xc3
 8001506:	f000 fa01 	bl	800190c <LCD_IO_WriteData>
 800150a:	2008      	movs	r0, #8
 800150c:	f000 f9fe 	bl	800190c <LCD_IO_WriteData>
 8001510:	2050      	movs	r0, #80	; 0x50
 8001512:	f000 f9fb 	bl	800190c <LCD_IO_WriteData>
  LCD_IO_WriteReg(LCD_Reg);
 8001516:	20cf      	movs	r0, #207	; 0xcf
 8001518:	f000 fa14 	bl	8001944 <LCD_IO_WriteReg>
  LCD_IO_WriteData(RegValue);
 800151c:	2000      	movs	r0, #0
 800151e:	f000 f9f5 	bl	800190c <LCD_IO_WriteData>
 8001522:	20c1      	movs	r0, #193	; 0xc1
 8001524:	f000 f9f2 	bl	800190c <LCD_IO_WriteData>
 8001528:	2030      	movs	r0, #48	; 0x30
 800152a:	f000 f9ef 	bl	800190c <LCD_IO_WriteData>
  LCD_IO_WriteReg(LCD_Reg);
 800152e:	20ed      	movs	r0, #237	; 0xed
 8001530:	f000 fa08 	bl	8001944 <LCD_IO_WriteReg>
  LCD_IO_WriteData(RegValue);
 8001534:	2064      	movs	r0, #100	; 0x64
 8001536:	f000 f9e9 	bl	800190c <LCD_IO_WriteData>
 800153a:	2003      	movs	r0, #3
 800153c:	f000 f9e6 	bl	800190c <LCD_IO_WriteData>
 8001540:	2012      	movs	r0, #18
 8001542:	f000 f9e3 	bl	800190c <LCD_IO_WriteData>
 8001546:	2081      	movs	r0, #129	; 0x81
 8001548:	f000 f9e0 	bl	800190c <LCD_IO_WriteData>
  LCD_IO_WriteReg(LCD_Reg);
 800154c:	20e8      	movs	r0, #232	; 0xe8
 800154e:	f000 f9f9 	bl	8001944 <LCD_IO_WriteReg>
  LCD_IO_WriteData(RegValue);
 8001552:	2085      	movs	r0, #133	; 0x85
 8001554:	f000 f9da 	bl	800190c <LCD_IO_WriteData>
 8001558:	2000      	movs	r0, #0
 800155a:	f000 f9d7 	bl	800190c <LCD_IO_WriteData>
 800155e:	2078      	movs	r0, #120	; 0x78
 8001560:	f000 f9d4 	bl	800190c <LCD_IO_WriteData>
  LCD_IO_WriteReg(LCD_Reg);
 8001564:	20cb      	movs	r0, #203	; 0xcb
 8001566:	f000 f9ed 	bl	8001944 <LCD_IO_WriteReg>
  LCD_IO_WriteData(RegValue);
 800156a:	2039      	movs	r0, #57	; 0x39
 800156c:	f000 f9ce 	bl	800190c <LCD_IO_WriteData>
 8001570:	202c      	movs	r0, #44	; 0x2c
 8001572:	f000 f9cb 	bl	800190c <LCD_IO_WriteData>
 8001576:	2000      	movs	r0, #0
 8001578:	f000 f9c8 	bl	800190c <LCD_IO_WriteData>
 800157c:	2034      	movs	r0, #52	; 0x34
 800157e:	f000 f9c5 	bl	800190c <LCD_IO_WriteData>
 8001582:	2002      	movs	r0, #2
 8001584:	f000 f9c2 	bl	800190c <LCD_IO_WriteData>
  LCD_IO_WriteReg(LCD_Reg);
 8001588:	20f7      	movs	r0, #247	; 0xf7
 800158a:	f000 f9db 	bl	8001944 <LCD_IO_WriteReg>
  LCD_IO_WriteData(RegValue);
 800158e:	2020      	movs	r0, #32
 8001590:	f000 f9bc 	bl	800190c <LCD_IO_WriteData>
  LCD_IO_WriteReg(LCD_Reg);
 8001594:	20ea      	movs	r0, #234	; 0xea
 8001596:	f000 f9d5 	bl	8001944 <LCD_IO_WriteReg>
  LCD_IO_WriteData(RegValue);
 800159a:	2000      	movs	r0, #0
 800159c:	f000 f9b6 	bl	800190c <LCD_IO_WriteData>
 80015a0:	2000      	movs	r0, #0
 80015a2:	f000 f9b3 	bl	800190c <LCD_IO_WriteData>
  LCD_IO_WriteReg(LCD_Reg);
 80015a6:	20b1      	movs	r0, #177	; 0xb1
 80015a8:	f000 f9cc 	bl	8001944 <LCD_IO_WriteReg>
  LCD_IO_WriteData(RegValue);
 80015ac:	2000      	movs	r0, #0
 80015ae:	f000 f9ad 	bl	800190c <LCD_IO_WriteData>
 80015b2:	201b      	movs	r0, #27
 80015b4:	f000 f9aa 	bl	800190c <LCD_IO_WriteData>
  LCD_IO_WriteReg(LCD_Reg);
 80015b8:	20b6      	movs	r0, #182	; 0xb6
 80015ba:	f000 f9c3 	bl	8001944 <LCD_IO_WriteReg>
  LCD_IO_WriteData(RegValue);
 80015be:	200a      	movs	r0, #10
 80015c0:	f000 f9a4 	bl	800190c <LCD_IO_WriteData>
 80015c4:	20a2      	movs	r0, #162	; 0xa2
 80015c6:	f000 f9a1 	bl	800190c <LCD_IO_WriteData>
  LCD_IO_WriteReg(LCD_Reg);
 80015ca:	20c0      	movs	r0, #192	; 0xc0
 80015cc:	f000 f9ba 	bl	8001944 <LCD_IO_WriteReg>
  LCD_IO_WriteData(RegValue);
 80015d0:	2010      	movs	r0, #16
 80015d2:	f000 f99b 	bl	800190c <LCD_IO_WriteData>
  LCD_IO_WriteReg(LCD_Reg);
 80015d6:	20c1      	movs	r0, #193	; 0xc1
 80015d8:	f000 f9b4 	bl	8001944 <LCD_IO_WriteReg>
  LCD_IO_WriteData(RegValue);
 80015dc:	2010      	movs	r0, #16
 80015de:	f000 f995 	bl	800190c <LCD_IO_WriteData>
  LCD_IO_WriteReg(LCD_Reg);
 80015e2:	20c5      	movs	r0, #197	; 0xc5
 80015e4:	f000 f9ae 	bl	8001944 <LCD_IO_WriteReg>
  LCD_IO_WriteData(RegValue);
 80015e8:	2045      	movs	r0, #69	; 0x45
 80015ea:	f000 f98f 	bl	800190c <LCD_IO_WriteData>
 80015ee:	2015      	movs	r0, #21
 80015f0:	f000 f98c 	bl	800190c <LCD_IO_WriteData>
  LCD_IO_WriteReg(LCD_Reg);
 80015f4:	20c7      	movs	r0, #199	; 0xc7
 80015f6:	f000 f9a5 	bl	8001944 <LCD_IO_WriteReg>
  LCD_IO_WriteData(RegValue);
 80015fa:	2090      	movs	r0, #144	; 0x90
 80015fc:	f000 f986 	bl	800190c <LCD_IO_WriteData>
  LCD_IO_WriteReg(LCD_Reg);
 8001600:	2036      	movs	r0, #54	; 0x36
 8001602:	f000 f99f 	bl	8001944 <LCD_IO_WriteReg>
  LCD_IO_WriteData(RegValue);
 8001606:	20c8      	movs	r0, #200	; 0xc8
 8001608:	f000 f980 	bl	800190c <LCD_IO_WriteData>
  LCD_IO_WriteReg(LCD_Reg);
 800160c:	20f2      	movs	r0, #242	; 0xf2
 800160e:	f000 f999 	bl	8001944 <LCD_IO_WriteReg>
  LCD_IO_WriteData(RegValue);
 8001612:	2000      	movs	r0, #0
 8001614:	f000 f97a 	bl	800190c <LCD_IO_WriteData>
  LCD_IO_WriteReg(LCD_Reg);
 8001618:	20b0      	movs	r0, #176	; 0xb0
 800161a:	f000 f993 	bl	8001944 <LCD_IO_WriteReg>
  LCD_IO_WriteData(RegValue);
 800161e:	20c2      	movs	r0, #194	; 0xc2
 8001620:	f000 f974 	bl	800190c <LCD_IO_WriteData>
  LCD_IO_WriteReg(LCD_Reg);
 8001624:	20b6      	movs	r0, #182	; 0xb6
 8001626:	f000 f98d 	bl	8001944 <LCD_IO_WriteReg>
  LCD_IO_WriteData(RegValue);
 800162a:	200a      	movs	r0, #10
 800162c:	f000 f96e 	bl	800190c <LCD_IO_WriteData>
 8001630:	20a7      	movs	r0, #167	; 0xa7
 8001632:	f000 f96b 	bl	800190c <LCD_IO_WriteData>
 8001636:	2027      	movs	r0, #39	; 0x27
 8001638:	f000 f968 	bl	800190c <LCD_IO_WriteData>
 800163c:	2004      	movs	r0, #4
 800163e:	f000 f965 	bl	800190c <LCD_IO_WriteData>
  LCD_IO_WriteReg(LCD_Reg);
 8001642:	202a      	movs	r0, #42	; 0x2a
 8001644:	f000 f97e 	bl	8001944 <LCD_IO_WriteReg>
  LCD_IO_WriteData(RegValue);
 8001648:	2000      	movs	r0, #0
 800164a:	f000 f95f 	bl	800190c <LCD_IO_WriteData>
 800164e:	2000      	movs	r0, #0
 8001650:	f000 f95c 	bl	800190c <LCD_IO_WriteData>
 8001654:	2000      	movs	r0, #0
 8001656:	f000 f959 	bl	800190c <LCD_IO_WriteData>
 800165a:	20ef      	movs	r0, #239	; 0xef
 800165c:	f000 f956 	bl	800190c <LCD_IO_WriteData>
  LCD_IO_WriteReg(LCD_Reg);
 8001660:	202b      	movs	r0, #43	; 0x2b
 8001662:	f000 f96f 	bl	8001944 <LCD_IO_WriteReg>
  LCD_IO_WriteData(RegValue);
 8001666:	2000      	movs	r0, #0
 8001668:	f000 f950 	bl	800190c <LCD_IO_WriteData>
 800166c:	2000      	movs	r0, #0
 800166e:	f000 f94d 	bl	800190c <LCD_IO_WriteData>
 8001672:	2001      	movs	r0, #1
 8001674:	f000 f94a 	bl	800190c <LCD_IO_WriteData>
 8001678:	203f      	movs	r0, #63	; 0x3f
 800167a:	f000 f947 	bl	800190c <LCD_IO_WriteData>
  LCD_IO_WriteReg(LCD_Reg);
 800167e:	20f6      	movs	r0, #246	; 0xf6
 8001680:	f000 f960 	bl	8001944 <LCD_IO_WriteReg>
  LCD_IO_WriteData(RegValue);
 8001684:	2001      	movs	r0, #1
 8001686:	f000 f941 	bl	800190c <LCD_IO_WriteData>
 800168a:	2000      	movs	r0, #0
 800168c:	f000 f93e 	bl	800190c <LCD_IO_WriteData>
 8001690:	2006      	movs	r0, #6
 8001692:	f000 f93b 	bl	800190c <LCD_IO_WriteData>
  LCD_IO_WriteReg(LCD_Reg);
 8001696:	202c      	movs	r0, #44	; 0x2c
 8001698:	f000 f954 	bl	8001944 <LCD_IO_WriteReg>
  LCD_Delay(200);
 800169c:	20c8      	movs	r0, #200	; 0xc8
 800169e:	f000 f96d 	bl	800197c <LCD_Delay>
  LCD_IO_WriteReg(LCD_Reg);
 80016a2:	2026      	movs	r0, #38	; 0x26
 80016a4:	f000 f94e 	bl	8001944 <LCD_IO_WriteReg>
  LCD_IO_WriteData(RegValue);
 80016a8:	2001      	movs	r0, #1
 80016aa:	f000 f92f 	bl	800190c <LCD_IO_WriteData>
  LCD_IO_WriteReg(LCD_Reg);
 80016ae:	20e0      	movs	r0, #224	; 0xe0
 80016b0:	f000 f948 	bl	8001944 <LCD_IO_WriteReg>
  LCD_IO_WriteData(RegValue);
 80016b4:	200f      	movs	r0, #15
 80016b6:	f000 f929 	bl	800190c <LCD_IO_WriteData>
 80016ba:	2029      	movs	r0, #41	; 0x29
 80016bc:	f000 f926 	bl	800190c <LCD_IO_WriteData>
 80016c0:	2024      	movs	r0, #36	; 0x24
 80016c2:	f000 f923 	bl	800190c <LCD_IO_WriteData>
 80016c6:	200c      	movs	r0, #12
 80016c8:	f000 f920 	bl	800190c <LCD_IO_WriteData>
 80016cc:	200e      	movs	r0, #14
 80016ce:	f000 f91d 	bl	800190c <LCD_IO_WriteData>
 80016d2:	2009      	movs	r0, #9
 80016d4:	f000 f91a 	bl	800190c <LCD_IO_WriteData>
 80016d8:	204e      	movs	r0, #78	; 0x4e
 80016da:	f000 f917 	bl	800190c <LCD_IO_WriteData>
 80016de:	2078      	movs	r0, #120	; 0x78
 80016e0:	f000 f914 	bl	800190c <LCD_IO_WriteData>
 80016e4:	203c      	movs	r0, #60	; 0x3c
 80016e6:	f000 f911 	bl	800190c <LCD_IO_WriteData>
 80016ea:	2009      	movs	r0, #9
 80016ec:	f000 f90e 	bl	800190c <LCD_IO_WriteData>
 80016f0:	2013      	movs	r0, #19
 80016f2:	f000 f90b 	bl	800190c <LCD_IO_WriteData>
 80016f6:	2005      	movs	r0, #5
 80016f8:	f000 f908 	bl	800190c <LCD_IO_WriteData>
 80016fc:	2017      	movs	r0, #23
 80016fe:	f000 f905 	bl	800190c <LCD_IO_WriteData>
 8001702:	2011      	movs	r0, #17
 8001704:	f000 f902 	bl	800190c <LCD_IO_WriteData>
 8001708:	2000      	movs	r0, #0
 800170a:	f000 f8ff 	bl	800190c <LCD_IO_WriteData>
  LCD_IO_WriteReg(LCD_Reg);
 800170e:	20e1      	movs	r0, #225	; 0xe1
 8001710:	f000 f918 	bl	8001944 <LCD_IO_WriteReg>
  LCD_IO_WriteData(RegValue);
 8001714:	2000      	movs	r0, #0
 8001716:	f000 f8f9 	bl	800190c <LCD_IO_WriteData>
 800171a:	2016      	movs	r0, #22
 800171c:	f000 f8f6 	bl	800190c <LCD_IO_WriteData>
 8001720:	201b      	movs	r0, #27
 8001722:	f000 f8f3 	bl	800190c <LCD_IO_WriteData>
 8001726:	2004      	movs	r0, #4
 8001728:	f000 f8f0 	bl	800190c <LCD_IO_WriteData>
 800172c:	2011      	movs	r0, #17
 800172e:	f000 f8ed 	bl	800190c <LCD_IO_WriteData>
 8001732:	2007      	movs	r0, #7
 8001734:	f000 f8ea 	bl	800190c <LCD_IO_WriteData>
 8001738:	2031      	movs	r0, #49	; 0x31
 800173a:	f000 f8e7 	bl	800190c <LCD_IO_WriteData>
 800173e:	2033      	movs	r0, #51	; 0x33
 8001740:	f000 f8e4 	bl	800190c <LCD_IO_WriteData>
 8001744:	2042      	movs	r0, #66	; 0x42
 8001746:	f000 f8e1 	bl	800190c <LCD_IO_WriteData>
 800174a:	2005      	movs	r0, #5
 800174c:	f000 f8de 	bl	800190c <LCD_IO_WriteData>
 8001750:	200c      	movs	r0, #12
 8001752:	f000 f8db 	bl	800190c <LCD_IO_WriteData>
 8001756:	200a      	movs	r0, #10
 8001758:	f000 f8d8 	bl	800190c <LCD_IO_WriteData>
 800175c:	2028      	movs	r0, #40	; 0x28
 800175e:	f000 f8d5 	bl	800190c <LCD_IO_WriteData>
 8001762:	202f      	movs	r0, #47	; 0x2f
 8001764:	f000 f8d2 	bl	800190c <LCD_IO_WriteData>
 8001768:	200f      	movs	r0, #15
 800176a:	f000 f8cf 	bl	800190c <LCD_IO_WriteData>
  LCD_IO_WriteReg(LCD_Reg);
 800176e:	2011      	movs	r0, #17
 8001770:	f000 f8e8 	bl	8001944 <LCD_IO_WriteReg>
  LCD_Delay(200);
 8001774:	20c8      	movs	r0, #200	; 0xc8
 8001776:	f000 f901 	bl	800197c <LCD_Delay>
  LCD_IO_WriteReg(LCD_Reg);
 800177a:	2029      	movs	r0, #41	; 0x29
 800177c:	f000 f8e2 	bl	8001944 <LCD_IO_WriteReg>
 8001780:	202c      	movs	r0, #44	; 0x2c
}
 8001782:	e8bd 4008 	ldmia.w	sp!, {r3, lr}
  LCD_IO_WriteReg(LCD_Reg);
 8001786:	f000 b8dd 	b.w	8001944 <LCD_IO_WriteReg>
	...

0800178c <SPIx_Init>:

/**
  * @brief  SPIx Bus initialization
  */
static void SPIx_Init(void)
{
 800178c:	b510      	push	{r4, lr}
  if(HAL_SPI_GetState(&SpiHandle) == HAL_SPI_STATE_RESET)
 800178e:	4c21      	ldr	r4, [pc, #132]	; (8001814 <SPIx_Init+0x88>)
{
 8001790:	b088      	sub	sp, #32
  if(HAL_SPI_GetState(&SpiHandle) == HAL_SPI_STATE_RESET)
 8001792:	4620      	mov	r0, r4
 8001794:	f003 f9e0 	bl	8004b58 <HAL_SPI_GetState>
 8001798:	2800      	cmp	r0, #0
 800179a:	d138      	bne.n	800180e <SPIx_Init+0x82>
  {
    /* SPI configuration -----------------------------------------------------*/
    SpiHandle.Instance = DISCOVERY_SPIx;
 800179c:	4b1e      	ldr	r3, [pc, #120]	; (8001818 <SPIx_Init+0x8c>)
 800179e:	6023      	str	r3, [r4, #0]
       to verify these constraints:
       - ILI9341 LCD SPI interface max baudrate is 10MHz for write and 6.66MHz for read
       - l3gd20 SPI interface max baudrate is 10MHz for write/read
       - PCLK2 frequency is set to 90 MHz 
    */  
    SpiHandle.Init.BaudRatePrescaler = SPI_BAUDRATEPRESCALER_16;
 80017a0:	2318      	movs	r3, #24
 80017a2:	61e3      	str	r3, [r4, #28]
    /* Note: To read a register a LCD, SPI_DIRECTION_1LINE should be set */
    SpiHandle.Init.Direction      = SPI_DIRECTION_2LINES;
    SpiHandle.Init.CLKPhase       = SPI_PHASE_1EDGE;
    SpiHandle.Init.CLKPolarity    = SPI_POLARITY_LOW;
    SpiHandle.Init.CRCCalculation = SPI_CRCCALCULATION_DISABLED;
    SpiHandle.Init.CRCPolynomial  = 7;
 80017a4:	2307      	movs	r3, #7
 80017a6:	62e3      	str	r3, [r4, #44]	; 0x2c
    SpiHandle.Init.DataSize       = SPI_DATASIZE_8BIT;
    SpiHandle.Init.FirstBit       = SPI_FIRSTBIT_MSB;
    SpiHandle.Init.NSS            = SPI_NSS_SOFT;
 80017a8:	f44f 7300 	mov.w	r3, #512	; 0x200
 80017ac:	61a3      	str	r3, [r4, #24]
    SpiHandle.Init.TIMode         = SPI_TIMODE_DISABLED;
    SpiHandle.Init.Mode           = SPI_MODE_MASTER;
 80017ae:	f44f 7382 	mov.w	r3, #260	; 0x104
 80017b2:	6063      	str	r3, [r4, #4]
static void SPIx_MspInit(SPI_HandleTypeDef *hspi)
{
  GPIO_InitTypeDef   GPIO_InitStructure;

  /* Enable SPIx clock */
  DISCOVERY_SPIx_CLK_ENABLE();
 80017b4:	4b19      	ldr	r3, [pc, #100]	; (800181c <SPIx_Init+0x90>)
 80017b6:	9001      	str	r0, [sp, #4]
    SpiHandle.Init.Direction      = SPI_DIRECTION_2LINES;
 80017b8:	60a0      	str	r0, [r4, #8]
    SpiHandle.Init.CLKPhase       = SPI_PHASE_1EDGE;
 80017ba:	6160      	str	r0, [r4, #20]
    SpiHandle.Init.CLKPolarity    = SPI_POLARITY_LOW;
 80017bc:	6120      	str	r0, [r4, #16]
    SpiHandle.Init.CRCCalculation = SPI_CRCCALCULATION_DISABLED;
 80017be:	62a0      	str	r0, [r4, #40]	; 0x28
    SpiHandle.Init.DataSize       = SPI_DATASIZE_8BIT;
 80017c0:	60e0      	str	r0, [r4, #12]
    SpiHandle.Init.FirstBit       = SPI_FIRSTBIT_MSB;
 80017c2:	6220      	str	r0, [r4, #32]
    SpiHandle.Init.TIMode         = SPI_TIMODE_DISABLED;
 80017c4:	6260      	str	r0, [r4, #36]	; 0x24
  DISCOVERY_SPIx_CLK_ENABLE();
 80017c6:	6c5a      	ldr	r2, [r3, #68]	; 0x44
 80017c8:	f442 1280 	orr.w	r2, r2, #1048576	; 0x100000
 80017cc:	645a      	str	r2, [r3, #68]	; 0x44
 80017ce:	6c5a      	ldr	r2, [r3, #68]	; 0x44
 80017d0:	f402 1280 	and.w	r2, r2, #1048576	; 0x100000
 80017d4:	9201      	str	r2, [sp, #4]
 80017d6:	9a01      	ldr	r2, [sp, #4]

  /* Enable DISCOVERY_SPI GPIO clock */
  DISCOVERY_SPIx_GPIO_CLK_ENABLE();
 80017d8:	9002      	str	r0, [sp, #8]
 80017da:	6b1a      	ldr	r2, [r3, #48]	; 0x30
  GPIO_InitStructure.Pin    = (DISCOVERY_SPIx_SCK_PIN | DISCOVERY_SPIx_MOSI_PIN | DISCOVERY_SPIx_MISO_PIN);
  GPIO_InitStructure.Mode   = GPIO_MODE_AF_PP;
  GPIO_InitStructure.Pull   = GPIO_PULLDOWN;
  GPIO_InitStructure.Speed  = GPIO_SPEED_MEDIUM;
  GPIO_InitStructure.Alternate = DISCOVERY_SPIx_AF;
  HAL_GPIO_Init(DISCOVERY_SPIx_GPIO_PORT, &GPIO_InitStructure);      
 80017dc:	4810      	ldr	r0, [pc, #64]	; (8001820 <SPIx_Init+0x94>)
  DISCOVERY_SPIx_GPIO_CLK_ENABLE();
 80017de:	f042 0220 	orr.w	r2, r2, #32
 80017e2:	631a      	str	r2, [r3, #48]	; 0x30
 80017e4:	6b1b      	ldr	r3, [r3, #48]	; 0x30
 80017e6:	f003 0320 	and.w	r3, r3, #32
 80017ea:	9302      	str	r3, [sp, #8]
 80017ec:	9b02      	ldr	r3, [sp, #8]
  GPIO_InitStructure.Pin    = (DISCOVERY_SPIx_SCK_PIN | DISCOVERY_SPIx_MOSI_PIN | DISCOVERY_SPIx_MISO_PIN);
 80017ee:	f44f 7360 	mov.w	r3, #896	; 0x380
 80017f2:	9303      	str	r3, [sp, #12]
  GPIO_InitStructure.Mode   = GPIO_MODE_AF_PP;
 80017f4:	2302      	movs	r3, #2
 80017f6:	9304      	str	r3, [sp, #16]
  GPIO_InitStructure.Pull   = GPIO_PULLDOWN;
 80017f8:	9305      	str	r3, [sp, #20]
  GPIO_InitStructure.Speed  = GPIO_SPEED_MEDIUM;
 80017fa:	2301      	movs	r3, #1
 80017fc:	9306      	str	r3, [sp, #24]
  HAL_GPIO_Init(DISCOVERY_SPIx_GPIO_PORT, &GPIO_InitStructure);      
 80017fe:	a903      	add	r1, sp, #12
  GPIO_InitStructure.Alternate = DISCOVERY_SPIx_AF;
 8001800:	2305      	movs	r3, #5
 8001802:	9307      	str	r3, [sp, #28]
  HAL_GPIO_Init(DISCOVERY_SPIx_GPIO_PORT, &GPIO_InitStructure);      
 8001804:	f000 fffc 	bl	8002800 <HAL_GPIO_Init>
    HAL_SPI_Init(&SpiHandle);
 8001808:	4620      	mov	r0, r4
 800180a:	f002 fffd 	bl	8004808 <HAL_SPI_Init>
}
 800180e:	b008      	add	sp, #32
 8001810:	bd10      	pop	{r4, pc}
 8001812:	bf00      	nop
 8001814:	200004a4 	.word	0x200004a4
 8001818:	40015000 	.word	0x40015000
 800181c:	40023800 	.word	0x40023800
 8001820:	40021400 	.word	0x40021400

08001824 <SPIx_Write>:
{
 8001824:	b507      	push	{r0, r1, r2, lr}
  status = HAL_SPI_Transmit(&SpiHandle, (uint8_t*) &Value, 1, SpixTimeout);
 8001826:	4b09      	ldr	r3, [pc, #36]	; (800184c <SPIx_Write+0x28>)
{
 8001828:	a902      	add	r1, sp, #8
  status = HAL_SPI_Transmit(&SpiHandle, (uint8_t*) &Value, 1, SpixTimeout);
 800182a:	681b      	ldr	r3, [r3, #0]
{
 800182c:	f821 0d02 	strh.w	r0, [r1, #-2]!
  status = HAL_SPI_Transmit(&SpiHandle, (uint8_t*) &Value, 1, SpixTimeout);
 8001830:	2201      	movs	r2, #1
 8001832:	4807      	ldr	r0, [pc, #28]	; (8001850 <SPIx_Write+0x2c>)
 8001834:	f003 f8dc 	bl	80049f0 <HAL_SPI_Transmit>
  if(status != HAL_OK)
 8001838:	b120      	cbz	r0, 8001844 <SPIx_Write+0x20>
  HAL_SPI_DeInit(&SpiHandle);
 800183a:	4805      	ldr	r0, [pc, #20]	; (8001850 <SPIx_Write+0x2c>)
 800183c:	f003 f8a0 	bl	8004980 <HAL_SPI_DeInit>
  SPIx_Init();
 8001840:	f7ff ffa4 	bl	800178c <SPIx_Init>
}
 8001844:	b003      	add	sp, #12
 8001846:	f85d fb04 	ldr.w	pc, [sp], #4
 800184a:	bf00      	nop
 800184c:	20000404 	.word	0x20000404
 8001850:	200004a4 	.word	0x200004a4

08001854 <LCD_IO_Init>:

/**
  * @brief  Configures the LCD_SPI interface.
  */
void LCD_IO_Init(void)
{
 8001854:	b5f0      	push	{r4, r5, r6, r7, lr}
  GPIO_InitTypeDef GPIO_InitStructure;
  
  if(Is_LCD_IO_Initialized == 0)
 8001856:	4b29      	ldr	r3, [pc, #164]	; (80018fc <LCD_IO_Init+0xa8>)
 8001858:	781d      	ldrb	r5, [r3, #0]
{
 800185a:	b089      	sub	sp, #36	; 0x24
  if(Is_LCD_IO_Initialized == 0)
 800185c:	2d00      	cmp	r5, #0
 800185e:	d14a      	bne.n	80018f6 <LCD_IO_Init+0xa2>
  {
    Is_LCD_IO_Initialized = 1; 
    
    /* Configure NCS in Output Push-Pull mode */
    LCD_WRX_GPIO_CLK_ENABLE();
 8001860:	4c27      	ldr	r4, [pc, #156]	; (8001900 <LCD_IO_Init+0xac>)
 8001862:	9500      	str	r5, [sp, #0]
    Is_LCD_IO_Initialized = 1; 
 8001864:	2601      	movs	r6, #1
 8001866:	701e      	strb	r6, [r3, #0]
    LCD_WRX_GPIO_CLK_ENABLE();
 8001868:	6b23      	ldr	r3, [r4, #48]	; 0x30
    GPIO_InitStructure.Pin     = LCD_WRX_PIN;
    GPIO_InitStructure.Mode    = GPIO_MODE_OUTPUT_PP;
    GPIO_InitStructure.Pull    = GPIO_NOPULL;
    GPIO_InitStructure.Speed   = GPIO_SPEED_FAST;
    HAL_GPIO_Init(LCD_WRX_GPIO_PORT, &GPIO_InitStructure);
 800186a:	4826      	ldr	r0, [pc, #152]	; (8001904 <LCD_IO_Init+0xb0>)
    LCD_WRX_GPIO_CLK_ENABLE();
 800186c:	f043 0308 	orr.w	r3, r3, #8
 8001870:	6323      	str	r3, [r4, #48]	; 0x30
 8001872:	6b23      	ldr	r3, [r4, #48]	; 0x30
    GPIO_InitStructure.Mode    = GPIO_MODE_OUTPUT_PP;
 8001874:	9604      	str	r6, [sp, #16]
    LCD_WRX_GPIO_CLK_ENABLE();
 8001876:	f003 0308 	and.w	r3, r3, #8
 800187a:	9300      	str	r3, [sp, #0]
    GPIO_InitStructure.Speed   = GPIO_SPEED_FAST;
 800187c:	2702      	movs	r7, #2
    LCD_WRX_GPIO_CLK_ENABLE();
 800187e:	9b00      	ldr	r3, [sp, #0]
    GPIO_InitStructure.Pull    = GPIO_NOPULL;
 8001880:	9505      	str	r5, [sp, #20]
    GPIO_InitStructure.Pin     = LCD_WRX_PIN;
 8001882:	f44f 5300 	mov.w	r3, #8192	; 0x2000
    HAL_GPIO_Init(LCD_WRX_GPIO_PORT, &GPIO_InitStructure);
 8001886:	a903      	add	r1, sp, #12
    GPIO_InitStructure.Pin     = LCD_WRX_PIN;
 8001888:	9303      	str	r3, [sp, #12]
    GPIO_InitStructure.Speed   = GPIO_SPEED_FAST;
 800188a:	9706      	str	r7, [sp, #24]
    HAL_GPIO_Init(LCD_WRX_GPIO_PORT, &GPIO_InitStructure);
 800188c:	f000 ffb8 	bl	8002800 <HAL_GPIO_Init>
    
    LCD_RDX_GPIO_CLK_ENABLE();
 8001890:	9501      	str	r5, [sp, #4]
 8001892:	6b23      	ldr	r3, [r4, #48]	; 0x30
    GPIO_InitStructure.Pin     = LCD_RDX_PIN;
    GPIO_InitStructure.Mode    = GPIO_MODE_OUTPUT_PP;
    GPIO_InitStructure.Pull    = GPIO_NOPULL;
    GPIO_InitStructure.Speed   = GPIO_SPEED_FAST;
    HAL_GPIO_Init(LCD_RDX_GPIO_PORT, &GPIO_InitStructure);
 8001894:	481b      	ldr	r0, [pc, #108]	; (8001904 <LCD_IO_Init+0xb0>)
    LCD_RDX_GPIO_CLK_ENABLE();
 8001896:	f043 0308 	orr.w	r3, r3, #8
 800189a:	6323      	str	r3, [r4, #48]	; 0x30
 800189c:	6b23      	ldr	r3, [r4, #48]	; 0x30
    GPIO_InitStructure.Mode    = GPIO_MODE_OUTPUT_PP;
 800189e:	9604      	str	r6, [sp, #16]
    LCD_RDX_GPIO_CLK_ENABLE();
 80018a0:	f003 0308 	and.w	r3, r3, #8
 80018a4:	9301      	str	r3, [sp, #4]
 80018a6:	9b01      	ldr	r3, [sp, #4]
    GPIO_InitStructure.Pull    = GPIO_NOPULL;
 80018a8:	9505      	str	r5, [sp, #20]
    GPIO_InitStructure.Pin     = LCD_RDX_PIN;
 80018aa:	f44f 5380 	mov.w	r3, #4096	; 0x1000
    HAL_GPIO_Init(LCD_RDX_GPIO_PORT, &GPIO_InitStructure);
 80018ae:	a903      	add	r1, sp, #12
    GPIO_InitStructure.Pin     = LCD_RDX_PIN;
 80018b0:	9303      	str	r3, [sp, #12]
    GPIO_InitStructure.Speed   = GPIO_SPEED_FAST;
 80018b2:	9706      	str	r7, [sp, #24]
    HAL_GPIO_Init(LCD_RDX_GPIO_PORT, &GPIO_InitStructure);
 80018b4:	f000 ffa4 	bl	8002800 <HAL_GPIO_Init>
    
    /* Configure the LCD Control pins ----------------------------------------*/
    LCD_NCS_GPIO_CLK_ENABLE();
 80018b8:	9502      	str	r5, [sp, #8]
 80018ba:	6b23      	ldr	r3, [r4, #48]	; 0x30
    /* Configure NCS in Output Push-Pull mode */
    GPIO_InitStructure.Pin     = LCD_NCS_PIN;
    GPIO_InitStructure.Mode    = GPIO_MODE_OUTPUT_PP;
    GPIO_InitStructure.Pull    = GPIO_NOPULL;
    GPIO_InitStructure.Speed   = GPIO_SPEED_FAST;
    HAL_GPIO_Init(LCD_NCS_GPIO_PORT, &GPIO_InitStructure);
 80018bc:	4812      	ldr	r0, [pc, #72]	; (8001908 <LCD_IO_Init+0xb4>)
    LCD_NCS_GPIO_CLK_ENABLE();
 80018be:	f043 0304 	orr.w	r3, r3, #4
 80018c2:	6323      	str	r3, [r4, #48]	; 0x30
 80018c4:	6b23      	ldr	r3, [r4, #48]	; 0x30
    GPIO_InitStructure.Mode    = GPIO_MODE_OUTPUT_PP;
 80018c6:	9604      	str	r6, [sp, #16]
    LCD_NCS_GPIO_CLK_ENABLE();
 80018c8:	f003 0304 	and.w	r3, r3, #4
    GPIO_InitStructure.Pin     = LCD_NCS_PIN;
 80018cc:	2404      	movs	r4, #4
    LCD_NCS_GPIO_CLK_ENABLE();
 80018ce:	9302      	str	r3, [sp, #8]
    HAL_GPIO_Init(LCD_NCS_GPIO_PORT, &GPIO_InitStructure);
 80018d0:	a903      	add	r1, sp, #12
    LCD_NCS_GPIO_CLK_ENABLE();
 80018d2:	9b02      	ldr	r3, [sp, #8]
    GPIO_InitStructure.Pin     = LCD_NCS_PIN;
 80018d4:	9403      	str	r4, [sp, #12]
    GPIO_InitStructure.Pull    = GPIO_NOPULL;
 80018d6:	9505      	str	r5, [sp, #20]
    GPIO_InitStructure.Speed   = GPIO_SPEED_FAST;
 80018d8:	9706      	str	r7, [sp, #24]
    HAL_GPIO_Init(LCD_NCS_GPIO_PORT, &GPIO_InitStructure);
 80018da:	f000 ff91 	bl	8002800 <HAL_GPIO_Init>
    
    /* Set or Reset the control line */
    LCD_CS_LOW();
 80018de:	462a      	mov	r2, r5
 80018e0:	4621      	mov	r1, r4
 80018e2:	4809      	ldr	r0, [pc, #36]	; (8001908 <LCD_IO_Init+0xb4>)
 80018e4:	f001 f9c2 	bl	8002c6c <HAL_GPIO_WritePin>
    LCD_CS_HIGH();
 80018e8:	4632      	mov	r2, r6
 80018ea:	4621      	mov	r1, r4
 80018ec:	4806      	ldr	r0, [pc, #24]	; (8001908 <LCD_IO_Init+0xb4>)
 80018ee:	f001 f9bd 	bl	8002c6c <HAL_GPIO_WritePin>
    
    SPIx_Init();
 80018f2:	f7ff ff4b 	bl	800178c <SPIx_Init>
  }
}
 80018f6:	b009      	add	sp, #36	; 0x24
 80018f8:	bdf0      	pop	{r4, r5, r6, r7, pc}
 80018fa:	bf00      	nop
 80018fc:	200004a2 	.word	0x200004a2
 8001900:	40023800 	.word	0x40023800
 8001904:	40020c00 	.word	0x40020c00
 8001908:	40020800 	.word	0x40020800

0800190c <LCD_IO_WriteData>:

/**
  * @brief  Writes register value.
  */
void LCD_IO_WriteData(uint16_t RegValue) 
{
 800190c:	b538      	push	{r3, r4, r5, lr}
  /* Set WRX to send data */
  LCD_WRX_HIGH();
  
  /* Reset LCD control line(/CS) and Send data */  
  LCD_CS_LOW();
 800190e:	4c0b      	ldr	r4, [pc, #44]	; (800193c <LCD_IO_WriteData+0x30>)
{
 8001910:	4605      	mov	r5, r0
  LCD_WRX_HIGH();
 8001912:	2201      	movs	r2, #1
 8001914:	f44f 5100 	mov.w	r1, #8192	; 0x2000
 8001918:	4809      	ldr	r0, [pc, #36]	; (8001940 <LCD_IO_WriteData+0x34>)
 800191a:	f001 f9a7 	bl	8002c6c <HAL_GPIO_WritePin>
  LCD_CS_LOW();
 800191e:	2200      	movs	r2, #0
 8001920:	2104      	movs	r1, #4
 8001922:	4620      	mov	r0, r4
 8001924:	f001 f9a2 	bl	8002c6c <HAL_GPIO_WritePin>
  SPIx_Write(RegValue);
 8001928:	4628      	mov	r0, r5
 800192a:	f7ff ff7b 	bl	8001824 <SPIx_Write>
  
  /* Deselect: Chip Select high */
  LCD_CS_HIGH();
 800192e:	4620      	mov	r0, r4
 8001930:	2201      	movs	r2, #1
 8001932:	2104      	movs	r1, #4
}
 8001934:	e8bd 4038 	ldmia.w	sp!, {r3, r4, r5, lr}
  LCD_CS_HIGH();
 8001938:	f001 b998 	b.w	8002c6c <HAL_GPIO_WritePin>
 800193c:	40020800 	.word	0x40020800
 8001940:	40020c00 	.word	0x40020c00

08001944 <LCD_IO_WriteReg>:

/**
  * @brief  Writes register address.
  */
void LCD_IO_WriteReg(uint8_t Reg) 
{
 8001944:	b538      	push	{r3, r4, r5, lr}
  /* Reset WRX to send command */
  LCD_WRX_LOW();
  
  /* Reset LCD control line(/CS) and Send command */
  LCD_CS_LOW();
 8001946:	4c0b      	ldr	r4, [pc, #44]	; (8001974 <LCD_IO_WriteReg+0x30>)
{
 8001948:	4605      	mov	r5, r0
  LCD_WRX_LOW();
 800194a:	2200      	movs	r2, #0
 800194c:	f44f 5100 	mov.w	r1, #8192	; 0x2000
 8001950:	4809      	ldr	r0, [pc, #36]	; (8001978 <LCD_IO_WriteReg+0x34>)
 8001952:	f001 f98b 	bl	8002c6c <HAL_GPIO_WritePin>
  LCD_CS_LOW();
 8001956:	2200      	movs	r2, #0
 8001958:	2104      	movs	r1, #4
 800195a:	4620      	mov	r0, r4
 800195c:	f001 f986 	bl	8002c6c <HAL_GPIO_WritePin>
  SPIx_Write(Reg);
 8001960:	4628      	mov	r0, r5
 8001962:	f7ff ff5f 	bl	8001824 <SPIx_Write>
  
  /* Deselect: Chip Select high */
  LCD_CS_HIGH();
 8001966:	4620      	mov	r0, r4
 8001968:	2201      	movs	r2, #1
 800196a:	2104      	movs	r1, #4
}
 800196c:	e8bd 4038 	ldmia.w	sp!, {r3, r4, r5, lr}
  LCD_CS_HIGH();
 8001970:	f001 b97c 	b.w	8002c6c <HAL_GPIO_WritePin>
 8001974:	40020800 	.word	0x40020800
 8001978:	40020c00 	.word	0x40020c00

0800197c <LCD_Delay>:
 800197c:	f000 b84e 	b.w	8001a1c <HAL_Delay>

08001980 <SystemInit>:
  */
void SystemInit(void)
{
  /* FPU settings ------------------------------------------------------------*/
  #if (__FPU_PRESENT == 1) && (__FPU_USED == 1)
    SCB->CPACR |= ((3UL << 10*2)|(3UL << 11*2));  /* set CP10 and CP11 Full Access */
 8001980:	490f      	ldr	r1, [pc, #60]	; (80019c0 <SystemInit+0x40>)
 8001982:	f8d1 3088 	ldr.w	r3, [r1, #136]	; 0x88
 8001986:	f443 0370 	orr.w	r3, r3, #15728640	; 0xf00000
 800198a:	f8c1 3088 	str.w	r3, [r1, #136]	; 0x88
  #endif
  /* Reset the RCC clock configuration to the default reset state ------------*/
  /* Set HSION bit */
  RCC->CR |= (uint32_t)0x00000001;
 800198e:	4b0d      	ldr	r3, [pc, #52]	; (80019c4 <SystemInit+0x44>)
 8001990:	681a      	ldr	r2, [r3, #0]

  /* Reset CFGR register */
  RCC->CFGR = 0x00000000;
 8001992:	2000      	movs	r0, #0
  RCC->CR |= (uint32_t)0x00000001;
 8001994:	f042 0201 	orr.w	r2, r2, #1
 8001998:	601a      	str	r2, [r3, #0]
  RCC->CFGR = 0x00000000;
 800199a:	6098      	str	r0, [r3, #8]

  /* Reset HSEON, CSSON and PLLON bits */
  RCC->CR &= (uint32_t)0xFEF6FFFF;
 800199c:	681a      	ldr	r2, [r3, #0]
 800199e:	f022 7284 	bic.w	r2, r2, #17301504	; 0x1080000
 80019a2:	f422 3280 	bic.w	r2, r2, #65536	; 0x10000
 80019a6:	601a      	str	r2, [r3, #0]

  /* Reset PLLCFGR register */
  RCC->PLLCFGR = 0x24003010;
 80019a8:	4a07      	ldr	r2, [pc, #28]	; (80019c8 <SystemInit+0x48>)
 80019aa:	605a      	str	r2, [r3, #4]

  /* Reset HSEBYP bit */
  RCC->CR &= (uint32_t)0xFFFBFFFF;
 80019ac:	681a      	ldr	r2, [r3, #0]
 80019ae:	f422 2280 	bic.w	r2, r2, #262144	; 0x40000
 80019b2:	601a      	str	r2, [r3, #0]

  /* Disable all interrupts */
  RCC->CIR = 0x00000000;
 80019b4:	60d8      	str	r0, [r3, #12]

  /* Configure the Vector Table location add offset address ------------------*/
#ifdef VECT_TAB_SRAM
  SCB->VTOR = SRAM_BASE | VECT_TAB_OFFSET; /* Vector Table Relocation in Internal SRAM */
#else
  SCB->VTOR = FLASH_BASE | VECT_TAB_OFFSET; /* Vector Table Relocation in Internal FLASH */
 80019b6:	f04f 6300 	mov.w	r3, #134217728	; 0x8000000
 80019ba:	608b      	str	r3, [r1, #8]
 80019bc:	4770      	bx	lr
 80019be:	bf00      	nop
 80019c0:	e000ed00 	.word	0xe000ed00
 80019c4:	40023800 	.word	0x40023800
 80019c8:	24003010 	.word	0x24003010

080019cc <HAL_Init>:
  *         need to ensure that the SysTick time base is always set to 1 millisecond
  *         to have correct HAL operation.
  * @retval HAL status
  */
HAL_StatusTypeDef HAL_Init(void)
{
 80019cc:	b508      	push	{r3, lr}
  /* Configure Flash prefetch, Instruction cache, Data cache */ 
#if (INSTRUCTION_CACHE_ENABLE != 0U)
   __HAL_FLASH_INSTRUCTION_CACHE_ENABLE();
 80019ce:	4b0b      	ldr	r3, [pc, #44]	; (80019fc <HAL_Init+0x30>)
 80019d0:	681a      	ldr	r2, [r3, #0]
 80019d2:	f442 7200 	orr.w	r2, r2, #512	; 0x200
 80019d6:	601a      	str	r2, [r3, #0]
#endif /* INSTRUCTION_CACHE_ENABLE */

#if (DATA_CACHE_ENABLE != 0U)
   __HAL_FLASH_DATA_CACHE_ENABLE();
 80019d8:	681a      	ldr	r2, [r3, #0]
 80019da:	f442 6280 	orr.w	r2, r2, #1024	; 0x400
 80019de:	601a      	str	r2, [r3, #0]
#endif /* DATA_CACHE_ENABLE */

#if (PREFETCH_ENABLE != 0U)
  __HAL_FLASH_PREFETCH_BUFFER_ENABLE();
 80019e0:	681a      	ldr	r2, [r3, #0]
 80019e2:	f442 7280 	orr.w	r2, r2, #256	; 0x100
 80019e6:	601a      	str	r2, [r3, #0]
#endif /* PREFETCH_ENABLE */

  /* Set Interrupt Group Priority */
  HAL_NVIC_SetPriorityGrouping(NVIC_PRIORITYGROUP_4);
 80019e8:	2003      	movs	r0, #3
 80019ea:	f000 faf3 	bl	8001fd4 <HAL_NVIC_SetPriorityGrouping>

  /* Use systick as time base source and configure 1ms tick (default clock after Reset is HSI) */
  HAL_InitTick(TICK_INT_PRIORITY);
 80019ee:	2000      	movs	r0, #0
 80019f0:	f7ff fa38 	bl	8000e64 <HAL_InitTick>
  
  /* Init the low level hardware */
  HAL_MspInit();
 80019f4:	f7ff fa06 	bl	8000e04 <HAL_MspInit>
  
  /* Return function status */
  return HAL_OK;
}
 80019f8:	2000      	movs	r0, #0
 80019fa:	bd08      	pop	{r3, pc}
 80019fc:	40023c00 	.word	0x40023c00

08001a00 <HAL_IncTick>:
  *      implementations in user file.
  * @retval None
  */
__weak void HAL_IncTick(void)
{
  uwTick++;
 8001a00:	4a02      	ldr	r2, [pc, #8]	; (8001a0c <HAL_IncTick+0xc>)
 8001a02:	6813      	ldr	r3, [r2, #0]
 8001a04:	3301      	adds	r3, #1
 8001a06:	6013      	str	r3, [r2, #0]
 8001a08:	4770      	bx	lr
 8001a0a:	bf00      	nop
 8001a0c:	20000e2c 	.word	0x20000e2c

08001a10 <HAL_GetTick>:
  *       implementations in user file.
  * @retval tick value
  */
__weak uint32_t HAL_GetTick(void)
{
  return uwTick;
 8001a10:	4b01      	ldr	r3, [pc, #4]	; (8001a18 <HAL_GetTick+0x8>)
 8001a12:	6818      	ldr	r0, [r3, #0]
}
 8001a14:	4770      	bx	lr
 8001a16:	bf00      	nop
 8001a18:	20000e2c 	.word	0x20000e2c

08001a1c <HAL_Delay>:
  *       implementations in user file.
  * @param Delay: specifies the delay time length, in milliseconds.
  * @retval None
  */
__weak void HAL_Delay(__IO uint32_t Delay)
{
 8001a1c:	b537      	push	{r0, r1, r2, r4, r5, lr}
 8001a1e:	9001      	str	r0, [sp, #4]
  uint32_t tickstart = HAL_GetTick();
 8001a20:	f7ff fff6 	bl	8001a10 <HAL_GetTick>
  uint32_t wait = Delay;
 8001a24:	9c01      	ldr	r4, [sp, #4]
  
  /* Add a period to guarantee minimum wait */
  if (wait < HAL_MAX_DELAY)
 8001a26:	1c63      	adds	r3, r4, #1
  uint32_t tickstart = HAL_GetTick();
 8001a28:	4605      	mov	r5, r0
  {
     wait++;
 8001a2a:	bf18      	it	ne
 8001a2c:	3401      	addne	r4, #1
  }
  
  while((HAL_GetTick() - tickstart) < wait)
 8001a2e:	f7ff ffef 	bl	8001a10 <HAL_GetTick>
 8001a32:	1b40      	subs	r0, r0, r5
 8001a34:	42a0      	cmp	r0, r4
 8001a36:	d3fa      	bcc.n	8001a2e <HAL_Delay+0x12>
  {
  }
}
 8001a38:	b003      	add	sp, #12
 8001a3a:	bd30      	pop	{r4, r5, pc}

08001a3c <HAL_ADC_Init>:
  * @param  hadc: pointer to a ADC_HandleTypeDef structure that contains
  *         the configuration information for the specified ADC.  
  * @retval HAL status
  */
HAL_StatusTypeDef HAL_ADC_Init(ADC_HandleTypeDef* hadc)
{
 8001a3c:	b510      	push	{r4, lr}
  HAL_StatusTypeDef tmp_hal_status = HAL_OK;
  
  /* Check ADC handle */
  if(hadc == NULL)
 8001a3e:	4604      	mov	r4, r0
 8001a40:	2800      	cmp	r0, #0
 8001a42:	f000 8131 	beq.w	8001ca8 <HAL_ADC_Init+0x26c>
  {
    return HAL_ERROR;
  }
  
  /* Check the parameters */
  assert_param(IS_ADC_ALL_INSTANCE(hadc->Instance));
 8001a46:	6803      	ldr	r3, [r0, #0]
 8001a48:	4a98      	ldr	r2, [pc, #608]	; (8001cac <HAL_ADC_Init+0x270>)
 8001a4a:	4293      	cmp	r3, r2
 8001a4c:	d00c      	beq.n	8001a68 <HAL_ADC_Init+0x2c>
 8001a4e:	f502 7280 	add.w	r2, r2, #256	; 0x100
 8001a52:	4293      	cmp	r3, r2
 8001a54:	d008      	beq.n	8001a68 <HAL_ADC_Init+0x2c>
 8001a56:	f502 7280 	add.w	r2, r2, #256	; 0x100
 8001a5a:	4293      	cmp	r3, r2
 8001a5c:	d004      	beq.n	8001a68 <HAL_ADC_Init+0x2c>
 8001a5e:	f240 110d 	movw	r1, #269	; 0x10d
 8001a62:	4893      	ldr	r0, [pc, #588]	; (8001cb0 <HAL_ADC_Init+0x274>)
 8001a64:	f7ff f955 	bl	8000d12 <assert_failed>
  assert_param(IS_ADC_CLOCKPRESCALER(hadc->Init.ClockPrescaler));
 8001a68:	6863      	ldr	r3, [r4, #4]
 8001a6a:	f433 3340 	bics.w	r3, r3, #196608	; 0x30000
 8001a6e:	d004      	beq.n	8001a7a <HAL_ADC_Init+0x3e>
 8001a70:	f44f 7187 	mov.w	r1, #270	; 0x10e
 8001a74:	488e      	ldr	r0, [pc, #568]	; (8001cb0 <HAL_ADC_Init+0x274>)
 8001a76:	f7ff f94c 	bl	8000d12 <assert_failed>
  assert_param(IS_ADC_RESOLUTION(hadc->Init.Resolution));
 8001a7a:	68a3      	ldr	r3, [r4, #8]
 8001a7c:	f033 7340 	bics.w	r3, r3, #50331648	; 0x3000000
 8001a80:	d004      	beq.n	8001a8c <HAL_ADC_Init+0x50>
 8001a82:	f240 110f 	movw	r1, #271	; 0x10f
 8001a86:	488a      	ldr	r0, [pc, #552]	; (8001cb0 <HAL_ADC_Init+0x274>)
 8001a88:	f7ff f943 	bl	8000d12 <assert_failed>
  assert_param(IS_FUNCTIONAL_STATE(hadc->Init.ScanConvMode));
 8001a8c:	6923      	ldr	r3, [r4, #16]
 8001a8e:	2b01      	cmp	r3, #1
 8001a90:	d904      	bls.n	8001a9c <HAL_ADC_Init+0x60>
 8001a92:	f44f 7188 	mov.w	r1, #272	; 0x110
 8001a96:	4886      	ldr	r0, [pc, #536]	; (8001cb0 <HAL_ADC_Init+0x274>)
 8001a98:	f7ff f93b 	bl	8000d12 <assert_failed>
  assert_param(IS_FUNCTIONAL_STATE(hadc->Init.ContinuousConvMode));
 8001a9c:	69a3      	ldr	r3, [r4, #24]
 8001a9e:	2b01      	cmp	r3, #1
 8001aa0:	d904      	bls.n	8001aac <HAL_ADC_Init+0x70>
 8001aa2:	f240 1111 	movw	r1, #273	; 0x111
 8001aa6:	4882      	ldr	r0, [pc, #520]	; (8001cb0 <HAL_ADC_Init+0x274>)
 8001aa8:	f7ff f933 	bl	8000d12 <assert_failed>
  assert_param(IS_ADC_EXT_TRIG(hadc->Init.ExternalTrigConv));
 8001aac:	6aa3      	ldr	r3, [r4, #40]	; 0x28
 8001aae:	f033 7240 	bics.w	r2, r3, #50331648	; 0x3000000
 8001ab2:	f023 7180 	bic.w	r1, r3, #16777216	; 0x1000000
 8001ab6:	d014      	beq.n	8001ae2 <HAL_ADC_Init+0xa6>
 8001ab8:	f1b2 6f80 	cmp.w	r2, #67108864	; 0x4000000
 8001abc:	d011      	beq.n	8001ae2 <HAL_ADC_Init+0xa6>
 8001abe:	f1b2 6f00 	cmp.w	r2, #134217728	; 0x8000000
 8001ac2:	d00e      	beq.n	8001ae2 <HAL_ADC_Init+0xa6>
 8001ac4:	f1b1 6f40 	cmp.w	r1, #201326592	; 0xc000000
 8001ac8:	d00b      	beq.n	8001ae2 <HAL_ADC_Init+0xa6>
 8001aca:	f1b3 6f60 	cmp.w	r3, #234881024	; 0xe000000
 8001ace:	d008      	beq.n	8001ae2 <HAL_ADC_Init+0xa6>
 8001ad0:	f103 4371 	add.w	r3, r3, #4043309056	; 0xf1000000
 8001ad4:	2b01      	cmp	r3, #1
 8001ad6:	d904      	bls.n	8001ae2 <HAL_ADC_Init+0xa6>
 8001ad8:	f44f 7189 	mov.w	r1, #274	; 0x112
 8001adc:	4874      	ldr	r0, [pc, #464]	; (8001cb0 <HAL_ADC_Init+0x274>)
 8001ade:	f7ff f918 	bl	8000d12 <assert_failed>
  assert_param(IS_ADC_DATA_ALIGN(hadc->Init.DataAlign));
 8001ae2:	68e3      	ldr	r3, [r4, #12]
 8001ae4:	f433 6300 	bics.w	r3, r3, #2048	; 0x800
 8001ae8:	d004      	beq.n	8001af4 <HAL_ADC_Init+0xb8>
 8001aea:	f240 1113 	movw	r1, #275	; 0x113
 8001aee:	4870      	ldr	r0, [pc, #448]	; (8001cb0 <HAL_ADC_Init+0x274>)
 8001af0:	f7ff f90f 	bl	8000d12 <assert_failed>
  assert_param(IS_ADC_REGULAR_LENGTH(hadc->Init.NbrOfConversion));
 8001af4:	69e3      	ldr	r3, [r4, #28]
 8001af6:	3b01      	subs	r3, #1
 8001af8:	2b0f      	cmp	r3, #15
 8001afa:	d904      	bls.n	8001b06 <HAL_ADC_Init+0xca>
 8001afc:	f44f 718a 	mov.w	r1, #276	; 0x114
 8001b00:	486b      	ldr	r0, [pc, #428]	; (8001cb0 <HAL_ADC_Init+0x274>)
 8001b02:	f7ff f906 	bl	8000d12 <assert_failed>
  assert_param(IS_FUNCTIONAL_STATE(hadc->Init.DMAContinuousRequests));
 8001b06:	6b23      	ldr	r3, [r4, #48]	; 0x30
 8001b08:	2b01      	cmp	r3, #1
 8001b0a:	d904      	bls.n	8001b16 <HAL_ADC_Init+0xda>
 8001b0c:	f240 1115 	movw	r1, #277	; 0x115
 8001b10:	4867      	ldr	r0, [pc, #412]	; (8001cb0 <HAL_ADC_Init+0x274>)
 8001b12:	f7ff f8fe 	bl	8000d12 <assert_failed>
  assert_param(IS_ADC_EOCSelection(hadc->Init.EOCSelection));
 8001b16:	6963      	ldr	r3, [r4, #20]
 8001b18:	2b02      	cmp	r3, #2
 8001b1a:	d904      	bls.n	8001b26 <HAL_ADC_Init+0xea>
 8001b1c:	f44f 718b 	mov.w	r1, #278	; 0x116
 8001b20:	4863      	ldr	r0, [pc, #396]	; (8001cb0 <HAL_ADC_Init+0x274>)
 8001b22:	f7ff f8f6 	bl	8000d12 <assert_failed>
  assert_param(IS_FUNCTIONAL_STATE(hadc->Init.DiscontinuousConvMode));
 8001b26:	6a23      	ldr	r3, [r4, #32]
 8001b28:	2b01      	cmp	r3, #1
 8001b2a:	d904      	bls.n	8001b36 <HAL_ADC_Init+0xfa>
 8001b2c:	f240 1117 	movw	r1, #279	; 0x117
 8001b30:	485f      	ldr	r0, [pc, #380]	; (8001cb0 <HAL_ADC_Init+0x274>)
 8001b32:	f7ff f8ee 	bl	8000d12 <assert_failed>
  
  if(hadc->Init.ExternalTrigConv != ADC_SOFTWARE_START)
 8001b36:	6aa2      	ldr	r2, [r4, #40]	; 0x28
 8001b38:	4b5e      	ldr	r3, [pc, #376]	; (8001cb4 <HAL_ADC_Init+0x278>)
 8001b3a:	429a      	cmp	r2, r3
 8001b3c:	d008      	beq.n	8001b50 <HAL_ADC_Init+0x114>
  {
    assert_param(IS_ADC_EXT_TRIG_EDGE(hadc->Init.ExternalTrigConvEdge));
 8001b3e:	6ae3      	ldr	r3, [r4, #44]	; 0x2c
 8001b40:	f033 5340 	bics.w	r3, r3, #805306368	; 0x30000000
 8001b44:	d004      	beq.n	8001b50 <HAL_ADC_Init+0x114>
 8001b46:	f240 111b 	movw	r1, #283	; 0x11b
 8001b4a:	4859      	ldr	r0, [pc, #356]	; (8001cb0 <HAL_ADC_Init+0x274>)
 8001b4c:	f7ff f8e1 	bl	8000d12 <assert_failed>
  }
  
  if(hadc->State == HAL_ADC_STATE_RESET)
 8001b50:	6c23      	ldr	r3, [r4, #64]	; 0x40
 8001b52:	b92b      	cbnz	r3, 8001b60 <HAL_ADC_Init+0x124>
  {
    /* Initialize ADC error code */
    ADC_CLEAR_ERRORCODE(hadc);
 8001b54:	6463      	str	r3, [r4, #68]	; 0x44
    
    /* Allocate lock resource and initialize it */
    hadc->Lock = HAL_UNLOCKED;
 8001b56:	f884 303c 	strb.w	r3, [r4, #60]	; 0x3c
    
    /* Init the low level hardware */
    HAL_ADC_MspInit(hadc);
 8001b5a:	4620      	mov	r0, r4
 8001b5c:	f7fe fbfe 	bl	800035c <HAL_ADC_MspInit>
  }
  
  /* Configuration of ADC parameters if previous preliminary actions are      */ 
  /* correctly completed.                                                     */
  if (HAL_IS_BIT_CLR(hadc->State, HAL_ADC_STATE_ERROR_INTERNAL))
 8001b60:	6c23      	ldr	r3, [r4, #64]	; 0x40
 8001b62:	06db      	lsls	r3, r3, #27
 8001b64:	f100 809e 	bmi.w	8001ca4 <HAL_ADC_Init+0x268>
  {
    /* Set ADC state */
    ADC_STATE_CLR_SET(hadc->State,
 8001b68:	6c23      	ldr	r3, [r4, #64]	; 0x40
 8001b6a:	f423 5388 	bic.w	r3, r3, #4352	; 0x1100
 8001b6e:	f023 0302 	bic.w	r3, r3, #2
 8001b72:	f043 0302 	orr.w	r3, r3, #2
 8001b76:	6423      	str	r3, [r4, #64]	; 0x40
  /* (Depending on STM32F4 product, there may be up to 3 ADCs and 1 common */
  /* control register)                                                    */
  tmpADC_Common = ADC_COMMON_REGISTER(hadc);
  
  /* Set the ADC clock prescaler */
  tmpADC_Common->CCR &= ~(ADC_CCR_ADCPRE);
 8001b78:	4b4f      	ldr	r3, [pc, #316]	; (8001cb8 <HAL_ADC_Init+0x27c>)
 8001b7a:	685a      	ldr	r2, [r3, #4]
 8001b7c:	f422 3240 	bic.w	r2, r2, #196608	; 0x30000
 8001b80:	605a      	str	r2, [r3, #4]
  tmpADC_Common->CCR |=  hadc->Init.ClockPrescaler;
 8001b82:	685a      	ldr	r2, [r3, #4]
 8001b84:	6861      	ldr	r1, [r4, #4]
 8001b86:	430a      	orrs	r2, r1
 8001b88:	605a      	str	r2, [r3, #4]
  
  /* Set ADC scan mode */
  hadc->Instance->CR1 &= ~(ADC_CR1_SCAN);
 8001b8a:	6823      	ldr	r3, [r4, #0]
  hadc->Instance->CR1 |=  ADC_CR1_SCANCONV(hadc->Init.ScanConvMode);
 8001b8c:	6921      	ldr	r1, [r4, #16]
  hadc->Instance->CR1 &= ~(ADC_CR1_SCAN);
 8001b8e:	685a      	ldr	r2, [r3, #4]
 8001b90:	f422 7280 	bic.w	r2, r2, #256	; 0x100
 8001b94:	605a      	str	r2, [r3, #4]
  hadc->Instance->CR1 |=  ADC_CR1_SCANCONV(hadc->Init.ScanConvMode);
 8001b96:	685a      	ldr	r2, [r3, #4]
 8001b98:	ea42 2201 	orr.w	r2, r2, r1, lsl #8
 8001b9c:	605a      	str	r2, [r3, #4]
  
  /* Set ADC resolution */
  hadc->Instance->CR1 &= ~(ADC_CR1_RES);
 8001b9e:	685a      	ldr	r2, [r3, #4]
  hadc->Instance->CR1 |=  hadc->Init.Resolution;
 8001ba0:	68a1      	ldr	r1, [r4, #8]
  hadc->Instance->CR1 &= ~(ADC_CR1_RES);
 8001ba2:	f022 7240 	bic.w	r2, r2, #50331648	; 0x3000000
 8001ba6:	605a      	str	r2, [r3, #4]
  hadc->Instance->CR1 |=  hadc->Init.Resolution;
 8001ba8:	685a      	ldr	r2, [r3, #4]
 8001baa:	430a      	orrs	r2, r1
 8001bac:	605a      	str	r2, [r3, #4]
  
  /* Set ADC data alignment */
  hadc->Instance->CR2 &= ~(ADC_CR2_ALIGN);
 8001bae:	689a      	ldr	r2, [r3, #8]
  hadc->Instance->CR2 |= hadc->Init.DataAlign;
 8001bb0:	68e1      	ldr	r1, [r4, #12]
  hadc->Instance->CR2 &= ~(ADC_CR2_ALIGN);
 8001bb2:	f422 6200 	bic.w	r2, r2, #2048	; 0x800
 8001bb6:	609a      	str	r2, [r3, #8]
  hadc->Instance->CR2 |= hadc->Init.DataAlign;
 8001bb8:	689a      	ldr	r2, [r3, #8]
 8001bba:	430a      	orrs	r2, r1
 8001bbc:	609a      	str	r2, [r3, #8]
  /* Enable external trigger if trigger selection is different of software  */
  /* start.                                                                 */
  /* Note: This configuration keeps the hardware feature of parameter       */
  /*       ExternalTrigConvEdge "trigger edge none" equivalent to           */
  /*       software start.                                                  */
  if(hadc->Init.ExternalTrigConv != ADC_SOFTWARE_START)
 8001bbe:	493d      	ldr	r1, [pc, #244]	; (8001cb4 <HAL_ADC_Init+0x278>)
 8001bc0:	6aa2      	ldr	r2, [r4, #40]	; 0x28
 8001bc2:	428a      	cmp	r2, r1
 8001bc4:	d061      	beq.n	8001c8a <HAL_ADC_Init+0x24e>
  {
    /* Select external trigger to start conversion */
    hadc->Instance->CR2 &= ~(ADC_CR2_EXTSEL);
 8001bc6:	6899      	ldr	r1, [r3, #8]
 8001bc8:	f021 6170 	bic.w	r1, r1, #251658240	; 0xf000000
 8001bcc:	6099      	str	r1, [r3, #8]
    hadc->Instance->CR2 |= hadc->Init.ExternalTrigConv;
 8001bce:	6899      	ldr	r1, [r3, #8]
 8001bd0:	430a      	orrs	r2, r1
 8001bd2:	609a      	str	r2, [r3, #8]
    
    /* Select external trigger polarity */
    hadc->Instance->CR2 &= ~(ADC_CR2_EXTEN);
 8001bd4:	689a      	ldr	r2, [r3, #8]
    hadc->Instance->CR2 |= hadc->Init.ExternalTrigConvEdge;
 8001bd6:	6ae1      	ldr	r1, [r4, #44]	; 0x2c
    hadc->Instance->CR2 &= ~(ADC_CR2_EXTEN);
 8001bd8:	f022 5240 	bic.w	r2, r2, #805306368	; 0x30000000
 8001bdc:	609a      	str	r2, [r3, #8]
    hadc->Instance->CR2 |= hadc->Init.ExternalTrigConvEdge;
 8001bde:	689a      	ldr	r2, [r3, #8]
 8001be0:	430a      	orrs	r2, r1
  }
  else
  {
    /* Reset the external trigger */
    hadc->Instance->CR2 &= ~(ADC_CR2_EXTSEL);
    hadc->Instance->CR2 &= ~(ADC_CR2_EXTEN);
 8001be2:	609a      	str	r2, [r3, #8]
  }
  
  /* Enable or disable ADC continuous conversion mode */
  hadc->Instance->CR2 &= ~(ADC_CR2_CONT);
 8001be4:	689a      	ldr	r2, [r3, #8]
  hadc->Instance->CR2 |= ADC_CR2_CONTINUOUS(hadc->Init.ContinuousConvMode);
 8001be6:	69a1      	ldr	r1, [r4, #24]
  hadc->Instance->CR2 &= ~(ADC_CR2_CONT);
 8001be8:	f022 0202 	bic.w	r2, r2, #2
 8001bec:	609a      	str	r2, [r3, #8]
  hadc->Instance->CR2 |= ADC_CR2_CONTINUOUS(hadc->Init.ContinuousConvMode);
 8001bee:	689a      	ldr	r2, [r3, #8]
 8001bf0:	ea42 0241 	orr.w	r2, r2, r1, lsl #1
 8001bf4:	609a      	str	r2, [r3, #8]
  
  if(hadc->Init.DiscontinuousConvMode != DISABLE)
 8001bf6:	6a22      	ldr	r2, [r4, #32]
 8001bf8:	2a00      	cmp	r2, #0
 8001bfa:	d04e      	beq.n	8001c9a <HAL_ADC_Init+0x25e>
  {
    assert_param(IS_ADC_REGULAR_DISC_NUMBER(hadc->Init.NbrOfDiscConversion));
 8001bfc:	6a63      	ldr	r3, [r4, #36]	; 0x24
 8001bfe:	3b01      	subs	r3, #1
 8001c00:	2b07      	cmp	r3, #7
 8001c02:	d904      	bls.n	8001c0e <HAL_ADC_Init+0x1d2>
 8001c04:	f240 6129 	movw	r1, #1577	; 0x629
 8001c08:	4829      	ldr	r0, [pc, #164]	; (8001cb0 <HAL_ADC_Init+0x274>)
 8001c0a:	f7ff f882 	bl	8000d12 <assert_failed>
  
    /* Enable the selected ADC regular discontinuous mode */
    hadc->Instance->CR1 |= (uint32_t)ADC_CR1_DISCEN;
 8001c0e:	6822      	ldr	r2, [r4, #0]
 8001c10:	6853      	ldr	r3, [r2, #4]
 8001c12:	f443 6300 	orr.w	r3, r3, #2048	; 0x800
 8001c16:	6053      	str	r3, [r2, #4]
    
    /* Set the number of channels to be converted in discontinuous mode */
    hadc->Instance->CR1 &= ~(ADC_CR1_DISCNUM);
 8001c18:	6853      	ldr	r3, [r2, #4]
 8001c1a:	f423 4360 	bic.w	r3, r3, #57344	; 0xe000
 8001c1e:	6053      	str	r3, [r2, #4]
__attribute__((always_inline)) __STATIC_INLINE uint32_t __RBIT(uint32_t value)
{
  uint32_t result;

#if       (__CORTEX_M >= 0x03U) || (__CORTEX_SC >= 300U)
   __ASM volatile ("rbit %0, %1" : "=r" (result) : "r" (value) );
 8001c20:	f44f 4360 	mov.w	r3, #57344	; 0xe000
 8001c24:	fa93 f3a3 	rbit	r3, r3
    hadc->Instance->CR1 |=  ADC_CR1_DISCONTINUOUS(hadc->Init.NbrOfDiscConversion);
 8001c28:	fab3 f183 	clz	r1, r3
 8001c2c:	6a63      	ldr	r3, [r4, #36]	; 0x24
 8001c2e:	6850      	ldr	r0, [r2, #4]
 8001c30:	3b01      	subs	r3, #1
 8001c32:	408b      	lsls	r3, r1
 8001c34:	4303      	orrs	r3, r0
 8001c36:	6053      	str	r3, [r2, #4]
    /* Disable the selected ADC regular discontinuous mode */
    hadc->Instance->CR1 &= ~(ADC_CR1_DISCEN);
  }
  
  /* Set ADC number of conversion */
  hadc->Instance->SQR1 &= ~(ADC_SQR1_L);
 8001c38:	6823      	ldr	r3, [r4, #0]
  hadc->Instance->SQR1 |=  ADC_SQR1(hadc->Init.NbrOfConversion);
 8001c3a:	69e1      	ldr	r1, [r4, #28]
  hadc->Instance->SQR1 &= ~(ADC_SQR1_L);
 8001c3c:	6ada      	ldr	r2, [r3, #44]	; 0x2c
 8001c3e:	f422 0270 	bic.w	r2, r2, #15728640	; 0xf00000
 8001c42:	62da      	str	r2, [r3, #44]	; 0x2c
  hadc->Instance->SQR1 |=  ADC_SQR1(hadc->Init.NbrOfConversion);
 8001c44:	6ada      	ldr	r2, [r3, #44]	; 0x2c
 8001c46:	3901      	subs	r1, #1
 8001c48:	ea42 5201 	orr.w	r2, r2, r1, lsl #20
 8001c4c:	62da      	str	r2, [r3, #44]	; 0x2c
  
  /* Enable or disable ADC DMA continuous request */
  hadc->Instance->CR2 &= ~(ADC_CR2_DDS);
 8001c4e:	689a      	ldr	r2, [r3, #8]
  hadc->Instance->CR2 |= ADC_CR2_DMAContReq(hadc->Init.DMAContinuousRequests);
 8001c50:	6b21      	ldr	r1, [r4, #48]	; 0x30
  hadc->Instance->CR2 &= ~(ADC_CR2_DDS);
 8001c52:	f422 7200 	bic.w	r2, r2, #512	; 0x200
 8001c56:	609a      	str	r2, [r3, #8]
  hadc->Instance->CR2 |= ADC_CR2_DMAContReq(hadc->Init.DMAContinuousRequests);
 8001c58:	689a      	ldr	r2, [r3, #8]
 8001c5a:	ea42 2241 	orr.w	r2, r2, r1, lsl #9
 8001c5e:	609a      	str	r2, [r3, #8]
  
  /* Enable or disable ADC end of conversion selection */
  hadc->Instance->CR2 &= ~(ADC_CR2_EOCS);
 8001c60:	689a      	ldr	r2, [r3, #8]
  hadc->Instance->CR2 |= ADC_CR2_EOCSelection(hadc->Init.EOCSelection);
 8001c62:	6961      	ldr	r1, [r4, #20]
  hadc->Instance->CR2 &= ~(ADC_CR2_EOCS);
 8001c64:	f422 6280 	bic.w	r2, r2, #1024	; 0x400
 8001c68:	609a      	str	r2, [r3, #8]
  hadc->Instance->CR2 |= ADC_CR2_EOCSelection(hadc->Init.EOCSelection);
 8001c6a:	689a      	ldr	r2, [r3, #8]
    ADC_CLEAR_ERRORCODE(hadc);
 8001c6c:	2000      	movs	r0, #0
  hadc->Instance->CR2 |= ADC_CR2_EOCSelection(hadc->Init.EOCSelection);
 8001c6e:	ea42 2281 	orr.w	r2, r2, r1, lsl #10
 8001c72:	609a      	str	r2, [r3, #8]
    ADC_CLEAR_ERRORCODE(hadc);
 8001c74:	6460      	str	r0, [r4, #68]	; 0x44
    ADC_STATE_CLR_SET(hadc->State,
 8001c76:	6c23      	ldr	r3, [r4, #64]	; 0x40
 8001c78:	f023 0303 	bic.w	r3, r3, #3
 8001c7c:	f043 0301 	orr.w	r3, r3, #1
 8001c80:	6423      	str	r3, [r4, #64]	; 0x40
  __HAL_UNLOCK(hadc);
 8001c82:	2300      	movs	r3, #0
 8001c84:	f884 303c 	strb.w	r3, [r4, #60]	; 0x3c
  return tmp_hal_status;
 8001c88:	bd10      	pop	{r4, pc}
    hadc->Instance->CR2 &= ~(ADC_CR2_EXTSEL);
 8001c8a:	689a      	ldr	r2, [r3, #8]
 8001c8c:	f022 6270 	bic.w	r2, r2, #251658240	; 0xf000000
 8001c90:	609a      	str	r2, [r3, #8]
    hadc->Instance->CR2 &= ~(ADC_CR2_EXTEN);
 8001c92:	689a      	ldr	r2, [r3, #8]
 8001c94:	f022 5240 	bic.w	r2, r2, #805306368	; 0x30000000
 8001c98:	e7a3      	b.n	8001be2 <HAL_ADC_Init+0x1a6>
    hadc->Instance->CR1 &= ~(ADC_CR1_DISCEN);
 8001c9a:	685a      	ldr	r2, [r3, #4]
 8001c9c:	f422 6200 	bic.w	r2, r2, #2048	; 0x800
 8001ca0:	605a      	str	r2, [r3, #4]
 8001ca2:	e7c9      	b.n	8001c38 <HAL_ADC_Init+0x1fc>
    tmp_hal_status = HAL_ERROR;
 8001ca4:	2001      	movs	r0, #1
 8001ca6:	e7ec      	b.n	8001c82 <HAL_ADC_Init+0x246>
    return HAL_ERROR;
 8001ca8:	2001      	movs	r0, #1
}
 8001caa:	bd10      	pop	{r4, pc}
 8001cac:	40012000 	.word	0x40012000
 8001cb0:	08008214 	.word	0x08008214
 8001cb4:	0f000001 	.word	0x0f000001
 8001cb8:	40012300 	.word	0x40012300

08001cbc <HAL_ADC_Start_DMA>:
{
 8001cbc:	b573      	push	{r0, r1, r4, r5, r6, lr}
  __IO uint32_t counter = 0U;
 8001cbe:	2300      	movs	r3, #0
 8001cc0:	9301      	str	r3, [sp, #4]
  assert_param(IS_FUNCTIONAL_STATE(hadc->Init.ContinuousConvMode));
 8001cc2:	6983      	ldr	r3, [r0, #24]
 8001cc4:	2b01      	cmp	r3, #1
{
 8001cc6:	4604      	mov	r4, r0
 8001cc8:	460d      	mov	r5, r1
 8001cca:	4616      	mov	r6, r2
  assert_param(IS_FUNCTIONAL_STATE(hadc->Init.ContinuousConvMode));
 8001ccc:	d904      	bls.n	8001cd8 <HAL_ADC_Start_DMA+0x1c>
 8001cce:	f240 4107 	movw	r1, #1031	; 0x407
 8001cd2:	483b      	ldr	r0, [pc, #236]	; (8001dc0 <HAL_ADC_Start_DMA+0x104>)
 8001cd4:	f7ff f81d 	bl	8000d12 <assert_failed>
  assert_param(IS_ADC_EXT_TRIG_EDGE(hadc->Init.ExternalTrigConvEdge)); 
 8001cd8:	6ae3      	ldr	r3, [r4, #44]	; 0x2c
 8001cda:	f033 5340 	bics.w	r3, r3, #805306368	; 0x30000000
 8001cde:	d004      	beq.n	8001cea <HAL_ADC_Start_DMA+0x2e>
 8001ce0:	f44f 6181 	mov.w	r1, #1032	; 0x408
 8001ce4:	4836      	ldr	r0, [pc, #216]	; (8001dc0 <HAL_ADC_Start_DMA+0x104>)
 8001ce6:	f7ff f814 	bl	8000d12 <assert_failed>
  __HAL_LOCK(hadc);
 8001cea:	f894 303c 	ldrb.w	r3, [r4, #60]	; 0x3c
 8001cee:	2b01      	cmp	r3, #1
 8001cf0:	d064      	beq.n	8001dbc <HAL_ADC_Start_DMA+0x100>
  if((hadc->Instance->CR2 & ADC_CR2_ADON) != ADC_CR2_ADON)
 8001cf2:	6821      	ldr	r1, [r4, #0]
  __HAL_LOCK(hadc);
 8001cf4:	2301      	movs	r3, #1
 8001cf6:	f884 303c 	strb.w	r3, [r4, #60]	; 0x3c
  if((hadc->Instance->CR2 & ADC_CR2_ADON) != ADC_CR2_ADON)
 8001cfa:	688b      	ldr	r3, [r1, #8]
 8001cfc:	07d8      	lsls	r0, r3, #31
 8001cfe:	d505      	bpl.n	8001d0c <HAL_ADC_Start_DMA+0x50>
  if(HAL_IS_BIT_SET(hadc->Instance->CR2, ADC_CR2_ADON))
 8001d00:	688b      	ldr	r3, [r1, #8]
 8001d02:	07da      	lsls	r2, r3, #31
 8001d04:	d414      	bmi.n	8001d30 <HAL_ADC_Start_DMA+0x74>
  return HAL_OK;
 8001d06:	2000      	movs	r0, #0
}
 8001d08:	b002      	add	sp, #8
 8001d0a:	bd70      	pop	{r4, r5, r6, pc}
    __HAL_ADC_ENABLE(hadc);
 8001d0c:	688b      	ldr	r3, [r1, #8]
    counter = (ADC_STAB_DELAY_US * (SystemCoreClock / 1000000U));
 8001d0e:	4a2d      	ldr	r2, [pc, #180]	; (8001dc4 <HAL_ADC_Start_DMA+0x108>)
    __HAL_ADC_ENABLE(hadc);
 8001d10:	f043 0301 	orr.w	r3, r3, #1
 8001d14:	608b      	str	r3, [r1, #8]
    counter = (ADC_STAB_DELAY_US * (SystemCoreClock / 1000000U));
 8001d16:	4b2c      	ldr	r3, [pc, #176]	; (8001dc8 <HAL_ADC_Start_DMA+0x10c>)
 8001d18:	681b      	ldr	r3, [r3, #0]
 8001d1a:	fbb3 f3f2 	udiv	r3, r3, r2
 8001d1e:	eb03 0343 	add.w	r3, r3, r3, lsl #1
      counter--;
 8001d22:	9301      	str	r3, [sp, #4]
    while(counter != 0U)
 8001d24:	9b01      	ldr	r3, [sp, #4]
 8001d26:	2b00      	cmp	r3, #0
 8001d28:	d0ea      	beq.n	8001d00 <HAL_ADC_Start_DMA+0x44>
      counter--;
 8001d2a:	9b01      	ldr	r3, [sp, #4]
 8001d2c:	3b01      	subs	r3, #1
 8001d2e:	e7f8      	b.n	8001d22 <HAL_ADC_Start_DMA+0x66>
    ADC_STATE_CLR_SET(hadc->State,
 8001d30:	6c23      	ldr	r3, [r4, #64]	; 0x40
    hadc->DMA_Handle->XferCpltCallback = ADC_DMAConvCplt;
 8001d32:	6ba0      	ldr	r0, [r4, #56]	; 0x38
    ADC_STATE_CLR_SET(hadc->State,
 8001d34:	f423 63e0 	bic.w	r3, r3, #1792	; 0x700
 8001d38:	f023 0301 	bic.w	r3, r3, #1
 8001d3c:	f443 7380 	orr.w	r3, r3, #256	; 0x100
 8001d40:	6423      	str	r3, [r4, #64]	; 0x40
    if (READ_BIT(hadc->Instance->CR1, ADC_CR1_JAUTO) != RESET)
 8001d42:	684b      	ldr	r3, [r1, #4]
 8001d44:	055b      	lsls	r3, r3, #21
      ADC_STATE_CLR_SET(hadc->State, HAL_ADC_STATE_INJ_EOC, HAL_ADC_STATE_INJ_BUSY);  
 8001d46:	bf41      	itttt	mi
 8001d48:	6c23      	ldrmi	r3, [r4, #64]	; 0x40
 8001d4a:	f423 5340 	bicmi.w	r3, r3, #12288	; 0x3000
 8001d4e:	f443 5380 	orrmi.w	r3, r3, #4096	; 0x1000
 8001d52:	6423      	strmi	r3, [r4, #64]	; 0x40
    if (HAL_IS_BIT_SET(hadc->State, HAL_ADC_STATE_INJ_BUSY))
 8001d54:	6c23      	ldr	r3, [r4, #64]	; 0x40
 8001d56:	f413 5380 	ands.w	r3, r3, #4096	; 0x1000
      CLEAR_BIT(hadc->ErrorCode, (HAL_ADC_ERROR_OVR | HAL_ADC_ERROR_DMA));         
 8001d5a:	bf1c      	itt	ne
 8001d5c:	6c63      	ldrne	r3, [r4, #68]	; 0x44
 8001d5e:	f023 0306 	bicne.w	r3, r3, #6
      ADC_CLEAR_ERRORCODE(hadc);
 8001d62:	6463      	str	r3, [r4, #68]	; 0x44
    __HAL_UNLOCK(hadc);   
 8001d64:	2300      	movs	r3, #0
 8001d66:	f884 303c 	strb.w	r3, [r4, #60]	; 0x3c
    hadc->DMA_Handle->XferCpltCallback = ADC_DMAConvCplt;
 8001d6a:	4b18      	ldr	r3, [pc, #96]	; (8001dcc <HAL_ADC_Start_DMA+0x110>)
 8001d6c:	63c3      	str	r3, [r0, #60]	; 0x3c
    hadc->DMA_Handle->XferHalfCpltCallback = ADC_DMAHalfConvCplt;
 8001d6e:	4b18      	ldr	r3, [pc, #96]	; (8001dd0 <HAL_ADC_Start_DMA+0x114>)
 8001d70:	6403      	str	r3, [r0, #64]	; 0x40
    hadc->DMA_Handle->XferErrorCallback = ADC_DMAError;
 8001d72:	4b18      	ldr	r3, [pc, #96]	; (8001dd4 <HAL_ADC_Start_DMA+0x118>)
 8001d74:	64c3      	str	r3, [r0, #76]	; 0x4c
    __HAL_ADC_CLEAR_FLAG(hadc, ADC_FLAG_EOC | ADC_FLAG_OVR);
 8001d76:	f06f 0322 	mvn.w	r3, #34	; 0x22
 8001d7a:	600b      	str	r3, [r1, #0]
    __HAL_ADC_ENABLE_IT(hadc, ADC_IT_OVR);
 8001d7c:	684b      	ldr	r3, [r1, #4]
 8001d7e:	f043 6380 	orr.w	r3, r3, #67108864	; 0x4000000
 8001d82:	604b      	str	r3, [r1, #4]
    hadc->Instance->CR2 |= ADC_CR2_DMA;
 8001d84:	688b      	ldr	r3, [r1, #8]
 8001d86:	f443 7380 	orr.w	r3, r3, #256	; 0x100
 8001d8a:	608b      	str	r3, [r1, #8]
    HAL_DMA_Start_IT(hadc->DMA_Handle, (uint32_t)&hadc->Instance->DR, (uint32_t)pData, Length);
 8001d8c:	462a      	mov	r2, r5
 8001d8e:	4633      	mov	r3, r6
 8001d90:	314c      	adds	r1, #76	; 0x4c
 8001d92:	f000 fc0f 	bl	80025b4 <HAL_DMA_Start_IT>
    if(HAL_IS_BIT_CLR(tmpADC_Common->CCR, ADC_CCR_MULTI))
 8001d96:	4b10      	ldr	r3, [pc, #64]	; (8001dd8 <HAL_ADC_Start_DMA+0x11c>)
 8001d98:	685b      	ldr	r3, [r3, #4]
 8001d9a:	f013 0f1f 	tst.w	r3, #31
 8001d9e:	6823      	ldr	r3, [r4, #0]
 8001da0:	d108      	bne.n	8001db4 <HAL_ADC_Start_DMA+0xf8>
      if((hadc->Instance == ADC1) && ((hadc->Instance->CR2 & ADC_CR2_EXTEN) == RESET))
 8001da2:	6898      	ldr	r0, [r3, #8]
 8001da4:	f010 5040 	ands.w	r0, r0, #805306368	; 0x30000000
 8001da8:	d1ad      	bne.n	8001d06 <HAL_ADC_Start_DMA+0x4a>
          hadc->Instance->CR2 |= (uint32_t)ADC_CR2_SWSTART;
 8001daa:	689a      	ldr	r2, [r3, #8]
 8001dac:	f042 4280 	orr.w	r2, r2, #1073741824	; 0x40000000
 8001db0:	609a      	str	r2, [r3, #8]
 8001db2:	e7a9      	b.n	8001d08 <HAL_ADC_Start_DMA+0x4c>
      if((hadc->Instance == ADC1) && ((hadc->Instance->CR2 & ADC_CR2_EXTEN) == RESET))
 8001db4:	4a09      	ldr	r2, [pc, #36]	; (8001ddc <HAL_ADC_Start_DMA+0x120>)
 8001db6:	4293      	cmp	r3, r2
 8001db8:	d1a5      	bne.n	8001d06 <HAL_ADC_Start_DMA+0x4a>
 8001dba:	e7f2      	b.n	8001da2 <HAL_ADC_Start_DMA+0xe6>
  __HAL_LOCK(hadc);
 8001dbc:	2002      	movs	r0, #2
 8001dbe:	e7a3      	b.n	8001d08 <HAL_ADC_Start_DMA+0x4c>
 8001dc0:	08008214 	.word	0x08008214
 8001dc4:	000f4240 	.word	0x000f4240
 8001dc8:	20000408 	.word	0x20000408
 8001dcc:	08001de1 	.word	0x08001de1
 8001dd0:	08001e43 	.word	0x08001e43
 8001dd4:	08001e4f 	.word	0x08001e4f
 8001dd8:	40012300 	.word	0x40012300
 8001ddc:	40012000 	.word	0x40012000

08001de0 <ADC_DMAConvCplt>:
  * @retval None
  */
static void ADC_DMAConvCplt(DMA_HandleTypeDef *hdma)   
{
  /* Retrieve ADC handle corresponding to current DMA handle */
  ADC_HandleTypeDef* hadc = ( ADC_HandleTypeDef* )((DMA_HandleTypeDef* )hdma)->Parent;
 8001de0:	6b83      	ldr	r3, [r0, #56]	; 0x38
  
  /* Update state machine on conversion status if not in error state */
  if (HAL_IS_BIT_CLR(hadc->State, HAL_ADC_STATE_ERROR_INTERNAL | HAL_ADC_STATE_ERROR_DMA))
 8001de2:	6c1a      	ldr	r2, [r3, #64]	; 0x40
 8001de4:	f012 0f50 	tst.w	r2, #80	; 0x50
{
 8001de8:	b510      	push	{r4, lr}
  if (HAL_IS_BIT_CLR(hadc->State, HAL_ADC_STATE_ERROR_INTERNAL | HAL_ADC_STATE_ERROR_DMA))
 8001dea:	d124      	bne.n	8001e36 <ADC_DMAConvCplt+0x56>
  {
    /* Update ADC state machine */
    SET_BIT(hadc->State, HAL_ADC_STATE_REG_EOC);
 8001dec:	6c1a      	ldr	r2, [r3, #64]	; 0x40
 8001dee:	f442 7200 	orr.w	r2, r2, #512	; 0x200
 8001df2:	641a      	str	r2, [r3, #64]	; 0x40
    /* by external trigger, continuous mode or scan sequence on going.      */
    /* Note: On STM32F4, there is no independent flag of end of sequence.   */
    /*       The test of scan sequence on going is done either with scan    */
    /*       sequence disabled or with end of conversion flag set to        */
    /*       of end of sequence.                                            */
    if(ADC_IS_SOFTWARE_START_REGULAR(hadc)                   &&
 8001df4:	681a      	ldr	r2, [r3, #0]
 8001df6:	6891      	ldr	r1, [r2, #8]
 8001df8:	f011 5f40 	tst.w	r1, #805306368	; 0x30000000
 8001dfc:	d117      	bne.n	8001e2e <ADC_DMAConvCplt+0x4e>
 8001dfe:	6999      	ldr	r1, [r3, #24]
 8001e00:	b9a9      	cbnz	r1, 8001e2e <ADC_DMAConvCplt+0x4e>
       (hadc->Init.ContinuousConvMode == DISABLE)            &&
       (HAL_IS_BIT_CLR(hadc->Instance->SQR1, ADC_SQR1_L) || 
 8001e02:	6ad1      	ldr	r1, [r2, #44]	; 0x2c
       (hadc->Init.ContinuousConvMode == DISABLE)            &&
 8001e04:	f411 0f70 	tst.w	r1, #15728640	; 0xf00000
 8001e08:	d002      	beq.n	8001e10 <ADC_DMAConvCplt+0x30>
        HAL_IS_BIT_CLR(hadc->Instance->CR2, ADC_CR2_EOCS)  )   )
 8001e0a:	6891      	ldr	r1, [r2, #8]
       (HAL_IS_BIT_CLR(hadc->Instance->SQR1, ADC_SQR1_L) || 
 8001e0c:	0549      	lsls	r1, r1, #21
 8001e0e:	d40e      	bmi.n	8001e2e <ADC_DMAConvCplt+0x4e>
    {
      /* Disable ADC end of single conversion interrupt on group regular */
      /* Note: Overrun interrupt was enabled with EOC interrupt in          */
      /* HAL_ADC_Start_IT(), but is not disabled here because can be used   */
      /* by overrun IRQ process below.                                      */
      __HAL_ADC_DISABLE_IT(hadc, ADC_IT_EOC);
 8001e10:	6851      	ldr	r1, [r2, #4]
 8001e12:	f021 0120 	bic.w	r1, r1, #32
 8001e16:	6051      	str	r1, [r2, #4]
      
      /* Set ADC state */
      CLEAR_BIT(hadc->State, HAL_ADC_STATE_REG_BUSY);   
 8001e18:	6c1a      	ldr	r2, [r3, #64]	; 0x40
 8001e1a:	f422 7280 	bic.w	r2, r2, #256	; 0x100
 8001e1e:	641a      	str	r2, [r3, #64]	; 0x40
      
      if (HAL_IS_BIT_CLR(hadc->State, HAL_ADC_STATE_INJ_BUSY))
 8001e20:	6c1a      	ldr	r2, [r3, #64]	; 0x40
 8001e22:	04d2      	lsls	r2, r2, #19
      {
        SET_BIT(hadc->State, HAL_ADC_STATE_READY);
 8001e24:	bf5e      	ittt	pl
 8001e26:	6c1a      	ldrpl	r2, [r3, #64]	; 0x40
 8001e28:	f042 0201 	orrpl.w	r2, r2, #1
 8001e2c:	641a      	strpl	r2, [r3, #64]	; 0x40
      }
    }
    
    /* Conversion complete callback */
    HAL_ADC_ConvCpltCallback(hadc);
 8001e2e:	4618      	mov	r0, r3
 8001e30:	f7ff fa12 	bl	8001258 <HAL_ADC_ConvCpltCallback>
 8001e34:	bd10      	pop	{r4, pc}
  }
  else
  {
    /* Call DMA error callback */
    hadc->DMA_Handle->XferErrorCallback(hdma);
 8001e36:	6b9b      	ldr	r3, [r3, #56]	; 0x38
  }
}
 8001e38:	e8bd 4010 	ldmia.w	sp!, {r4, lr}
    hadc->DMA_Handle->XferErrorCallback(hdma);
 8001e3c:	6cdb      	ldr	r3, [r3, #76]	; 0x4c
 8001e3e:	4718      	bx	r3

08001e40 <HAL_ADC_ConvHalfCpltCallback>:
 8001e40:	4770      	bx	lr

08001e42 <ADC_DMAHalfConvCplt>:
  * @param  hdma: pointer to a DMA_HandleTypeDef structure that contains
  *                the configuration information for the specified DMA module.
  * @retval None
  */
static void ADC_DMAHalfConvCplt(DMA_HandleTypeDef *hdma)   
{
 8001e42:	b508      	push	{r3, lr}
  ADC_HandleTypeDef* hadc = ( ADC_HandleTypeDef* )((DMA_HandleTypeDef* )hdma)->Parent;
  /* Conversion complete callback */
  HAL_ADC_ConvHalfCpltCallback(hadc); 
 8001e44:	6b80      	ldr	r0, [r0, #56]	; 0x38
 8001e46:	f7ff fffb 	bl	8001e40 <HAL_ADC_ConvHalfCpltCallback>
 8001e4a:	bd08      	pop	{r3, pc}

08001e4c <HAL_ADC_ErrorCallback>:
{
 8001e4c:	4770      	bx	lr

08001e4e <ADC_DMAError>:
  *                the configuration information for the specified DMA module.
  * @retval None
  */
static void ADC_DMAError(DMA_HandleTypeDef *hdma)   
{
  ADC_HandleTypeDef* hadc = ( ADC_HandleTypeDef* )((DMA_HandleTypeDef* )hdma)->Parent;
 8001e4e:	6b80      	ldr	r0, [r0, #56]	; 0x38
{
 8001e50:	b508      	push	{r3, lr}
  hadc->State= HAL_ADC_STATE_ERROR_DMA;
 8001e52:	2340      	movs	r3, #64	; 0x40
 8001e54:	6403      	str	r3, [r0, #64]	; 0x40
  /* Set ADC error code to DMA error */
  hadc->ErrorCode |= HAL_ADC_ERROR_DMA;
 8001e56:	6c43      	ldr	r3, [r0, #68]	; 0x44
 8001e58:	f043 0304 	orr.w	r3, r3, #4
 8001e5c:	6443      	str	r3, [r0, #68]	; 0x44
  HAL_ADC_ErrorCallback(hadc); 
 8001e5e:	f7ff fff5 	bl	8001e4c <HAL_ADC_ErrorCallback>
 8001e62:	bd08      	pop	{r3, pc}

08001e64 <HAL_ADC_ConfigChannel>:
{
 8001e64:	b5f7      	push	{r0, r1, r2, r4, r5, r6, r7, lr}
  __IO uint32_t counter = 0U;
 8001e66:	2300      	movs	r3, #0
 8001e68:	9301      	str	r3, [sp, #4]
  assert_param(IS_ADC_CHANNEL(sConfig->Channel));
 8001e6a:	680b      	ldr	r3, [r1, #0]
 8001e6c:	2b12      	cmp	r3, #18
{
 8001e6e:	4604      	mov	r4, r0
 8001e70:	460f      	mov	r7, r1
  assert_param(IS_ADC_CHANNEL(sConfig->Channel));
 8001e72:	d907      	bls.n	8001e84 <HAL_ADC_ConfigChannel+0x20>
 8001e74:	4a51      	ldr	r2, [pc, #324]	; (8001fbc <HAL_ADC_ConfigChannel+0x158>)
 8001e76:	4293      	cmp	r3, r2
 8001e78:	d004      	beq.n	8001e84 <HAL_ADC_ConfigChannel+0x20>
 8001e7a:	f240 5117 	movw	r1, #1303	; 0x517
 8001e7e:	4850      	ldr	r0, [pc, #320]	; (8001fc0 <HAL_ADC_ConfigChannel+0x15c>)
 8001e80:	f7fe ff47 	bl	8000d12 <assert_failed>
  assert_param(IS_ADC_REGULAR_RANK(sConfig->Rank));
 8001e84:	687b      	ldr	r3, [r7, #4]
 8001e86:	3b01      	subs	r3, #1
 8001e88:	2b0f      	cmp	r3, #15
 8001e8a:	d904      	bls.n	8001e96 <HAL_ADC_ConfigChannel+0x32>
 8001e8c:	f44f 61a3 	mov.w	r1, #1304	; 0x518
 8001e90:	484b      	ldr	r0, [pc, #300]	; (8001fc0 <HAL_ADC_ConfigChannel+0x15c>)
 8001e92:	f7fe ff3e 	bl	8000d12 <assert_failed>
  assert_param(IS_ADC_SAMPLE_TIME(sConfig->SamplingTime));
 8001e96:	68bb      	ldr	r3, [r7, #8]
 8001e98:	2b07      	cmp	r3, #7
 8001e9a:	d904      	bls.n	8001ea6 <HAL_ADC_ConfigChannel+0x42>
 8001e9c:	f240 5119 	movw	r1, #1305	; 0x519
 8001ea0:	4847      	ldr	r0, [pc, #284]	; (8001fc0 <HAL_ADC_ConfigChannel+0x15c>)
 8001ea2:	f7fe ff36 	bl	8000d12 <assert_failed>
  __HAL_LOCK(hadc);
 8001ea6:	f894 303c 	ldrb.w	r3, [r4, #60]	; 0x3c
 8001eaa:	2b01      	cmp	r3, #1
 8001eac:	d069      	beq.n	8001f82 <HAL_ADC_ConfigChannel+0x11e>
  if (sConfig->Channel > ADC_CHANNEL_9)
 8001eae:	683d      	ldr	r5, [r7, #0]
 8001eb0:	68ba      	ldr	r2, [r7, #8]
 8001eb2:	6820      	ldr	r0, [r4, #0]
  __HAL_LOCK(hadc);
 8001eb4:	2301      	movs	r3, #1
  if (sConfig->Channel > ADC_CHANNEL_9)
 8001eb6:	2d09      	cmp	r5, #9
  __HAL_LOCK(hadc);
 8001eb8:	f884 303c 	strb.w	r3, [r4, #60]	; 0x3c
 8001ebc:	b2ae      	uxth	r6, r5
  if (sConfig->Channel > ADC_CHANNEL_9)
 8001ebe:	d929      	bls.n	8001f14 <HAL_ADC_ConfigChannel+0xb0>
    hadc->Instance->SMPR1 &= ~ADC_SMPR1(ADC_SMPR1_SMP10, sConfig->Channel);
 8001ec0:	eb06 0346 	add.w	r3, r6, r6, lsl #1
 8001ec4:	68c1      	ldr	r1, [r0, #12]
 8001ec6:	3b1e      	subs	r3, #30
 8001ec8:	f04f 0e07 	mov.w	lr, #7
 8001ecc:	fa0e fe03 	lsl.w	lr, lr, r3
 8001ed0:	ea21 010e 	bic.w	r1, r1, lr
 8001ed4:	60c1      	str	r1, [r0, #12]
    hadc->Instance->SMPR1 |= ADC_SMPR1(sConfig->SamplingTime, sConfig->Channel);
 8001ed6:	68c1      	ldr	r1, [r0, #12]
 8001ed8:	fa02 f303 	lsl.w	r3, r2, r3
 8001edc:	430b      	orrs	r3, r1
 8001ede:	60c3      	str	r3, [r0, #12]
  if (sConfig->Rank < 7U)
 8001ee0:	687a      	ldr	r2, [r7, #4]
 8001ee2:	2a06      	cmp	r2, #6
 8001ee4:	ea4f 0382 	mov.w	r3, r2, lsl #2
 8001ee8:	d824      	bhi.n	8001f34 <HAL_ADC_ConfigChannel+0xd0>
    hadc->Instance->SQR3 &= ~ADC_SQR3_RK(ADC_SQR3_SQ1, sConfig->Rank);
 8001eea:	4413      	add	r3, r2
 8001eec:	6b47      	ldr	r7, [r0, #52]	; 0x34
 8001eee:	1f59      	subs	r1, r3, #5
 8001ef0:	231f      	movs	r3, #31
 8001ef2:	408b      	lsls	r3, r1
 8001ef4:	ea27 0303 	bic.w	r3, r7, r3
 8001ef8:	6343      	str	r3, [r0, #52]	; 0x34
    hadc->Instance->SQR3 |= ADC_SQR3_RK(sConfig->Channel, sConfig->Rank);
 8001efa:	6b42      	ldr	r2, [r0, #52]	; 0x34
 8001efc:	fa06 f101 	lsl.w	r1, r6, r1
 8001f00:	4311      	orrs	r1, r2
 8001f02:	6341      	str	r1, [r0, #52]	; 0x34
  if ((hadc->Instance == ADC1) && (sConfig->Channel == ADC_CHANNEL_VBAT))
 8001f04:	4b2f      	ldr	r3, [pc, #188]	; (8001fc4 <HAL_ADC_ConfigChannel+0x160>)
 8001f06:	4298      	cmp	r0, r3
 8001f08:	d033      	beq.n	8001f72 <HAL_ADC_ConfigChannel+0x10e>
  __HAL_UNLOCK(hadc);
 8001f0a:	2000      	movs	r0, #0
 8001f0c:	f884 003c 	strb.w	r0, [r4, #60]	; 0x3c
}
 8001f10:	b003      	add	sp, #12
 8001f12:	bdf0      	pop	{r4, r5, r6, r7, pc}
    hadc->Instance->SMPR2 &= ~ADC_SMPR2(ADC_SMPR2_SMP0, sConfig->Channel);
 8001f14:	6901      	ldr	r1, [r0, #16]
 8001f16:	eb05 0345 	add.w	r3, r5, r5, lsl #1
 8001f1a:	f04f 0e07 	mov.w	lr, #7
 8001f1e:	fa0e fe03 	lsl.w	lr, lr, r3
 8001f22:	ea21 010e 	bic.w	r1, r1, lr
 8001f26:	6101      	str	r1, [r0, #16]
    hadc->Instance->SMPR2 |= ADC_SMPR2(sConfig->SamplingTime, sConfig->Channel);
 8001f28:	6901      	ldr	r1, [r0, #16]
 8001f2a:	fa02 f303 	lsl.w	r3, r2, r3
 8001f2e:	430b      	orrs	r3, r1
 8001f30:	6103      	str	r3, [r0, #16]
 8001f32:	e7d5      	b.n	8001ee0 <HAL_ADC_ConfigChannel+0x7c>
  else if (sConfig->Rank < 13U)
 8001f34:	2a0c      	cmp	r2, #12
 8001f36:	d80e      	bhi.n	8001f56 <HAL_ADC_ConfigChannel+0xf2>
    hadc->Instance->SQR2 &= ~ADC_SQR2_RK(ADC_SQR2_SQ7, sConfig->Rank);
 8001f38:	4413      	add	r3, r2
 8001f3a:	6b01      	ldr	r1, [r0, #48]	; 0x30
 8001f3c:	f1a3 0223 	sub.w	r2, r3, #35	; 0x23
 8001f40:	231f      	movs	r3, #31
 8001f42:	4093      	lsls	r3, r2
 8001f44:	ea21 0303 	bic.w	r3, r1, r3
 8001f48:	6303      	str	r3, [r0, #48]	; 0x30
    hadc->Instance->SQR2 |= ADC_SQR2_RK(sConfig->Channel, sConfig->Rank);
 8001f4a:	6b03      	ldr	r3, [r0, #48]	; 0x30
 8001f4c:	fa06 f202 	lsl.w	r2, r6, r2
 8001f50:	431a      	orrs	r2, r3
 8001f52:	6302      	str	r2, [r0, #48]	; 0x30
 8001f54:	e7d6      	b.n	8001f04 <HAL_ADC_ConfigChannel+0xa0>
    hadc->Instance->SQR1 &= ~ADC_SQR1_RK(ADC_SQR1_SQ13, sConfig->Rank);
 8001f56:	4413      	add	r3, r2
 8001f58:	6ac1      	ldr	r1, [r0, #44]	; 0x2c
 8001f5a:	3b41      	subs	r3, #65	; 0x41
 8001f5c:	221f      	movs	r2, #31
 8001f5e:	409a      	lsls	r2, r3
 8001f60:	ea21 0202 	bic.w	r2, r1, r2
 8001f64:	62c2      	str	r2, [r0, #44]	; 0x2c
    hadc->Instance->SQR1 |= ADC_SQR1_RK(sConfig->Channel, sConfig->Rank);
 8001f66:	6ac2      	ldr	r2, [r0, #44]	; 0x2c
 8001f68:	fa06 f103 	lsl.w	r1, r6, r3
 8001f6c:	4311      	orrs	r1, r2
 8001f6e:	62c1      	str	r1, [r0, #44]	; 0x2c
 8001f70:	e7c8      	b.n	8001f04 <HAL_ADC_ConfigChannel+0xa0>
  if ((hadc->Instance == ADC1) && (sConfig->Channel == ADC_CHANNEL_VBAT))
 8001f72:	2d12      	cmp	r5, #18
 8001f74:	d107      	bne.n	8001f86 <HAL_ADC_ConfigChannel+0x122>
    tmpADC_Common->CCR |= ADC_CCR_VBATE;
 8001f76:	4a14      	ldr	r2, [pc, #80]	; (8001fc8 <HAL_ADC_ConfigChannel+0x164>)
 8001f78:	6853      	ldr	r3, [r2, #4]
 8001f7a:	f443 0380 	orr.w	r3, r3, #4194304	; 0x400000
 8001f7e:	6053      	str	r3, [r2, #4]
 8001f80:	e7c3      	b.n	8001f0a <HAL_ADC_ConfigChannel+0xa6>
  __HAL_LOCK(hadc);
 8001f82:	2002      	movs	r0, #2
 8001f84:	e7c4      	b.n	8001f10 <HAL_ADC_ConfigChannel+0xac>
  if ((hadc->Instance == ADC1) && ((sConfig->Channel == ADC_CHANNEL_TEMPSENSOR) || (sConfig->Channel == ADC_CHANNEL_VREFINT)))
 8001f86:	4b0d      	ldr	r3, [pc, #52]	; (8001fbc <HAL_ADC_ConfigChannel+0x158>)
 8001f88:	429d      	cmp	r5, r3
 8001f8a:	d001      	beq.n	8001f90 <HAL_ADC_ConfigChannel+0x12c>
 8001f8c:	2d11      	cmp	r5, #17
 8001f8e:	d1bc      	bne.n	8001f0a <HAL_ADC_ConfigChannel+0xa6>
    tmpADC_Common->CCR |= ADC_CCR_TSVREFE;
 8001f90:	490d      	ldr	r1, [pc, #52]	; (8001fc8 <HAL_ADC_ConfigChannel+0x164>)
 8001f92:	684a      	ldr	r2, [r1, #4]
    if((sConfig->Channel == ADC_CHANNEL_TEMPSENSOR))
 8001f94:	429d      	cmp	r5, r3
    tmpADC_Common->CCR |= ADC_CCR_TSVREFE;
 8001f96:	f442 0200 	orr.w	r2, r2, #8388608	; 0x800000
 8001f9a:	604a      	str	r2, [r1, #4]
    if((sConfig->Channel == ADC_CHANNEL_TEMPSENSOR))
 8001f9c:	d1b5      	bne.n	8001f0a <HAL_ADC_ConfigChannel+0xa6>
      counter = (ADC_TEMPSENSOR_DELAY_US * (SystemCoreClock / 1000000U));
 8001f9e:	4b0b      	ldr	r3, [pc, #44]	; (8001fcc <HAL_ADC_ConfigChannel+0x168>)
 8001fa0:	4a0b      	ldr	r2, [pc, #44]	; (8001fd0 <HAL_ADC_ConfigChannel+0x16c>)
 8001fa2:	681b      	ldr	r3, [r3, #0]
 8001fa4:	fbb3 f2f2 	udiv	r2, r3, r2
 8001fa8:	230a      	movs	r3, #10
 8001faa:	4353      	muls	r3, r2
        counter--;
 8001fac:	9301      	str	r3, [sp, #4]
      while(counter != 0U)
 8001fae:	9b01      	ldr	r3, [sp, #4]
 8001fb0:	2b00      	cmp	r3, #0
 8001fb2:	d0aa      	beq.n	8001f0a <HAL_ADC_ConfigChannel+0xa6>
        counter--;
 8001fb4:	9b01      	ldr	r3, [sp, #4]
 8001fb6:	3b01      	subs	r3, #1
 8001fb8:	e7f8      	b.n	8001fac <HAL_ADC_ConfigChannel+0x148>
 8001fba:	bf00      	nop
 8001fbc:	10000012 	.word	0x10000012
 8001fc0:	08008214 	.word	0x08008214
 8001fc4:	40012000 	.word	0x40012000
 8001fc8:	40012300 	.word	0x40012300
 8001fcc:	20000408 	.word	0x20000408
 8001fd0:	000f4240 	.word	0x000f4240

08001fd4 <HAL_NVIC_SetPriorityGrouping>:
  * @retval None
  */
void HAL_NVIC_SetPriorityGrouping(uint32_t PriorityGroup)
{
  /* Check the parameters */
  assert_param(IS_NVIC_PRIORITY_GROUP(PriorityGroup));
 8001fd4:	1ec3      	subs	r3, r0, #3
 8001fd6:	2b04      	cmp	r3, #4
{
 8001fd8:	b510      	push	{r4, lr}
 8001fda:	4604      	mov	r4, r0
  assert_param(IS_NVIC_PRIORITY_GROUP(PriorityGroup));
 8001fdc:	d903      	bls.n	8001fe6 <HAL_NVIC_SetPriorityGrouping+0x12>
 8001fde:	21a4      	movs	r1, #164	; 0xa4
 8001fe0:	4809      	ldr	r0, [pc, #36]	; (8002008 <HAL_NVIC_SetPriorityGrouping+0x34>)
 8001fe2:	f7fe fe96 	bl	8000d12 <assert_failed>
__STATIC_INLINE void NVIC_SetPriorityGrouping(uint32_t PriorityGroup)
{
  uint32_t reg_value;
  uint32_t PriorityGroupTmp = (PriorityGroup & (uint32_t)0x07UL);             /* only values 0..7 are used          */

  reg_value  =  SCB->AIRCR;                                                   /* read old register configuration    */
 8001fe6:	4a09      	ldr	r2, [pc, #36]	; (800200c <HAL_NVIC_SetPriorityGrouping+0x38>)
 8001fe8:	68d3      	ldr	r3, [r2, #12]
  reg_value &= ~((uint32_t)(SCB_AIRCR_VECTKEY_Msk | SCB_AIRCR_PRIGROUP_Msk)); /* clear bits to change               */
 8001fea:	f423 63e0 	bic.w	r3, r3, #1792	; 0x700
 8001fee:	041b      	lsls	r3, r3, #16
 8001ff0:	0c1b      	lsrs	r3, r3, #16
 8001ff2:	f043 63bf 	orr.w	r3, r3, #100139008	; 0x5f80000
  reg_value  =  (reg_value                                   |
                ((uint32_t)0x5FAUL << SCB_AIRCR_VECTKEY_Pos) |
                (PriorityGroupTmp << 8U)                      );              /* Insert write key and priorty group */
 8001ff6:	0224      	lsls	r4, r4, #8
 8001ff8:	f443 3300 	orr.w	r3, r3, #131072	; 0x20000
 8001ffc:	f404 64e0 	and.w	r4, r4, #1792	; 0x700
  reg_value  =  (reg_value                                   |
 8002000:	431c      	orrs	r4, r3
  SCB->AIRCR =  reg_value;
 8002002:	60d4      	str	r4, [r2, #12]
 8002004:	bd10      	pop	{r4, pc}
 8002006:	bf00      	nop
 8002008:	08008252 	.word	0x08008252
 800200c:	e000ed00 	.word	0xe000ed00

08002010 <HAL_NVIC_SetPriority>:
void HAL_NVIC_SetPriority(IRQn_Type IRQn, uint32_t PreemptPriority, uint32_t SubPriority)
{ 
  uint32_t prioritygroup = 0x00U;
  
  /* Check the parameters */
  assert_param(IS_NVIC_SUB_PRIORITY(SubPriority));
 8002010:	2a0f      	cmp	r2, #15
{ 
 8002012:	b570      	push	{r4, r5, r6, lr}
 8002014:	4604      	mov	r4, r0
 8002016:	460e      	mov	r6, r1
 8002018:	4615      	mov	r5, r2
  assert_param(IS_NVIC_SUB_PRIORITY(SubPriority));
 800201a:	d903      	bls.n	8002024 <HAL_NVIC_SetPriority+0x14>
 800201c:	21bc      	movs	r1, #188	; 0xbc
 800201e:	481a      	ldr	r0, [pc, #104]	; (8002088 <HAL_NVIC_SetPriority+0x78>)
 8002020:	f7fe fe77 	bl	8000d12 <assert_failed>
  assert_param(IS_NVIC_PREEMPTION_PRIORITY(PreemptPriority));
 8002024:	2e0f      	cmp	r6, #15
 8002026:	d903      	bls.n	8002030 <HAL_NVIC_SetPriority+0x20>
 8002028:	21bd      	movs	r1, #189	; 0xbd
 800202a:	4817      	ldr	r0, [pc, #92]	; (8002088 <HAL_NVIC_SetPriority+0x78>)
 800202c:	f7fe fe71 	bl	8000d12 <assert_failed>
  \details Reads the priority grouping field from the NVIC Interrupt Controller.
  \return                Priority grouping field (SCB->AIRCR [10:8] PRIGROUP field).
 */
__STATIC_INLINE uint32_t NVIC_GetPriorityGrouping(void)
{
  return ((uint32_t)((SCB->AIRCR & SCB_AIRCR_PRIGROUP_Msk) >> SCB_AIRCR_PRIGROUP_Pos));
 8002030:	4b16      	ldr	r3, [pc, #88]	; (800208c <HAL_NVIC_SetPriority+0x7c>)
 8002032:	68d9      	ldr	r1, [r3, #12]
 8002034:	f3c1 2102 	ubfx	r1, r1, #8, #3
{
  uint32_t PriorityGroupTmp = (PriorityGroup & (uint32_t)0x07UL);   /* only values 0..7 are used          */
  uint32_t PreemptPriorityBits;
  uint32_t SubPriorityBits;

  PreemptPriorityBits = ((7UL - PriorityGroupTmp) > (uint32_t)(__NVIC_PRIO_BITS)) ? (uint32_t)(__NVIC_PRIO_BITS) : (uint32_t)(7UL - PriorityGroupTmp);
 8002038:	f1c1 0307 	rsb	r3, r1, #7
  SubPriorityBits     = ((PriorityGroupTmp + (uint32_t)(__NVIC_PRIO_BITS)) < (uint32_t)7UL) ? (uint32_t)0UL : (uint32_t)((PriorityGroupTmp - 7UL) + (uint32_t)(__NVIC_PRIO_BITS));
 800203c:	1d0a      	adds	r2, r1, #4
  PreemptPriorityBits = ((7UL - PriorityGroupTmp) > (uint32_t)(__NVIC_PRIO_BITS)) ? (uint32_t)(__NVIC_PRIO_BITS) : (uint32_t)(7UL - PriorityGroupTmp);
 800203e:	2b04      	cmp	r3, #4
 8002040:	bf28      	it	cs
 8002042:	2304      	movcs	r3, #4

  return (
           ((PreemptPriority & (uint32_t)((1UL << (PreemptPriorityBits)) - 1UL)) << SubPriorityBits) |
 8002044:	2001      	movs	r0, #1
  SubPriorityBits     = ((PriorityGroupTmp + (uint32_t)(__NVIC_PRIO_BITS)) < (uint32_t)7UL) ? (uint32_t)0UL : (uint32_t)((PriorityGroupTmp - 7UL) + (uint32_t)(__NVIC_PRIO_BITS));
 8002046:	2a06      	cmp	r2, #6
 8002048:	bf8c      	ite	hi
 800204a:	3903      	subhi	r1, #3
 800204c:	2100      	movls	r1, #0
           ((PreemptPriority & (uint32_t)((1UL << (PreemptPriorityBits)) - 1UL)) << SubPriorityBits) |
 800204e:	fa00 f203 	lsl.w	r2, r0, r3
 8002052:	3a01      	subs	r2, #1
           ((SubPriority     & (uint32_t)((1UL << (SubPriorityBits    )) - 1UL)))
 8002054:	4088      	lsls	r0, r1
           ((PreemptPriority & (uint32_t)((1UL << (PreemptPriorityBits)) - 1UL)) << SubPriorityBits) |
 8002056:	4032      	ands	r2, r6
           ((SubPriority     & (uint32_t)((1UL << (SubPriorityBits    )) - 1UL)))
 8002058:	3801      	subs	r0, #1
           ((PreemptPriority & (uint32_t)((1UL << (PreemptPriorityBits)) - 1UL)) << SubPriorityBits) |
 800205a:	408a      	lsls	r2, r1
           ((SubPriority     & (uint32_t)((1UL << (SubPriorityBits    )) - 1UL)))
 800205c:	4005      	ands	r5, r0
  if ((int32_t)(IRQn) < 0)
 800205e:	2c00      	cmp	r4, #0
           ((PreemptPriority & (uint32_t)((1UL << (PreemptPriorityBits)) - 1UL)) << SubPriorityBits) |
 8002060:	ea42 0205 	orr.w	r2, r2, r5
 8002064:	ea4f 1202 	mov.w	r2, r2, lsl #4
    NVIC->IP[((uint32_t)(int32_t)IRQn)]               = (uint8_t)((priority << (8U - __NVIC_PRIO_BITS)) & (uint32_t)0xFFUL);
 8002068:	bfaf      	iteee	ge
 800206a:	f104 4460 	addge.w	r4, r4, #3758096384	; 0xe0000000
    SCB->SHP[(((uint32_t)(int32_t)IRQn) & 0xFUL)-4UL] = (uint8_t)((priority << (8U - __NVIC_PRIO_BITS)) & (uint32_t)0xFFUL);
 800206e:	f004 040f 	andlt.w	r4, r4, #15
 8002072:	4b07      	ldrlt	r3, [pc, #28]	; (8002090 <HAL_NVIC_SetPriority+0x80>)
 8002074:	b2d2      	uxtblt	r2, r2
    NVIC->IP[((uint32_t)(int32_t)IRQn)]               = (uint8_t)((priority << (8U - __NVIC_PRIO_BITS)) & (uint32_t)0xFFUL);
 8002076:	bfa5      	ittet	ge
 8002078:	f504 4461 	addge.w	r4, r4, #57600	; 0xe100
 800207c:	b2d2      	uxtbge	r2, r2
    SCB->SHP[(((uint32_t)(int32_t)IRQn) & 0xFUL)-4UL] = (uint8_t)((priority << (8U - __NVIC_PRIO_BITS)) & (uint32_t)0xFFUL);
 800207e:	551a      	strblt	r2, [r3, r4]
    NVIC->IP[((uint32_t)(int32_t)IRQn)]               = (uint8_t)((priority << (8U - __NVIC_PRIO_BITS)) & (uint32_t)0xFFUL);
 8002080:	f884 2300 	strbge.w	r2, [r4, #768]	; 0x300
 8002084:	bd70      	pop	{r4, r5, r6, pc}
 8002086:	bf00      	nop
 8002088:	08008252 	.word	0x08008252
 800208c:	e000ed00 	.word	0xe000ed00
 8002090:	e000ed14 	.word	0xe000ed14

08002094 <HAL_NVIC_EnableIRQ>:
  *         This parameter can be an enumerator of IRQn_Type enumeration
  *         (For the complete STM32 Devices IRQ Channels list, please refer to the appropriate CMSIS device file (stm32f4xxxx.h))
  * @retval None
  */
void HAL_NVIC_EnableIRQ(IRQn_Type IRQn)
{
 8002094:	b510      	push	{r4, lr}
  /* Check the parameters */
  assert_param(IS_NVIC_DEVICE_IRQ(IRQn));
 8002096:	1e04      	subs	r4, r0, #0
 8002098:	da03      	bge.n	80020a2 <HAL_NVIC_EnableIRQ+0xe>
 800209a:	21d0      	movs	r1, #208	; 0xd0
 800209c:	4806      	ldr	r0, [pc, #24]	; (80020b8 <HAL_NVIC_EnableIRQ+0x24>)
 800209e:	f7fe fe38 	bl	8000d12 <assert_failed>
  NVIC->ISER[(((uint32_t)(int32_t)IRQn) >> 5UL)] = (uint32_t)(1UL << (((uint32_t)(int32_t)IRQn) & 0x1FUL));
 80020a2:	0962      	lsrs	r2, r4, #5
 80020a4:	2301      	movs	r3, #1
 80020a6:	f004 041f 	and.w	r4, r4, #31
 80020aa:	fa03 f404 	lsl.w	r4, r3, r4
 80020ae:	4b03      	ldr	r3, [pc, #12]	; (80020bc <HAL_NVIC_EnableIRQ+0x28>)
 80020b0:	f843 4022 	str.w	r4, [r3, r2, lsl #2]
 80020b4:	bd10      	pop	{r4, pc}
 80020b6:	bf00      	nop
 80020b8:	08008252 	.word	0x08008252
 80020bc:	e000e100 	.word	0xe000e100

080020c0 <HAL_SYSTICK_Config>:
           function <b>SysTick_Config</b> is not included. In this case, the file <b><i>device</i>.h</b>
           must contain a vendor-specific implementation of this function.
 */
__STATIC_INLINE uint32_t SysTick_Config(uint32_t ticks)
{
  if ((ticks - 1UL) > SysTick_LOAD_RELOAD_Msk)
 80020c0:	3801      	subs	r0, #1
 80020c2:	f1b0 7f80 	cmp.w	r0, #16777216	; 0x1000000
 80020c6:	d20a      	bcs.n	80020de <HAL_SYSTICK_Config+0x1e>
  {
    return (1UL);                                                   /* Reload value impossible */
  }

  SysTick->LOAD  = (uint32_t)(ticks - 1UL);                         /* set reload register */
 80020c8:	4b06      	ldr	r3, [pc, #24]	; (80020e4 <HAL_SYSTICK_Config+0x24>)
    SCB->SHP[(((uint32_t)(int32_t)IRQn) & 0xFUL)-4UL] = (uint8_t)((priority << (8U - __NVIC_PRIO_BITS)) & (uint32_t)0xFFUL);
 80020ca:	4a07      	ldr	r2, [pc, #28]	; (80020e8 <HAL_SYSTICK_Config+0x28>)
  SysTick->LOAD  = (uint32_t)(ticks - 1UL);                         /* set reload register */
 80020cc:	6058      	str	r0, [r3, #4]
    SCB->SHP[(((uint32_t)(int32_t)IRQn) & 0xFUL)-4UL] = (uint8_t)((priority << (8U - __NVIC_PRIO_BITS)) & (uint32_t)0xFFUL);
 80020ce:	21f0      	movs	r1, #240	; 0xf0
 80020d0:	f882 1023 	strb.w	r1, [r2, #35]	; 0x23
  NVIC_SetPriority (SysTick_IRQn, (1UL << __NVIC_PRIO_BITS) - 1UL); /* set Priority for Systick Interrupt */
  SysTick->VAL   = 0UL;                                             /* Load the SysTick Counter Value */
 80020d4:	2000      	movs	r0, #0
  SysTick->CTRL  = SysTick_CTRL_CLKSOURCE_Msk |
 80020d6:	2207      	movs	r2, #7
  SysTick->VAL   = 0UL;                                             /* Load the SysTick Counter Value */
 80020d8:	6098      	str	r0, [r3, #8]
  SysTick->CTRL  = SysTick_CTRL_CLKSOURCE_Msk |
 80020da:	601a      	str	r2, [r3, #0]
 80020dc:	4770      	bx	lr
    return (1UL);                                                   /* Reload value impossible */
 80020de:	2001      	movs	r0, #1
  *                  - 1  Function failed.
  */
uint32_t HAL_SYSTICK_Config(uint32_t TicksNumb)
{
   return SysTick_Config(TicksNumb);
}
 80020e0:	4770      	bx	lr
 80020e2:	bf00      	nop
 80020e4:	e000e010 	.word	0xe000e010
 80020e8:	e000ed00 	.word	0xe000ed00

080020ec <HAL_SYSTICK_CLKSourceConfig>:
  * @retval None
  */
void HAL_SYSTICK_CLKSourceConfig(uint32_t CLKSource)
{
  /* Check the parameters */
  assert_param(IS_SYSTICK_CLK_SOURCE(CLKSource));
 80020ec:	2804      	cmp	r0, #4
{
 80020ee:	b510      	push	{r4, lr}
 80020f0:	4c08      	ldr	r4, [pc, #32]	; (8002114 <HAL_SYSTICK_CLKSourceConfig+0x28>)
  assert_param(IS_SYSTICK_CLK_SOURCE(CLKSource));
 80020f2:	d00a      	beq.n	800210a <HAL_SYSTICK_CLKSourceConfig+0x1e>
 80020f4:	b120      	cbz	r0, 8002100 <HAL_SYSTICK_CLKSourceConfig+0x14>
 80020f6:	f240 11db 	movw	r1, #475	; 0x1db
 80020fa:	4807      	ldr	r0, [pc, #28]	; (8002118 <HAL_SYSTICK_CLKSourceConfig+0x2c>)
 80020fc:	f7fe fe09 	bl	8000d12 <assert_failed>
  {
    SysTick->CTRL |= SYSTICK_CLKSOURCE_HCLK;
  }
  else
  {
    SysTick->CTRL &= ~SYSTICK_CLKSOURCE_HCLK;
 8002100:	6823      	ldr	r3, [r4, #0]
 8002102:	f023 0304 	bic.w	r3, r3, #4
    SysTick->CTRL |= SYSTICK_CLKSOURCE_HCLK;
 8002106:	6023      	str	r3, [r4, #0]
 8002108:	bd10      	pop	{r4, pc}
 800210a:	6823      	ldr	r3, [r4, #0]
 800210c:	f043 0304 	orr.w	r3, r3, #4
 8002110:	e7f9      	b.n	8002106 <HAL_SYSTICK_CLKSourceConfig+0x1a>
 8002112:	bf00      	nop
 8002114:	e000e010 	.word	0xe000e010
 8002118:	08008252 	.word	0x08008252

0800211c <HAL_SYSTICK_Callback>:
/**
  * @brief  SYSTICK callback.
  * @retval None
  */
__weak void HAL_SYSTICK_Callback(void)
{
 800211c:	4770      	bx	lr

0800211e <HAL_SYSTICK_IRQHandler>:
{
 800211e:	b508      	push	{r3, lr}
  HAL_SYSTICK_Callback();
 8002120:	f7ff fffc 	bl	800211c <HAL_SYSTICK_Callback>
 8002124:	bd08      	pop	{r3, pc}
	...

08002128 <HAL_DAC_Init>:
  * @param  hdac: pointer to a DAC_HandleTypeDef structure that contains
  *         the configuration information for the specified DAC.
  * @retval HAL status
  */
HAL_StatusTypeDef HAL_DAC_Init(DAC_HandleTypeDef* hdac)
{ 
 8002128:	b510      	push	{r4, lr}
  /* Check DAC handle */
  if(hdac == NULL)
 800212a:	4604      	mov	r4, r0
 800212c:	b1b0      	cbz	r0, 800215c <HAL_DAC_Init+0x34>
  {
     return HAL_ERROR;
  }
  /* Check the parameters */
  assert_param(IS_DAC_ALL_INSTANCE(hdac->Instance));
 800212e:	6802      	ldr	r2, [r0, #0]
 8002130:	4b0b      	ldr	r3, [pc, #44]	; (8002160 <HAL_DAC_Init+0x38>)
 8002132:	429a      	cmp	r2, r3
 8002134:	d003      	beq.n	800213e <HAL_DAC_Init+0x16>
 8002136:	21f0      	movs	r1, #240	; 0xf0
 8002138:	480a      	ldr	r0, [pc, #40]	; (8002164 <HAL_DAC_Init+0x3c>)
 800213a:	f7fe fdea 	bl	8000d12 <assert_failed>
  
  if(hdac->State == HAL_DAC_STATE_RESET)
 800213e:	7923      	ldrb	r3, [r4, #4]
 8002140:	f003 02ff 	and.w	r2, r3, #255	; 0xff
 8002144:	b91b      	cbnz	r3, 800214e <HAL_DAC_Init+0x26>
  {  
    /* Allocate lock resource and initialize it */
    hdac->Lock = HAL_UNLOCKED;
 8002146:	7162      	strb	r2, [r4, #5]
    /* Init the low level hardware */
    HAL_DAC_MspInit(hdac);
 8002148:	4620      	mov	r0, r4
 800214a:	f7fe f971 	bl	8000430 <HAL_DAC_MspInit>
  }
  
  /* Initialize the DAC state*/
  hdac->State = HAL_DAC_STATE_BUSY;
 800214e:	2302      	movs	r3, #2
 8002150:	7123      	strb	r3, [r4, #4]
  
  /* Set DAC error code to none */
  hdac->ErrorCode = HAL_DAC_ERROR_NONE;
 8002152:	2000      	movs	r0, #0
  
  /* Initialize the DAC state*/
  hdac->State = HAL_DAC_STATE_READY;
 8002154:	2301      	movs	r3, #1
  hdac->ErrorCode = HAL_DAC_ERROR_NONE;
 8002156:	6120      	str	r0, [r4, #16]
  hdac->State = HAL_DAC_STATE_READY;
 8002158:	7123      	strb	r3, [r4, #4]
  
  /* Return function status */
  return HAL_OK;
 800215a:	bd10      	pop	{r4, pc}
     return HAL_ERROR;
 800215c:	2001      	movs	r0, #1
}
 800215e:	bd10      	pop	{r4, pc}
 8002160:	40007400 	.word	0x40007400
 8002164:	08008293 	.word	0x08008293

08002168 <HAL_DAC_Start>:
  *            @arg DAC_CHANNEL_1: DAC Channel1 selected
  *            @arg DAC_CHANNEL_2: DAC Channel2 selected
  * @retval HAL status
  */
HAL_StatusTypeDef HAL_DAC_Start(DAC_HandleTypeDef* hdac, uint32_t Channel)
{
 8002168:	b538      	push	{r3, r4, r5, lr}
  uint32_t tmp1 = 0U, tmp2 = 0U;
  
  /* Check the parameters */
  assert_param(IS_DAC_CHANNEL(Channel));
 800216a:	f031 0310 	bics.w	r3, r1, #16
{
 800216e:	4604      	mov	r4, r0
 8002170:	460d      	mov	r5, r1
  assert_param(IS_DAC_CHANNEL(Channel));
 8002172:	d004      	beq.n	800217e <HAL_DAC_Start+0x16>
 8002174:	f44f 71b7 	mov.w	r1, #366	; 0x16e
 8002178:	4816      	ldr	r0, [pc, #88]	; (80021d4 <HAL_DAC_Start+0x6c>)
 800217a:	f7fe fdca 	bl	8000d12 <assert_failed>
  
  /* Process locked */
  __HAL_LOCK(hdac);
 800217e:	7963      	ldrb	r3, [r4, #5]
 8002180:	2b01      	cmp	r3, #1
 8002182:	f04f 0002 	mov.w	r0, #2
 8002186:	d018      	beq.n	80021ba <HAL_DAC_Start+0x52>
  
  /* Change DAC state */
  hdac->State = HAL_DAC_STATE_BUSY;
  
  /* Enable the Peripheral */
  __HAL_DAC_ENABLE(hdac, Channel);
 8002188:	6823      	ldr	r3, [r4, #0]
  hdac->State = HAL_DAC_STATE_BUSY;
 800218a:	7120      	strb	r0, [r4, #4]
  __HAL_DAC_ENABLE(hdac, Channel);
 800218c:	6819      	ldr	r1, [r3, #0]
  __HAL_LOCK(hdac);
 800218e:	2201      	movs	r2, #1
 8002190:	7162      	strb	r2, [r4, #5]
  __HAL_DAC_ENABLE(hdac, Channel);
 8002192:	40aa      	lsls	r2, r5
 8002194:	430a      	orrs	r2, r1
 8002196:	601a      	str	r2, [r3, #0]
  
  if(Channel == DAC_CHANNEL_1)
  {
    tmp1 = hdac->Instance->CR & DAC_CR_TEN1;
 8002198:	6819      	ldr	r1, [r3, #0]
    tmp2 = hdac->Instance->CR & DAC_CR_TSEL1;
 800219a:	681a      	ldr	r2, [r3, #0]
  if(Channel == DAC_CHANNEL_1)
 800219c:	b975      	cbnz	r5, 80021bc <HAL_DAC_Start+0x54>
    /* Check if software trigger enabled */
    if((tmp1 ==  DAC_CR_TEN1) && (tmp2 ==  DAC_CR_TSEL1))
 800219e:	0748      	lsls	r0, r1, #29
 80021a0:	d507      	bpl.n	80021b2 <HAL_DAC_Start+0x4a>
    tmp2 = hdac->Instance->CR & DAC_CR_TSEL1;
 80021a2:	f002 0238 	and.w	r2, r2, #56	; 0x38
    if((tmp1 ==  DAC_CR_TEN1) && (tmp2 ==  DAC_CR_TSEL1))
 80021a6:	2a38      	cmp	r2, #56	; 0x38
 80021a8:	d103      	bne.n	80021b2 <HAL_DAC_Start+0x4a>
    {
      /* Enable the selected DAC software conversion */
      hdac->Instance->SWTRIGR |= (uint32_t)DAC_SWTRIGR_SWTRIG1;
 80021aa:	685a      	ldr	r2, [r3, #4]
 80021ac:	f042 0201 	orr.w	r2, r2, #1
    tmp2 = hdac->Instance->CR & DAC_CR_TSEL2;    
    /* Check if software trigger enabled */
    if((tmp1 == DAC_CR_TEN2) && (tmp2 == DAC_CR_TSEL2))
    {
      /* Enable the selected DAC software conversion*/
      hdac->Instance->SWTRIGR |= (uint32_t)DAC_SWTRIGR_SWTRIG2;
 80021b0:	605a      	str	r2, [r3, #4]
    }
  }
  
  /* Change DAC state */
  hdac->State = HAL_DAC_STATE_READY;
 80021b2:	2301      	movs	r3, #1
  
  /* Process unlocked */
  __HAL_UNLOCK(hdac);
 80021b4:	2000      	movs	r0, #0
  hdac->State = HAL_DAC_STATE_READY;
 80021b6:	7123      	strb	r3, [r4, #4]
  __HAL_UNLOCK(hdac);
 80021b8:	7160      	strb	r0, [r4, #5]
    
  /* Return function status */
  return HAL_OK;
}
 80021ba:	bd38      	pop	{r3, r4, r5, pc}
    if((tmp1 == DAC_CR_TEN2) && (tmp2 == DAC_CR_TSEL2))
 80021bc:	0349      	lsls	r1, r1, #13
 80021be:	d5f8      	bpl.n	80021b2 <HAL_DAC_Start+0x4a>
    tmp2 = hdac->Instance->CR & DAC_CR_TSEL2;    
 80021c0:	f402 1260 	and.w	r2, r2, #3670016	; 0x380000
    if((tmp1 == DAC_CR_TEN2) && (tmp2 == DAC_CR_TSEL2))
 80021c4:	f5b2 1f60 	cmp.w	r2, #3670016	; 0x380000
 80021c8:	d1f3      	bne.n	80021b2 <HAL_DAC_Start+0x4a>
      hdac->Instance->SWTRIGR |= (uint32_t)DAC_SWTRIGR_SWTRIG2;
 80021ca:	685a      	ldr	r2, [r3, #4]
 80021cc:	f042 0202 	orr.w	r2, r2, #2
 80021d0:	e7ee      	b.n	80021b0 <HAL_DAC_Start+0x48>
 80021d2:	bf00      	nop
 80021d4:	08008293 	.word	0x08008293

080021d8 <HAL_DAC_DMAUnderrunCallbackCh1>:
  * @param  hdac: pointer to a DAC_HandleTypeDef structure that contains
  *         the configuration information for the specified DAC.
  * @retval None
  */
__weak void HAL_DAC_DMAUnderrunCallbackCh1(DAC_HandleTypeDef *hdac)
{
 80021d8:	4770      	bx	lr

080021da <HAL_DAC_IRQHandler>:
  if(__HAL_DAC_GET_FLAG(hdac, DAC_FLAG_DMAUDR1))
 80021da:	6803      	ldr	r3, [r0, #0]
 80021dc:	6b5a      	ldr	r2, [r3, #52]	; 0x34
 80021de:	0491      	lsls	r1, r2, #18
{
 80021e0:	b510      	push	{r4, lr}
 80021e2:	4604      	mov	r4, r0
  if(__HAL_DAC_GET_FLAG(hdac, DAC_FLAG_DMAUDR1))
 80021e4:	d50e      	bpl.n	8002204 <HAL_DAC_IRQHandler+0x2a>
    hdac->State = HAL_DAC_STATE_ERROR;
 80021e6:	2204      	movs	r2, #4
 80021e8:	7102      	strb	r2, [r0, #4]
    hdac->ErrorCode |= HAL_DAC_ERROR_DMAUNDERRUNCH1;
 80021ea:	6902      	ldr	r2, [r0, #16]
 80021ec:	f042 0201 	orr.w	r2, r2, #1
 80021f0:	6102      	str	r2, [r0, #16]
    __HAL_DAC_CLEAR_FLAG(hdac,DAC_FLAG_DMAUDR1);
 80021f2:	f44f 5200 	mov.w	r2, #8192	; 0x2000
 80021f6:	635a      	str	r2, [r3, #52]	; 0x34
    hdac->Instance->CR &= ~DAC_CR_DMAEN1;
 80021f8:	681a      	ldr	r2, [r3, #0]
 80021fa:	f422 5280 	bic.w	r2, r2, #4096	; 0x1000
 80021fe:	601a      	str	r2, [r3, #0]
    HAL_DAC_DMAUnderrunCallbackCh1(hdac);
 8002200:	f7ff ffea 	bl	80021d8 <HAL_DAC_DMAUnderrunCallbackCh1>
  if(__HAL_DAC_GET_FLAG(hdac, DAC_FLAG_DMAUDR2))
 8002204:	6823      	ldr	r3, [r4, #0]
 8002206:	6b5a      	ldr	r2, [r3, #52]	; 0x34
 8002208:	0092      	lsls	r2, r2, #2
 800220a:	d511      	bpl.n	8002230 <HAL_DAC_IRQHandler+0x56>
    hdac->State = HAL_DAC_STATE_ERROR;
 800220c:	2204      	movs	r2, #4
 800220e:	7122      	strb	r2, [r4, #4]
    hdac->ErrorCode |= HAL_DAC_ERROR_DMAUNDERRUNCH2;
 8002210:	6922      	ldr	r2, [r4, #16]
 8002212:	f042 0202 	orr.w	r2, r2, #2
 8002216:	6122      	str	r2, [r4, #16]
    __HAL_DAC_CLEAR_FLAG(hdac,DAC_FLAG_DMAUDR2);
 8002218:	f04f 5200 	mov.w	r2, #536870912	; 0x20000000
 800221c:	635a      	str	r2, [r3, #52]	; 0x34
    hdac->Instance->CR &= ~DAC_CR_DMAEN2;
 800221e:	681a      	ldr	r2, [r3, #0]
 8002220:	f022 5280 	bic.w	r2, r2, #268435456	; 0x10000000
    HAL_DACEx_DMAUnderrunCallbackCh2(hdac);
 8002224:	4620      	mov	r0, r4
    hdac->Instance->CR &= ~DAC_CR_DMAEN2;
 8002226:	601a      	str	r2, [r3, #0]
}
 8002228:	e8bd 4010 	ldmia.w	sp!, {r4, lr}
    HAL_DACEx_DMAUnderrunCallbackCh2(hdac);
 800222c:	f000 b882 	b.w	8002334 <HAL_DACEx_DMAUnderrunCallbackCh2>
 8002230:	bd10      	pop	{r4, pc}
	...

08002234 <HAL_DAC_ConfigChannel>:
HAL_StatusTypeDef HAL_DAC_ConfigChannel(DAC_HandleTypeDef* hdac, DAC_ChannelConfTypeDef* sConfig, uint32_t Channel)
{
  uint32_t tmpreg1 = 0U, tmpreg2 = 0U;

  /* Check the DAC parameters */
  assert_param(IS_DAC_TRIGGER(sConfig->DAC_Trigger));
 8002234:	680b      	ldr	r3, [r1, #0]
{
 8002236:	b570      	push	{r4, r5, r6, lr}
 8002238:	4615      	mov	r5, r2
  assert_param(IS_DAC_TRIGGER(sConfig->DAC_Trigger));
 800223a:	f033 0204 	bics.w	r2, r3, #4
{
 800223e:	4604      	mov	r4, r0
 8002240:	460e      	mov	r6, r1
  assert_param(IS_DAC_TRIGGER(sConfig->DAC_Trigger));
 8002242:	d012      	beq.n	800226a <HAL_DAC_ConfigChannel+0x36>
 8002244:	f023 0208 	bic.w	r2, r3, #8
 8002248:	2a24      	cmp	r2, #36	; 0x24
 800224a:	d00e      	beq.n	800226a <HAL_DAC_ConfigChannel+0x36>
 800224c:	f023 0210 	bic.w	r2, r3, #16
 8002250:	2a0c      	cmp	r2, #12
 8002252:	d00a      	beq.n	800226a <HAL_DAC_ConfigChannel+0x36>
 8002254:	f023 0220 	bic.w	r2, r3, #32
 8002258:	2a14      	cmp	r2, #20
 800225a:	d006      	beq.n	800226a <HAL_DAC_ConfigChannel+0x36>
 800225c:	2b3c      	cmp	r3, #60	; 0x3c
 800225e:	d004      	beq.n	800226a <HAL_DAC_ConfigChannel+0x36>
 8002260:	f240 310a 	movw	r1, #778	; 0x30a
 8002264:	4819      	ldr	r0, [pc, #100]	; (80022cc <HAL_DAC_ConfigChannel+0x98>)
 8002266:	f7fe fd54 	bl	8000d12 <assert_failed>
  assert_param(IS_DAC_OUTPUT_BUFFER_STATE(sConfig->DAC_OutputBuffer));
 800226a:	6873      	ldr	r3, [r6, #4]
 800226c:	f033 0302 	bics.w	r3, r3, #2
 8002270:	d004      	beq.n	800227c <HAL_DAC_ConfigChannel+0x48>
 8002272:	f240 310b 	movw	r1, #779	; 0x30b
 8002276:	4815      	ldr	r0, [pc, #84]	; (80022cc <HAL_DAC_ConfigChannel+0x98>)
 8002278:	f7fe fd4b 	bl	8000d12 <assert_failed>
  assert_param(IS_DAC_CHANNEL(Channel));
 800227c:	f035 0310 	bics.w	r3, r5, #16
 8002280:	d004      	beq.n	800228c <HAL_DAC_ConfigChannel+0x58>
 8002282:	f44f 7143 	mov.w	r1, #780	; 0x30c
 8002286:	4811      	ldr	r0, [pc, #68]	; (80022cc <HAL_DAC_ConfigChannel+0x98>)
 8002288:	f7fe fd43 	bl	8000d12 <assert_failed>
  
  /* Process locked */
  __HAL_LOCK(hdac);
 800228c:	7963      	ldrb	r3, [r4, #5]
 800228e:	2b01      	cmp	r3, #1
 8002290:	f04f 0002 	mov.w	r0, #2
 8002294:	d018      	beq.n	80022c8 <HAL_DAC_ConfigChannel+0x94>
  
  /* Change DAC state */
  hdac->State = HAL_DAC_STATE_BUSY;
  
  /* Get the DAC CR value */
  tmpreg1 = hdac->Instance->CR;
 8002296:	6822      	ldr	r2, [r4, #0]
  hdac->State = HAL_DAC_STATE_BUSY;
 8002298:	7120      	strb	r0, [r4, #4]
  tmpreg1 = hdac->Instance->CR;
 800229a:	6813      	ldr	r3, [r2, #0]
  /* Clear BOFFx, TENx, TSELx, WAVEx and MAMPx bits */
  tmpreg1 &= ~(((uint32_t)(DAC_CR_MAMP1 | DAC_CR_WAVE1 | DAC_CR_TSEL1 | DAC_CR_TEN1 | DAC_CR_BOFF1)) << Channel);
 800229c:	f640 71fe 	movw	r1, #4094	; 0xffe
 80022a0:	40a9      	lsls	r1, r5
 80022a2:	ea23 0101 	bic.w	r1, r3, r1
  /* Configure for the selected DAC channel: buffer output, trigger */
  /* Set TSELx and TENx bits according to DAC_Trigger value */
  /* Set BOFFx bit according to DAC_OutputBuffer value */   
  tmpreg2 = (sConfig->DAC_Trigger | sConfig->DAC_OutputBuffer);
 80022a6:	e896 0009 	ldmia.w	r6, {r0, r3}
 80022aa:	4303      	orrs	r3, r0
  /* Calculate CR register value depending on DAC_Channel */
  tmpreg1 |= tmpreg2 << Channel;
 80022ac:	40ab      	lsls	r3, r5
 80022ae:	430b      	orrs	r3, r1
  /* Write to DAC CR */
  hdac->Instance->CR = tmpreg1;
 80022b0:	6013      	str	r3, [r2, #0]
  /* Disable wave generation */
  hdac->Instance->CR &= ~(DAC_CR_WAVE1 << Channel);
 80022b2:	6813      	ldr	r3, [r2, #0]
 80022b4:	21c0      	movs	r1, #192	; 0xc0
 80022b6:	fa01 f505 	lsl.w	r5, r1, r5
 80022ba:	ea23 0505 	bic.w	r5, r3, r5
  
  /* Change DAC state */
  hdac->State = HAL_DAC_STATE_READY;
  
  /* Process unlocked */
  __HAL_UNLOCK(hdac);
 80022be:	2000      	movs	r0, #0
  hdac->State = HAL_DAC_STATE_READY;
 80022c0:	2301      	movs	r3, #1
  hdac->Instance->CR &= ~(DAC_CR_WAVE1 << Channel);
 80022c2:	6015      	str	r5, [r2, #0]
  hdac->State = HAL_DAC_STATE_READY;
 80022c4:	7123      	strb	r3, [r4, #4]
  __HAL_UNLOCK(hdac);
 80022c6:	7160      	strb	r0, [r4, #5]
  
  /* Return function status */
  return HAL_OK;
}
 80022c8:	bd70      	pop	{r4, r5, r6, pc}
 80022ca:	bf00      	nop
 80022cc:	08008293 	.word	0x08008293

080022d0 <HAL_DAC_SetValue>:
  *            @arg DAC_ALIGN_12B_R: 12bit right data alignment selected
  * @param  Data: Data to be loaded in the selected data holding register.
  * @retval HAL status
  */
HAL_StatusTypeDef HAL_DAC_SetValue(DAC_HandleTypeDef* hdac, uint32_t Channel, uint32_t Alignment, uint32_t Data)
{  
 80022d0:	b5f7      	push	{r0, r1, r2, r4, r5, r6, r7, lr}
 80022d2:	461d      	mov	r5, r3
  __IO uint32_t tmp = 0U;
 80022d4:	2300      	movs	r3, #0
 80022d6:	9301      	str	r3, [sp, #4]
  
  /* Check the parameters */
  assert_param(IS_DAC_CHANNEL(Channel));
 80022d8:	f031 0310 	bics.w	r3, r1, #16
{  
 80022dc:	4607      	mov	r7, r0
 80022de:	460e      	mov	r6, r1
 80022e0:	4614      	mov	r4, r2
  assert_param(IS_DAC_CHANNEL(Channel));
 80022e2:	d004      	beq.n	80022ee <HAL_DAC_SetValue+0x1e>
 80022e4:	f240 3142 	movw	r1, #834	; 0x342
 80022e8:	4811      	ldr	r0, [pc, #68]	; (8002330 <HAL_DAC_SetValue+0x60>)
 80022ea:	f7fe fd12 	bl	8000d12 <assert_failed>
  assert_param(IS_DAC_ALIGN(Alignment));
 80022ee:	f034 0304 	bics.w	r3, r4, #4
 80022f2:	d006      	beq.n	8002302 <HAL_DAC_SetValue+0x32>
 80022f4:	2c08      	cmp	r4, #8
 80022f6:	d004      	beq.n	8002302 <HAL_DAC_SetValue+0x32>
 80022f8:	f240 3143 	movw	r1, #835	; 0x343
 80022fc:	480c      	ldr	r0, [pc, #48]	; (8002330 <HAL_DAC_SetValue+0x60>)
 80022fe:	f7fe fd08 	bl	8000d12 <assert_failed>
  assert_param(IS_DAC_DATA(Data));
 8002302:	f64f 73f0 	movw	r3, #65520	; 0xfff0
 8002306:	429d      	cmp	r5, r3
 8002308:	d904      	bls.n	8002314 <HAL_DAC_SetValue+0x44>
 800230a:	f44f 7151 	mov.w	r1, #836	; 0x344
 800230e:	4808      	ldr	r0, [pc, #32]	; (8002330 <HAL_DAC_SetValue+0x60>)
 8002310:	f7fe fcff 	bl	8000d12 <assert_failed>
  
  tmp = (uint32_t)hdac->Instance; 
 8002314:	683b      	ldr	r3, [r7, #0]
 8002316:	9301      	str	r3, [sp, #4]
  if(Channel == DAC_CHANNEL_1)
  {
    tmp += DAC_DHR12R1_ALIGNMENT(Alignment);
 8002318:	9a01      	ldr	r2, [sp, #4]
  if(Channel == DAC_CHANNEL_1)
 800231a:	b93e      	cbnz	r6, 800232c <HAL_DAC_SetValue+0x5c>
    tmp += DAC_DHR12R1_ALIGNMENT(Alignment);
 800231c:	3208      	adds	r2, #8
  }
  else
  {
    tmp += DAC_DHR12R2_ALIGNMENT(Alignment);
 800231e:	4422      	add	r2, r4
 8002320:	9201      	str	r2, [sp, #4]
  }

  /* Set the DAC channel1 selected data holding register */
  *(__IO uint32_t *) tmp = Data;
 8002322:	9b01      	ldr	r3, [sp, #4]
  
  /* Return function status */
  return HAL_OK;
}
 8002324:	2000      	movs	r0, #0
  *(__IO uint32_t *) tmp = Data;
 8002326:	601d      	str	r5, [r3, #0]
}
 8002328:	b003      	add	sp, #12
 800232a:	bdf0      	pop	{r4, r5, r6, r7, pc}
    tmp += DAC_DHR12R2_ALIGNMENT(Alignment);
 800232c:	3214      	adds	r2, #20
 800232e:	e7f6      	b.n	800231e <HAL_DAC_SetValue+0x4e>
 8002330:	08008293 	.word	0x08008293

08002334 <HAL_DACEx_DMAUnderrunCallbackCh2>:
  * @param  hdac: pointer to a DAC_HandleTypeDef structure that contains
  *         the configuration information for the specified DAC.
  * @retval None
  */
__weak void HAL_DACEx_DMAUnderrunCallbackCh2(DAC_HandleTypeDef *hdac)
{
 8002334:	4770      	bx	lr
	...

08002338 <DMA_CalcBaseAndBitshift>:
  *                     the configuration information for the specified DMA Stream. 
  * @retval Stream base address
  */
static uint32_t DMA_CalcBaseAndBitshift(DMA_HandleTypeDef *hdma)
{
  uint32_t stream_number = (((uint32_t)hdma->Instance & 0xFFU) - 16U) / 24U;
 8002338:	6803      	ldr	r3, [r0, #0]
 800233a:	b2da      	uxtb	r2, r3
 800233c:	f423 737f 	bic.w	r3, r3, #1020	; 0x3fc
 8002340:	f023 0303 	bic.w	r3, r3, #3
 8002344:	2118      	movs	r1, #24
 8002346:	3a10      	subs	r2, #16
 8002348:	fbb2 f2f1 	udiv	r2, r2, r1
  
  /* lookup table for necessary bitshift of flags within status registers */
  static const uint8_t flagBitshiftOffset[8U] = {0U, 6U, 16U, 22U, 0U, 6U, 16U, 22U};
  hdma->StreamIndex = flagBitshiftOffset[stream_number];
 800234c:	4904      	ldr	r1, [pc, #16]	; (8002360 <DMA_CalcBaseAndBitshift+0x28>)
  
  if (stream_number > 3U)
 800234e:	2a03      	cmp	r2, #3
  {
    /* return pointer to HISR and HIFCR */
    hdma->StreamBaseAddress = (((uint32_t)hdma->Instance & (uint32_t)(~0x3FFU)) + 4U);
 8002350:	bf88      	it	hi
 8002352:	3304      	addhi	r3, #4
  hdma->StreamIndex = flagBitshiftOffset[stream_number];
 8002354:	5c89      	ldrb	r1, [r1, r2]
  }
  else
  {
    /* return pointer to LISR and LIFCR */
    hdma->StreamBaseAddress = ((uint32_t)hdma->Instance & (uint32_t)(~0x3FFU));
 8002356:	6583      	str	r3, [r0, #88]	; 0x58
  hdma->StreamIndex = flagBitshiftOffset[stream_number];
 8002358:	65c1      	str	r1, [r0, #92]	; 0x5c
  }
  
  return hdma->StreamBaseAddress;
}
 800235a:	6d80      	ldr	r0, [r0, #88]	; 0x58
 800235c:	4770      	bx	lr
 800235e:	bf00      	nop
 8002360:	0800830f 	.word	0x0800830f

08002364 <HAL_DMA_Init>:
{
 8002364:	b570      	push	{r4, r5, r6, lr}
 8002366:	4604      	mov	r4, r0
  uint32_t tickstart = HAL_GetTick();
 8002368:	f7ff fb52 	bl	8001a10 <HAL_GetTick>
 800236c:	4605      	mov	r5, r0
  if(hdma == NULL)
 800236e:	2c00      	cmp	r4, #0
 8002370:	f000 8117 	beq.w	80025a2 <HAL_DMA_Init+0x23e>
  assert_param(IS_DMA_STREAM_ALL_INSTANCE(hdma->Instance));
 8002374:	6823      	ldr	r3, [r4, #0]
 8002376:	4a8c      	ldr	r2, [pc, #560]	; (80025a8 <HAL_DMA_Init+0x244>)
 8002378:	4293      	cmp	r3, r2
 800237a:	d031      	beq.n	80023e0 <HAL_DMA_Init+0x7c>
 800237c:	3218      	adds	r2, #24
 800237e:	4293      	cmp	r3, r2
 8002380:	d02e      	beq.n	80023e0 <HAL_DMA_Init+0x7c>
 8002382:	3218      	adds	r2, #24
 8002384:	4293      	cmp	r3, r2
 8002386:	d02b      	beq.n	80023e0 <HAL_DMA_Init+0x7c>
 8002388:	3218      	adds	r2, #24
 800238a:	4293      	cmp	r3, r2
 800238c:	d028      	beq.n	80023e0 <HAL_DMA_Init+0x7c>
 800238e:	3218      	adds	r2, #24
 8002390:	4293      	cmp	r3, r2
 8002392:	d025      	beq.n	80023e0 <HAL_DMA_Init+0x7c>
 8002394:	3218      	adds	r2, #24
 8002396:	4293      	cmp	r3, r2
 8002398:	d022      	beq.n	80023e0 <HAL_DMA_Init+0x7c>
 800239a:	3218      	adds	r2, #24
 800239c:	4293      	cmp	r3, r2
 800239e:	d01f      	beq.n	80023e0 <HAL_DMA_Init+0x7c>
 80023a0:	3218      	adds	r2, #24
 80023a2:	4293      	cmp	r3, r2
 80023a4:	d01c      	beq.n	80023e0 <HAL_DMA_Init+0x7c>
 80023a6:	f502 7256 	add.w	r2, r2, #856	; 0x358
 80023aa:	4293      	cmp	r3, r2
 80023ac:	d018      	beq.n	80023e0 <HAL_DMA_Init+0x7c>
 80023ae:	3218      	adds	r2, #24
 80023b0:	4293      	cmp	r3, r2
 80023b2:	d015      	beq.n	80023e0 <HAL_DMA_Init+0x7c>
 80023b4:	3218      	adds	r2, #24
 80023b6:	4293      	cmp	r3, r2
 80023b8:	d012      	beq.n	80023e0 <HAL_DMA_Init+0x7c>
 80023ba:	3218      	adds	r2, #24
 80023bc:	4293      	cmp	r3, r2
 80023be:	d00f      	beq.n	80023e0 <HAL_DMA_Init+0x7c>
 80023c0:	3218      	adds	r2, #24
 80023c2:	4293      	cmp	r3, r2
 80023c4:	d00c      	beq.n	80023e0 <HAL_DMA_Init+0x7c>
 80023c6:	3218      	adds	r2, #24
 80023c8:	4293      	cmp	r3, r2
 80023ca:	d009      	beq.n	80023e0 <HAL_DMA_Init+0x7c>
 80023cc:	3218      	adds	r2, #24
 80023ce:	4293      	cmp	r3, r2
 80023d0:	d006      	beq.n	80023e0 <HAL_DMA_Init+0x7c>
 80023d2:	3218      	adds	r2, #24
 80023d4:	4293      	cmp	r3, r2
 80023d6:	d003      	beq.n	80023e0 <HAL_DMA_Init+0x7c>
 80023d8:	21ca      	movs	r1, #202	; 0xca
 80023da:	4874      	ldr	r0, [pc, #464]	; (80025ac <HAL_DMA_Init+0x248>)
 80023dc:	f7fe fc99 	bl	8000d12 <assert_failed>
  assert_param(IS_DMA_CHANNEL(hdma->Init.Channel));
 80023e0:	6863      	ldr	r3, [r4, #4]
 80023e2:	f033 63c0 	bics.w	r3, r3, #100663296	; 0x6000000
 80023e6:	d006      	beq.n	80023f6 <HAL_DMA_Init+0x92>
 80023e8:	f1b3 6f00 	cmp.w	r3, #134217728	; 0x8000000
 80023ec:	d003      	beq.n	80023f6 <HAL_DMA_Init+0x92>
 80023ee:	21cb      	movs	r1, #203	; 0xcb
 80023f0:	486e      	ldr	r0, [pc, #440]	; (80025ac <HAL_DMA_Init+0x248>)
 80023f2:	f7fe fc8e 	bl	8000d12 <assert_failed>
  assert_param(IS_DMA_DIRECTION(hdma->Init.Direction));
 80023f6:	68a3      	ldr	r3, [r4, #8]
 80023f8:	f033 0240 	bics.w	r2, r3, #64	; 0x40
 80023fc:	d005      	beq.n	800240a <HAL_DMA_Init+0xa6>
 80023fe:	2b80      	cmp	r3, #128	; 0x80
 8002400:	d003      	beq.n	800240a <HAL_DMA_Init+0xa6>
 8002402:	21cc      	movs	r1, #204	; 0xcc
 8002404:	4869      	ldr	r0, [pc, #420]	; (80025ac <HAL_DMA_Init+0x248>)
 8002406:	f7fe fc84 	bl	8000d12 <assert_failed>
  assert_param(IS_DMA_PERIPHERAL_INC_STATE(hdma->Init.PeriphInc));
 800240a:	68e3      	ldr	r3, [r4, #12]
 800240c:	f433 7300 	bics.w	r3, r3, #512	; 0x200
 8002410:	d003      	beq.n	800241a <HAL_DMA_Init+0xb6>
 8002412:	21cd      	movs	r1, #205	; 0xcd
 8002414:	4865      	ldr	r0, [pc, #404]	; (80025ac <HAL_DMA_Init+0x248>)
 8002416:	f7fe fc7c 	bl	8000d12 <assert_failed>
  assert_param(IS_DMA_MEMORY_INC_STATE(hdma->Init.MemInc));
 800241a:	6923      	ldr	r3, [r4, #16]
 800241c:	f433 6380 	bics.w	r3, r3, #1024	; 0x400
 8002420:	d003      	beq.n	800242a <HAL_DMA_Init+0xc6>
 8002422:	21ce      	movs	r1, #206	; 0xce
 8002424:	4861      	ldr	r0, [pc, #388]	; (80025ac <HAL_DMA_Init+0x248>)
 8002426:	f7fe fc74 	bl	8000d12 <assert_failed>
  assert_param(IS_DMA_PERIPHERAL_DATA_SIZE(hdma->Init.PeriphDataAlignment));
 800242a:	6963      	ldr	r3, [r4, #20]
 800242c:	f433 6200 	bics.w	r2, r3, #2048	; 0x800
 8002430:	d006      	beq.n	8002440 <HAL_DMA_Init+0xdc>
 8002432:	f5b3 5f80 	cmp.w	r3, #4096	; 0x1000
 8002436:	d003      	beq.n	8002440 <HAL_DMA_Init+0xdc>
 8002438:	21cf      	movs	r1, #207	; 0xcf
 800243a:	485c      	ldr	r0, [pc, #368]	; (80025ac <HAL_DMA_Init+0x248>)
 800243c:	f7fe fc69 	bl	8000d12 <assert_failed>
  assert_param(IS_DMA_MEMORY_DATA_SIZE(hdma->Init.MemDataAlignment));
 8002440:	69a3      	ldr	r3, [r4, #24]
 8002442:	f433 5200 	bics.w	r2, r3, #8192	; 0x2000
 8002446:	d006      	beq.n	8002456 <HAL_DMA_Init+0xf2>
 8002448:	f5b3 4f80 	cmp.w	r3, #16384	; 0x4000
 800244c:	d003      	beq.n	8002456 <HAL_DMA_Init+0xf2>
 800244e:	21d0      	movs	r1, #208	; 0xd0
 8002450:	4856      	ldr	r0, [pc, #344]	; (80025ac <HAL_DMA_Init+0x248>)
 8002452:	f7fe fc5e 	bl	8000d12 <assert_failed>
  assert_param(IS_DMA_MODE(hdma->Init.Mode));
 8002456:	69e3      	ldr	r3, [r4, #28]
 8002458:	f033 0220 	bics.w	r2, r3, #32
 800245c:	d006      	beq.n	800246c <HAL_DMA_Init+0x108>
 800245e:	f5b3 7f80 	cmp.w	r3, #256	; 0x100
 8002462:	d003      	beq.n	800246c <HAL_DMA_Init+0x108>
 8002464:	21d1      	movs	r1, #209	; 0xd1
 8002466:	4851      	ldr	r0, [pc, #324]	; (80025ac <HAL_DMA_Init+0x248>)
 8002468:	f7fe fc53 	bl	8000d12 <assert_failed>
  assert_param(IS_DMA_PRIORITY(hdma->Init.Priority));
 800246c:	6a23      	ldr	r3, [r4, #32]
 800246e:	f433 3340 	bics.w	r3, r3, #196608	; 0x30000
 8002472:	d003      	beq.n	800247c <HAL_DMA_Init+0x118>
 8002474:	21d2      	movs	r1, #210	; 0xd2
 8002476:	484d      	ldr	r0, [pc, #308]	; (80025ac <HAL_DMA_Init+0x248>)
 8002478:	f7fe fc4b 	bl	8000d12 <assert_failed>
  assert_param(IS_DMA_FIFO_MODE_STATE(hdma->Init.FIFOMode));
 800247c:	6a63      	ldr	r3, [r4, #36]	; 0x24
 800247e:	f033 0304 	bics.w	r3, r3, #4
 8002482:	d003      	beq.n	800248c <HAL_DMA_Init+0x128>
 8002484:	21d3      	movs	r1, #211	; 0xd3
 8002486:	4849      	ldr	r0, [pc, #292]	; (80025ac <HAL_DMA_Init+0x248>)
 8002488:	f7fe fc43 	bl	8000d12 <assert_failed>
  if(hdma->Init.FIFOMode != DMA_FIFOMODE_DISABLE)
 800248c:	6a63      	ldr	r3, [r4, #36]	; 0x24
 800248e:	b1b3      	cbz	r3, 80024be <HAL_DMA_Init+0x15a>
    assert_param(IS_DMA_FIFO_THRESHOLD(hdma->Init.FIFOThreshold));
 8002490:	6aa3      	ldr	r3, [r4, #40]	; 0x28
 8002492:	2b03      	cmp	r3, #3
 8002494:	d903      	bls.n	800249e <HAL_DMA_Init+0x13a>
 8002496:	21d8      	movs	r1, #216	; 0xd8
 8002498:	4844      	ldr	r0, [pc, #272]	; (80025ac <HAL_DMA_Init+0x248>)
 800249a:	f7fe fc3a 	bl	8000d12 <assert_failed>
    assert_param(IS_DMA_MEMORY_BURST(hdma->Init.MemBurst));
 800249e:	6ae3      	ldr	r3, [r4, #44]	; 0x2c
 80024a0:	f033 73c0 	bics.w	r3, r3, #25165824	; 0x1800000
 80024a4:	d003      	beq.n	80024ae <HAL_DMA_Init+0x14a>
 80024a6:	21d9      	movs	r1, #217	; 0xd9
 80024a8:	4840      	ldr	r0, [pc, #256]	; (80025ac <HAL_DMA_Init+0x248>)
 80024aa:	f7fe fc32 	bl	8000d12 <assert_failed>
    assert_param(IS_DMA_PERIPHERAL_BURST(hdma->Init.PeriphBurst));
 80024ae:	6b23      	ldr	r3, [r4, #48]	; 0x30
 80024b0:	f433 03c0 	bics.w	r3, r3, #6291456	; 0x600000
 80024b4:	d003      	beq.n	80024be <HAL_DMA_Init+0x15a>
 80024b6:	21da      	movs	r1, #218	; 0xda
 80024b8:	483c      	ldr	r0, [pc, #240]	; (80025ac <HAL_DMA_Init+0x248>)
 80024ba:	f7fe fc2a 	bl	8000d12 <assert_failed>
  __HAL_UNLOCK(hdma);
 80024be:	2300      	movs	r3, #0
 80024c0:	f884 3034 	strb.w	r3, [r4, #52]	; 0x34
  __HAL_DMA_DISABLE(hdma);
 80024c4:	6822      	ldr	r2, [r4, #0]
  hdma->State = HAL_DMA_STATE_BUSY;
 80024c6:	2302      	movs	r3, #2
 80024c8:	f884 3035 	strb.w	r3, [r4, #53]	; 0x35
  __HAL_DMA_DISABLE(hdma);
 80024cc:	6813      	ldr	r3, [r2, #0]
 80024ce:	f023 0301 	bic.w	r3, r3, #1
 80024d2:	6013      	str	r3, [r2, #0]
  while((hdma->Instance->CR & DMA_SxCR_EN) != RESET)
 80024d4:	6821      	ldr	r1, [r4, #0]
 80024d6:	680b      	ldr	r3, [r1, #0]
 80024d8:	07d8      	lsls	r0, r3, #31
 80024da:	d43c      	bmi.n	8002556 <HAL_DMA_Init+0x1f2>
  tmp = hdma->Instance->CR;
 80024dc:	680b      	ldr	r3, [r1, #0]
  tmp &= ((uint32_t)~(DMA_SxCR_CHSEL | DMA_SxCR_MBURST | DMA_SxCR_PBURST | \
 80024de:	4d34      	ldr	r5, [pc, #208]	; (80025b0 <HAL_DMA_Init+0x24c>)
  tmp |=  hdma->Init.Channel             | hdma->Init.Direction        |
 80024e0:	6862      	ldr	r2, [r4, #4]
          hdma->Init.PeriphDataAlignment | hdma->Init.MemDataAlignment |
 80024e2:	69a0      	ldr	r0, [r4, #24]
  tmp &= ((uint32_t)~(DMA_SxCR_CHSEL | DMA_SxCR_MBURST | DMA_SxCR_PBURST | \
 80024e4:	401d      	ands	r5, r3
  tmp |=  hdma->Init.Channel             | hdma->Init.Direction        |
 80024e6:	68a3      	ldr	r3, [r4, #8]
 80024e8:	4313      	orrs	r3, r2
 80024ea:	68e2      	ldr	r2, [r4, #12]
 80024ec:	4313      	orrs	r3, r2
          hdma->Init.PeriphInc           | hdma->Init.MemInc           |
 80024ee:	6922      	ldr	r2, [r4, #16]
 80024f0:	4313      	orrs	r3, r2
 80024f2:	6962      	ldr	r2, [r4, #20]
 80024f4:	4313      	orrs	r3, r2
          hdma->Init.PeriphDataAlignment | hdma->Init.MemDataAlignment |
 80024f6:	69e2      	ldr	r2, [r4, #28]
 80024f8:	4303      	orrs	r3, r0
 80024fa:	4313      	orrs	r3, r2
          hdma->Init.Mode                | hdma->Init.Priority;
 80024fc:	6a22      	ldr	r2, [r4, #32]
 80024fe:	4313      	orrs	r3, r2
  if(hdma->Init.FIFOMode == DMA_FIFOMODE_ENABLE)
 8002500:	6a62      	ldr	r2, [r4, #36]	; 0x24
 8002502:	2a04      	cmp	r2, #4
  tmp |=  hdma->Init.Channel             | hdma->Init.Direction        |
 8002504:	ea43 0305 	orr.w	r3, r3, r5
    tmp |=  hdma->Init.MemBurst | hdma->Init.PeriphBurst;
 8002508:	bf01      	itttt	eq
 800250a:	6b26      	ldreq	r6, [r4, #48]	; 0x30
 800250c:	6ae5      	ldreq	r5, [r4, #44]	; 0x2c
 800250e:	4335      	orreq	r5, r6
 8002510:	432b      	orreq	r3, r5
  hdma->Instance->CR = tmp;  
 8002512:	600b      	str	r3, [r1, #0]
  tmp = hdma->Instance->FCR;
 8002514:	694b      	ldr	r3, [r1, #20]
  if(hdma->Init.FIFOMode == DMA_FIFOMODE_ENABLE)
 8002516:	2a04      	cmp	r2, #4
  tmp &= (uint32_t)~(DMA_SxFCR_DMDIS | DMA_SxFCR_FTH);
 8002518:	f023 0307 	bic.w	r3, r3, #7
  tmp |= hdma->Init.FIFOMode;
 800251c:	ea43 0302 	orr.w	r3, r3, r2
  if(hdma->Init.FIFOMode == DMA_FIFOMODE_ENABLE)
 8002520:	d10b      	bne.n	800253a <HAL_DMA_Init+0x1d6>
    tmp |= hdma->Init.FIFOThreshold;
 8002522:	6aa2      	ldr	r2, [r4, #40]	; 0x28
    if (hdma->Init.MemBurst != DMA_MBURST_SINGLE)
 8002524:	6ae5      	ldr	r5, [r4, #44]	; 0x2c
    tmp |= hdma->Init.FIFOThreshold;
 8002526:	4313      	orrs	r3, r2
    if (hdma->Init.MemBurst != DMA_MBURST_SINGLE)
 8002528:	b13d      	cbz	r5, 800253a <HAL_DMA_Init+0x1d6>
{
  HAL_StatusTypeDef status = HAL_OK;
  uint32_t tmp = hdma->Init.FIFOThreshold;
  
  /* Memory Data size equal to Byte */
  if(hdma->Init.MemDataAlignment == DMA_MDATAALIGN_BYTE)
 800252a:	b9f8      	cbnz	r0, 800256c <HAL_DMA_Init+0x208>
  {
    switch (tmp)
 800252c:	2a01      	cmp	r2, #1
 800252e:	d02d      	beq.n	800258c <HAL_DMA_Init+0x228>
 8002530:	d301      	bcc.n	8002536 <HAL_DMA_Init+0x1d2>
 8002532:	2a02      	cmp	r2, #2
  }
  
  /* Memory Data size equal to Word */
  else
  {
    switch (tmp)
 8002534:	d101      	bne.n	800253a <HAL_DMA_Init+0x1d6>
    case DMA_FIFO_THRESHOLD_HALFFULL:
    case DMA_FIFO_THRESHOLD_3QUARTERSFULL:
      status = HAL_ERROR;
      break;
    case DMA_FIFO_THRESHOLD_FULL:
      if ((hdma->Init.MemBurst & DMA_SxCR_MBURST_1) == DMA_SxCR_MBURST_1)
 8002536:	01ea      	lsls	r2, r5, #7
 8002538:	d42b      	bmi.n	8002592 <HAL_DMA_Init+0x22e>
  hdma->Instance->FCR = tmp;
 800253a:	614b      	str	r3, [r1, #20]
  regs = (DMA_Base_Registers *)DMA_CalcBaseAndBitshift(hdma);
 800253c:	4620      	mov	r0, r4
 800253e:	f7ff fefb 	bl	8002338 <DMA_CalcBaseAndBitshift>
  regs->IFCR = 0x3FU << hdma->StreamIndex;
 8002542:	6de2      	ldr	r2, [r4, #92]	; 0x5c
 8002544:	233f      	movs	r3, #63	; 0x3f
 8002546:	4093      	lsls	r3, r2
 8002548:	6083      	str	r3, [r0, #8]
  hdma->ErrorCode = HAL_DMA_ERROR_NONE;
 800254a:	2000      	movs	r0, #0
  hdma->State = HAL_DMA_STATE_READY;
 800254c:	2301      	movs	r3, #1
  hdma->ErrorCode = HAL_DMA_ERROR_NONE;
 800254e:	6560      	str	r0, [r4, #84]	; 0x54
  hdma->State = HAL_DMA_STATE_READY;
 8002550:	f884 3035 	strb.w	r3, [r4, #53]	; 0x35
  return HAL_OK;
 8002554:	bd70      	pop	{r4, r5, r6, pc}
    if((HAL_GetTick() - tickstart ) > HAL_TIMEOUT_DMA_ABORT)
 8002556:	f7ff fa5b 	bl	8001a10 <HAL_GetTick>
 800255a:	1b40      	subs	r0, r0, r5
 800255c:	2805      	cmp	r0, #5
 800255e:	d9b9      	bls.n	80024d4 <HAL_DMA_Init+0x170>
      hdma->ErrorCode = HAL_DMA_ERROR_TIMEOUT;
 8002560:	2320      	movs	r3, #32
 8002562:	6563      	str	r3, [r4, #84]	; 0x54
      hdma->State = HAL_DMA_STATE_TIMEOUT;
 8002564:	2003      	movs	r0, #3
        hdma->State = HAL_DMA_STATE_READY;
 8002566:	f884 0035 	strb.w	r0, [r4, #53]	; 0x35
}
 800256a:	bd70      	pop	{r4, r5, r6, pc}
  else if (hdma->Init.MemDataAlignment == DMA_MDATAALIGN_HALFWORD)
 800256c:	f5b0 5f00 	cmp.w	r0, #8192	; 0x2000
 8002570:	d113      	bne.n	800259a <HAL_DMA_Init+0x236>
    switch (tmp)
 8002572:	2a03      	cmp	r2, #3
 8002574:	d8e1      	bhi.n	800253a <HAL_DMA_Init+0x1d6>
 8002576:	a001      	add	r0, pc, #4	; (adr r0, 800257c <HAL_DMA_Init+0x218>)
 8002578:	f850 f022 	ldr.w	pc, [r0, r2, lsl #2]
 800257c:	08002593 	.word	0x08002593
 8002580:	08002537 	.word	0x08002537
 8002584:	08002593 	.word	0x08002593
 8002588:	0800258d 	.word	0x0800258d
      if (hdma->Init.MemBurst == DMA_MBURST_INC16)
 800258c:	f1b5 7fc0 	cmp.w	r5, #25165824	; 0x1800000
 8002590:	d1d3      	bne.n	800253a <HAL_DMA_Init+0x1d6>
        hdma->ErrorCode = HAL_DMA_ERROR_PARAM;
 8002592:	2340      	movs	r3, #64	; 0x40
 8002594:	6563      	str	r3, [r4, #84]	; 0x54
        hdma->State = HAL_DMA_STATE_READY;
 8002596:	2001      	movs	r0, #1
 8002598:	e7e5      	b.n	8002566 <HAL_DMA_Init+0x202>
    switch (tmp)
 800259a:	2a02      	cmp	r2, #2
 800259c:	d9f9      	bls.n	8002592 <HAL_DMA_Init+0x22e>
 800259e:	2a03      	cmp	r2, #3
 80025a0:	e7c8      	b.n	8002534 <HAL_DMA_Init+0x1d0>
    return HAL_ERROR;
 80025a2:	2001      	movs	r0, #1
 80025a4:	bd70      	pop	{r4, r5, r6, pc}
 80025a6:	bf00      	nop
 80025a8:	40026010 	.word	0x40026010
 80025ac:	080082d1 	.word	0x080082d1
 80025b0:	f010803f 	.word	0xf010803f

080025b4 <HAL_DMA_Start_IT>:
{
 80025b4:	e92d 41f0 	stmdb	sp!, {r4, r5, r6, r7, r8, lr}
 80025b8:	4617      	mov	r7, r2
 80025ba:	4698      	mov	r8, r3
  assert_param(IS_DMA_BUFFER_SIZE(DataLength));
 80025bc:	1e5a      	subs	r2, r3, #1
 80025be:	f64f 73fe 	movw	r3, #65534	; 0xfffe
 80025c2:	429a      	cmp	r2, r3
{
 80025c4:	4604      	mov	r4, r0
 80025c6:	460d      	mov	r5, r1
  DMA_Base_Registers *regs = (DMA_Base_Registers *)hdma->StreamBaseAddress;
 80025c8:	6d86      	ldr	r6, [r0, #88]	; 0x58
  assert_param(IS_DMA_BUFFER_SIZE(DataLength));
 80025ca:	d904      	bls.n	80025d6 <HAL_DMA_Start_IT+0x22>
 80025cc:	f44f 71eb 	mov.w	r1, #470	; 0x1d6
 80025d0:	4822      	ldr	r0, [pc, #136]	; (800265c <HAL_DMA_Start_IT+0xa8>)
 80025d2:	f7fe fb9e 	bl	8000d12 <assert_failed>
  __HAL_LOCK(hdma);
 80025d6:	f894 3034 	ldrb.w	r3, [r4, #52]	; 0x34
 80025da:	2b01      	cmp	r3, #1
 80025dc:	d03a      	beq.n	8002654 <HAL_DMA_Start_IT+0xa0>
 80025de:	2301      	movs	r3, #1
 80025e0:	f884 3034 	strb.w	r3, [r4, #52]	; 0x34
  if(HAL_DMA_STATE_READY == hdma->State)
 80025e4:	f894 3035 	ldrb.w	r3, [r4, #53]	; 0x35
 80025e8:	2b01      	cmp	r3, #1
 80025ea:	f04f 0002 	mov.w	r0, #2
 80025ee:	f04f 0100 	mov.w	r1, #0
 80025f2:	d12b      	bne.n	800264c <HAL_DMA_Start_IT+0x98>
    hdma->State = HAL_DMA_STATE_BUSY;
 80025f4:	f884 0035 	strb.w	r0, [r4, #53]	; 0x35
    hdma->ErrorCode = HAL_DMA_ERROR_NONE;
 80025f8:	6561      	str	r1, [r4, #84]	; 0x54
  hdma->Instance->CR &= (uint32_t)(~DMA_SxCR_DBM);
 80025fa:	6821      	ldr	r1, [r4, #0]
  if((hdma->Init.Direction) == DMA_MEMORY_TO_PERIPH)
 80025fc:	68a3      	ldr	r3, [r4, #8]
  hdma->Instance->CR &= (uint32_t)(~DMA_SxCR_DBM);
 80025fe:	6808      	ldr	r0, [r1, #0]
    regs->IFCR = 0x3FU << hdma->StreamIndex;
 8002600:	6de2      	ldr	r2, [r4, #92]	; 0x5c
  if((hdma->Init.Direction) == DMA_MEMORY_TO_PERIPH)
 8002602:	2b40      	cmp	r3, #64	; 0x40
    regs->IFCR = 0x3FU << hdma->StreamIndex;
 8002604:	f04f 033f 	mov.w	r3, #63	; 0x3f
 8002608:	fa03 f302 	lsl.w	r3, r3, r2
  hdma->Instance->CR &= (uint32_t)(~DMA_SxCR_DBM);
 800260c:	f420 2080 	bic.w	r0, r0, #262144	; 0x40000
 8002610:	6008      	str	r0, [r1, #0]
  hdma->Instance->NDTR = DataLength;
 8002612:	f8c1 8004 	str.w	r8, [r1, #4]
    hdma->Instance->PAR = DstAddress;
 8002616:	bf0b      	itete	eq
 8002618:	608f      	streq	r7, [r1, #8]
    hdma->Instance->PAR = SrcAddress;
 800261a:	608d      	strne	r5, [r1, #8]
    hdma->Instance->M0AR = SrcAddress;
 800261c:	60cd      	streq	r5, [r1, #12]
    hdma->Instance->M0AR = DstAddress;
 800261e:	60cf      	strne	r7, [r1, #12]
    regs->IFCR = 0x3FU << hdma->StreamIndex;
 8002620:	60b3      	str	r3, [r6, #8]
    hdma->Instance->CR  |= DMA_IT_TC | DMA_IT_TE | DMA_IT_DME;
 8002622:	680b      	ldr	r3, [r1, #0]
 8002624:	f043 0316 	orr.w	r3, r3, #22
 8002628:	600b      	str	r3, [r1, #0]
    hdma->Instance->FCR |= DMA_IT_FE;
 800262a:	694b      	ldr	r3, [r1, #20]
 800262c:	f043 0380 	orr.w	r3, r3, #128	; 0x80
 8002630:	614b      	str	r3, [r1, #20]
    if(hdma->XferHalfCpltCallback != NULL)
 8002632:	6c23      	ldr	r3, [r4, #64]	; 0x40
 8002634:	b11b      	cbz	r3, 800263e <HAL_DMA_Start_IT+0x8a>
      hdma->Instance->CR  |= DMA_IT_HT;
 8002636:	680b      	ldr	r3, [r1, #0]
 8002638:	f043 0308 	orr.w	r3, r3, #8
 800263c:	600b      	str	r3, [r1, #0]
    __HAL_DMA_ENABLE(hdma);
 800263e:	680b      	ldr	r3, [r1, #0]
 8002640:	f043 0301 	orr.w	r3, r3, #1
 8002644:	600b      	str	r3, [r1, #0]
  HAL_StatusTypeDef status = HAL_OK;
 8002646:	2000      	movs	r0, #0
 8002648:	e8bd 81f0 	ldmia.w	sp!, {r4, r5, r6, r7, r8, pc}
    __HAL_UNLOCK(hdma);	  
 800264c:	f884 1034 	strb.w	r1, [r4, #52]	; 0x34
 8002650:	e8bd 81f0 	ldmia.w	sp!, {r4, r5, r6, r7, r8, pc}
  __HAL_LOCK(hdma);
 8002654:	2002      	movs	r0, #2
}
 8002656:	e8bd 81f0 	ldmia.w	sp!, {r4, r5, r6, r7, r8, pc}
 800265a:	bf00      	nop
 800265c:	080082d1 	.word	0x080082d1

08002660 <HAL_DMA_Abort_IT>:
  if(hdma->State != HAL_DMA_STATE_BUSY)
 8002660:	f890 3035 	ldrb.w	r3, [r0, #53]	; 0x35
 8002664:	2b02      	cmp	r3, #2
 8002666:	d003      	beq.n	8002670 <HAL_DMA_Abort_IT+0x10>
    hdma->ErrorCode = HAL_DMA_ERROR_NO_XFER;
 8002668:	2380      	movs	r3, #128	; 0x80
 800266a:	6543      	str	r3, [r0, #84]	; 0x54
    return HAL_ERROR;
 800266c:	2001      	movs	r0, #1
 800266e:	4770      	bx	lr
    __HAL_DMA_DISABLE(hdma);
 8002670:	6802      	ldr	r2, [r0, #0]
    hdma->State = HAL_DMA_STATE_ABORT;
 8002672:	2305      	movs	r3, #5
 8002674:	f880 3035 	strb.w	r3, [r0, #53]	; 0x35
    __HAL_DMA_DISABLE(hdma);
 8002678:	6813      	ldr	r3, [r2, #0]
 800267a:	f023 0301 	bic.w	r3, r3, #1
 800267e:	6013      	str	r3, [r2, #0]
  return HAL_OK;
 8002680:	2000      	movs	r0, #0
}
 8002682:	4770      	bx	lr

08002684 <HAL_DMA_IRQHandler>:
{
 8002684:	b5f7      	push	{r0, r1, r2, r4, r5, r6, r7, lr}
  __IO uint32_t count = 0U;
 8002686:	2300      	movs	r3, #0
 8002688:	9301      	str	r3, [sp, #4]
  uint32_t timeout = SystemCoreClock / 9600U;
 800268a:	4b5a      	ldr	r3, [pc, #360]	; (80027f4 <HAL_DMA_IRQHandler+0x170>)
  DMA_Base_Registers *regs = (DMA_Base_Registers *)hdma->StreamBaseAddress;
 800268c:	6d85      	ldr	r5, [r0, #88]	; 0x58
  uint32_t timeout = SystemCoreClock / 9600U;
 800268e:	681f      	ldr	r7, [r3, #0]
  if ((tmpisr & (DMA_FLAG_TEIF0_4 << hdma->StreamIndex)) != RESET)
 8002690:	6dc3      	ldr	r3, [r0, #92]	; 0x5c
  tmpisr = regs->ISR;
 8002692:	682e      	ldr	r6, [r5, #0]
  if ((tmpisr & (DMA_FLAG_TEIF0_4 << hdma->StreamIndex)) != RESET)
 8002694:	2208      	movs	r2, #8
 8002696:	409a      	lsls	r2, r3
 8002698:	4216      	tst	r6, r2
{
 800269a:	4604      	mov	r4, r0
  if ((tmpisr & (DMA_FLAG_TEIF0_4 << hdma->StreamIndex)) != RESET)
 800269c:	d00c      	beq.n	80026b8 <HAL_DMA_IRQHandler+0x34>
    if(__HAL_DMA_GET_IT_SOURCE(hdma, DMA_IT_TE) != RESET)
 800269e:	6801      	ldr	r1, [r0, #0]
 80026a0:	6808      	ldr	r0, [r1, #0]
 80026a2:	0740      	lsls	r0, r0, #29
 80026a4:	d508      	bpl.n	80026b8 <HAL_DMA_IRQHandler+0x34>
      hdma->Instance->CR  &= ~(DMA_IT_TE);
 80026a6:	6808      	ldr	r0, [r1, #0]
 80026a8:	f020 0004 	bic.w	r0, r0, #4
 80026ac:	6008      	str	r0, [r1, #0]
      regs->IFCR = DMA_FLAG_TEIF0_4 << hdma->StreamIndex;
 80026ae:	60aa      	str	r2, [r5, #8]
      hdma->ErrorCode |= HAL_DMA_ERROR_TE;
 80026b0:	6d62      	ldr	r2, [r4, #84]	; 0x54
 80026b2:	f042 0201 	orr.w	r2, r2, #1
 80026b6:	6562      	str	r2, [r4, #84]	; 0x54
  if ((tmpisr & (DMA_FLAG_FEIF0_4 << hdma->StreamIndex)) != RESET)
 80026b8:	4a4f      	ldr	r2, [pc, #316]	; (80027f8 <HAL_DMA_IRQHandler+0x174>)
 80026ba:	409a      	lsls	r2, r3
 80026bc:	4216      	tst	r6, r2
 80026be:	d008      	beq.n	80026d2 <HAL_DMA_IRQHandler+0x4e>
    if(__HAL_DMA_GET_IT_SOURCE(hdma, DMA_IT_FE) != RESET)
 80026c0:	6821      	ldr	r1, [r4, #0]
 80026c2:	6949      	ldr	r1, [r1, #20]
 80026c4:	0609      	lsls	r1, r1, #24
      regs->IFCR = DMA_FLAG_FEIF0_4 << hdma->StreamIndex;
 80026c6:	bf41      	itttt	mi
 80026c8:	60aa      	strmi	r2, [r5, #8]
      hdma->ErrorCode |= HAL_DMA_ERROR_FE;
 80026ca:	6d62      	ldrmi	r2, [r4, #84]	; 0x54
 80026cc:	f042 0202 	orrmi.w	r2, r2, #2
 80026d0:	6562      	strmi	r2, [r4, #84]	; 0x54
  if ((tmpisr & (DMA_FLAG_DMEIF0_4 << hdma->StreamIndex)) != RESET)
 80026d2:	4a4a      	ldr	r2, [pc, #296]	; (80027fc <HAL_DMA_IRQHandler+0x178>)
 80026d4:	409a      	lsls	r2, r3
 80026d6:	4216      	tst	r6, r2
 80026d8:	d008      	beq.n	80026ec <HAL_DMA_IRQHandler+0x68>
    if(__HAL_DMA_GET_IT_SOURCE(hdma, DMA_IT_DME) != RESET)
 80026da:	6821      	ldr	r1, [r4, #0]
 80026dc:	6809      	ldr	r1, [r1, #0]
 80026de:	0788      	lsls	r0, r1, #30
      regs->IFCR = DMA_FLAG_DMEIF0_4 << hdma->StreamIndex;
 80026e0:	bf41      	itttt	mi
 80026e2:	60aa      	strmi	r2, [r5, #8]
      hdma->ErrorCode |= HAL_DMA_ERROR_DME;
 80026e4:	6d62      	ldrmi	r2, [r4, #84]	; 0x54
 80026e6:	f042 0204 	orrmi.w	r2, r2, #4
 80026ea:	6562      	strmi	r2, [r4, #84]	; 0x54
  if ((tmpisr & (DMA_FLAG_HTIF0_4 << hdma->StreamIndex)) != RESET)
 80026ec:	2210      	movs	r2, #16
 80026ee:	409a      	lsls	r2, r3
 80026f0:	4216      	tst	r6, r2
 80026f2:	d010      	beq.n	8002716 <HAL_DMA_IRQHandler+0x92>
    if(__HAL_DMA_GET_IT_SOURCE(hdma, DMA_IT_HT) != RESET)
 80026f4:	6823      	ldr	r3, [r4, #0]
 80026f6:	6819      	ldr	r1, [r3, #0]
 80026f8:	0709      	lsls	r1, r1, #28
 80026fa:	d50c      	bpl.n	8002716 <HAL_DMA_IRQHandler+0x92>
      regs->IFCR = DMA_FLAG_HTIF0_4 << hdma->StreamIndex;
 80026fc:	60aa      	str	r2, [r5, #8]
      if(((hdma->Instance->CR) & (uint32_t)(DMA_SxCR_DBM)) != RESET)
 80026fe:	681a      	ldr	r2, [r3, #0]
 8002700:	0350      	lsls	r0, r2, #13
 8002702:	d535      	bpl.n	8002770 <HAL_DMA_IRQHandler+0xec>
        if((hdma->Instance->CR & DMA_SxCR_CT) == RESET)
 8002704:	681b      	ldr	r3, [r3, #0]
 8002706:	0319      	lsls	r1, r3, #12
 8002708:	d401      	bmi.n	800270e <HAL_DMA_IRQHandler+0x8a>
        if(hdma->XferHalfCpltCallback != NULL)
 800270a:	6c23      	ldr	r3, [r4, #64]	; 0x40
 800270c:	e000      	b.n	8002710 <HAL_DMA_IRQHandler+0x8c>
          if(hdma->XferM1HalfCpltCallback != NULL)
 800270e:	6ca3      	ldr	r3, [r4, #72]	; 0x48
        if(hdma->XferHalfCpltCallback != NULL)
 8002710:	b10b      	cbz	r3, 8002716 <HAL_DMA_IRQHandler+0x92>
          hdma->XferHalfCpltCallback(hdma);
 8002712:	4620      	mov	r0, r4
 8002714:	4798      	blx	r3
  if ((tmpisr & (DMA_FLAG_TCIF0_4 << hdma->StreamIndex)) != RESET)
 8002716:	6de1      	ldr	r1, [r4, #92]	; 0x5c
 8002718:	2220      	movs	r2, #32
 800271a:	408a      	lsls	r2, r1
 800271c:	4216      	tst	r6, r2
 800271e:	d038      	beq.n	8002792 <HAL_DMA_IRQHandler+0x10e>
    if(__HAL_DMA_GET_IT_SOURCE(hdma, DMA_IT_TC) != RESET)
 8002720:	6823      	ldr	r3, [r4, #0]
 8002722:	6818      	ldr	r0, [r3, #0]
 8002724:	06c6      	lsls	r6, r0, #27
 8002726:	d534      	bpl.n	8002792 <HAL_DMA_IRQHandler+0x10e>
      regs->IFCR = DMA_FLAG_TCIF0_4 << hdma->StreamIndex;
 8002728:	60aa      	str	r2, [r5, #8]
      if(HAL_DMA_STATE_ABORT == hdma->State)
 800272a:	f894 2035 	ldrb.w	r2, [r4, #53]	; 0x35
 800272e:	2a05      	cmp	r2, #5
        hdma->Instance->CR  &= ~(DMA_IT_TC | DMA_IT_TE | DMA_IT_DME);
 8002730:	681a      	ldr	r2, [r3, #0]
      if(HAL_DMA_STATE_ABORT == hdma->State)
 8002732:	d125      	bne.n	8002780 <HAL_DMA_IRQHandler+0xfc>
        hdma->Instance->CR  &= ~(DMA_IT_TC | DMA_IT_TE | DMA_IT_DME);
 8002734:	f022 0216 	bic.w	r2, r2, #22
 8002738:	601a      	str	r2, [r3, #0]
        hdma->Instance->FCR &= ~(DMA_IT_FE);
 800273a:	695a      	ldr	r2, [r3, #20]
 800273c:	f022 0280 	bic.w	r2, r2, #128	; 0x80
 8002740:	615a      	str	r2, [r3, #20]
        if((hdma->XferHalfCpltCallback != NULL) || (hdma->XferM1HalfCpltCallback != NULL))
 8002742:	6c22      	ldr	r2, [r4, #64]	; 0x40
 8002744:	b90a      	cbnz	r2, 800274a <HAL_DMA_IRQHandler+0xc6>
 8002746:	6ca2      	ldr	r2, [r4, #72]	; 0x48
 8002748:	b11a      	cbz	r2, 8002752 <HAL_DMA_IRQHandler+0xce>
          hdma->Instance->CR  &= ~(DMA_IT_HT);
 800274a:	681a      	ldr	r2, [r3, #0]
 800274c:	f022 0208 	bic.w	r2, r2, #8
 8002750:	601a      	str	r2, [r3, #0]
        regs->IFCR = 0x3FU << hdma->StreamIndex;
 8002752:	233f      	movs	r3, #63	; 0x3f
 8002754:	408b      	lsls	r3, r1
 8002756:	60ab      	str	r3, [r5, #8]
        __HAL_UNLOCK(hdma);
 8002758:	2300      	movs	r3, #0
 800275a:	f884 3034 	strb.w	r3, [r4, #52]	; 0x34
        hdma->State = HAL_DMA_STATE_READY;
 800275e:	2301      	movs	r3, #1
 8002760:	f884 3035 	strb.w	r3, [r4, #53]	; 0x35
        if(hdma->XferAbortCallback != NULL)
 8002764:	6d23      	ldr	r3, [r4, #80]	; 0x50
    if(hdma->XferErrorCallback != NULL)
 8002766:	b10b      	cbz	r3, 800276c <HAL_DMA_IRQHandler+0xe8>
      hdma->XferErrorCallback(hdma);
 8002768:	4620      	mov	r0, r4
 800276a:	4798      	blx	r3
}
 800276c:	b003      	add	sp, #12
 800276e:	bdf0      	pop	{r4, r5, r6, r7, pc}
        if((hdma->Instance->CR & DMA_SxCR_CIRC) == RESET)
 8002770:	681a      	ldr	r2, [r3, #0]
 8002772:	05d2      	lsls	r2, r2, #23
          hdma->Instance->CR  &= ~(DMA_IT_HT);
 8002774:	bf5e      	ittt	pl
 8002776:	681a      	ldrpl	r2, [r3, #0]
 8002778:	f022 0208 	bicpl.w	r2, r2, #8
 800277c:	601a      	strpl	r2, [r3, #0]
 800277e:	e7c4      	b.n	800270a <HAL_DMA_IRQHandler+0x86>
      if(((hdma->Instance->CR) & (uint32_t)(DMA_SxCR_DBM)) != RESET)
 8002780:	0350      	lsls	r0, r2, #13
 8002782:	d528      	bpl.n	80027d6 <HAL_DMA_IRQHandler+0x152>
        if((hdma->Instance->CR & DMA_SxCR_CT) == RESET)
 8002784:	681b      	ldr	r3, [r3, #0]
 8002786:	0319      	lsls	r1, r3, #12
 8002788:	d432      	bmi.n	80027f0 <HAL_DMA_IRQHandler+0x16c>
          if(hdma->XferM1CpltCallback != NULL)
 800278a:	6c63      	ldr	r3, [r4, #68]	; 0x44
        if(hdma->XferCpltCallback != NULL)
 800278c:	b10b      	cbz	r3, 8002792 <HAL_DMA_IRQHandler+0x10e>
          hdma->XferCpltCallback(hdma);
 800278e:	4620      	mov	r0, r4
 8002790:	4798      	blx	r3
  if(hdma->ErrorCode != HAL_DMA_ERROR_NONE)
 8002792:	6d63      	ldr	r3, [r4, #84]	; 0x54
 8002794:	2b00      	cmp	r3, #0
 8002796:	d0e9      	beq.n	800276c <HAL_DMA_IRQHandler+0xe8>
    if((hdma->ErrorCode & HAL_DMA_ERROR_TE) != RESET)
 8002798:	6d63      	ldr	r3, [r4, #84]	; 0x54
 800279a:	07da      	lsls	r2, r3, #31
 800279c:	d519      	bpl.n	80027d2 <HAL_DMA_IRQHandler+0x14e>
      hdma->State = HAL_DMA_STATE_ABORT;
 800279e:	2305      	movs	r3, #5
      __HAL_DMA_DISABLE(hdma);
 80027a0:	6822      	ldr	r2, [r4, #0]
      hdma->State = HAL_DMA_STATE_ABORT;
 80027a2:	f884 3035 	strb.w	r3, [r4, #53]	; 0x35
      __HAL_DMA_DISABLE(hdma);
 80027a6:	6813      	ldr	r3, [r2, #0]
 80027a8:	f023 0301 	bic.w	r3, r3, #1
 80027ac:	6013      	str	r3, [r2, #0]
  uint32_t timeout = SystemCoreClock / 9600U;
 80027ae:	f44f 5316 	mov.w	r3, #9600	; 0x2580
 80027b2:	fbb7 f7f3 	udiv	r7, r7, r3
        if (++count > timeout)
 80027b6:	9b01      	ldr	r3, [sp, #4]
 80027b8:	3301      	adds	r3, #1
 80027ba:	429f      	cmp	r7, r3
 80027bc:	9301      	str	r3, [sp, #4]
 80027be:	d302      	bcc.n	80027c6 <HAL_DMA_IRQHandler+0x142>
      while((hdma->Instance->CR & DMA_SxCR_EN) != RESET);
 80027c0:	6813      	ldr	r3, [r2, #0]
 80027c2:	07db      	lsls	r3, r3, #31
 80027c4:	d4f7      	bmi.n	80027b6 <HAL_DMA_IRQHandler+0x132>
      __HAL_UNLOCK(hdma);
 80027c6:	2300      	movs	r3, #0
 80027c8:	f884 3034 	strb.w	r3, [r4, #52]	; 0x34
      hdma->State = HAL_DMA_STATE_READY;
 80027cc:	2301      	movs	r3, #1
 80027ce:	f884 3035 	strb.w	r3, [r4, #53]	; 0x35
    if(hdma->XferErrorCallback != NULL)
 80027d2:	6ce3      	ldr	r3, [r4, #76]	; 0x4c
 80027d4:	e7c7      	b.n	8002766 <HAL_DMA_IRQHandler+0xe2>
        if((hdma->Instance->CR & DMA_SxCR_CIRC) == RESET)
 80027d6:	681a      	ldr	r2, [r3, #0]
 80027d8:	f412 7280 	ands.w	r2, r2, #256	; 0x100
 80027dc:	d108      	bne.n	80027f0 <HAL_DMA_IRQHandler+0x16c>
          hdma->Instance->CR  &= ~(DMA_IT_TC);
 80027de:	6819      	ldr	r1, [r3, #0]
 80027e0:	f021 0110 	bic.w	r1, r1, #16
 80027e4:	6019      	str	r1, [r3, #0]
          hdma->State = HAL_DMA_STATE_READY;
 80027e6:	2301      	movs	r3, #1
          __HAL_UNLOCK(hdma);
 80027e8:	f884 2034 	strb.w	r2, [r4, #52]	; 0x34
          hdma->State = HAL_DMA_STATE_READY;
 80027ec:	f884 3035 	strb.w	r3, [r4, #53]	; 0x35
        if(hdma->XferCpltCallback != NULL)
 80027f0:	6be3      	ldr	r3, [r4, #60]	; 0x3c
 80027f2:	e7cb      	b.n	800278c <HAL_DMA_IRQHandler+0x108>
 80027f4:	20000408 	.word	0x20000408
 80027f8:	00800001 	.word	0x00800001
 80027fc:	00800004 	.word	0x00800004

08002800 <HAL_GPIO_Init>:
  uint32_t ioposition = 0x00U;
  uint32_t iocurrent = 0x00U;
  uint32_t temp = 0x00U;

  /* Check the parameters */
  assert_param(IS_GPIO_ALL_INSTANCE(GPIOx));
 8002800:	4ba5      	ldr	r3, [pc, #660]	; (8002a98 <HAL_GPIO_Init+0x298>)
 8002802:	4298      	cmp	r0, r3
{
 8002804:	e92d 4ff7 	stmdb	sp!, {r0, r1, r2, r4, r5, r6, r7, r8, r9, sl, fp, lr}
 8002808:	4604      	mov	r4, r0
 800280a:	460d      	mov	r5, r1
  assert_param(IS_GPIO_ALL_INSTANCE(GPIOx));
 800280c:	d02b      	beq.n	8002866 <HAL_GPIO_Init+0x66>
 800280e:	f503 6380 	add.w	r3, r3, #1024	; 0x400
 8002812:	4298      	cmp	r0, r3
 8002814:	d027      	beq.n	8002866 <HAL_GPIO_Init+0x66>
 8002816:	f503 6380 	add.w	r3, r3, #1024	; 0x400
 800281a:	4298      	cmp	r0, r3
 800281c:	d023      	beq.n	8002866 <HAL_GPIO_Init+0x66>
 800281e:	f503 6380 	add.w	r3, r3, #1024	; 0x400
 8002822:	4298      	cmp	r0, r3
 8002824:	d01f      	beq.n	8002866 <HAL_GPIO_Init+0x66>
 8002826:	f503 6380 	add.w	r3, r3, #1024	; 0x400
 800282a:	4298      	cmp	r0, r3
 800282c:	d01b      	beq.n	8002866 <HAL_GPIO_Init+0x66>
 800282e:	f503 6380 	add.w	r3, r3, #1024	; 0x400
 8002832:	4298      	cmp	r0, r3
 8002834:	d017      	beq.n	8002866 <HAL_GPIO_Init+0x66>
 8002836:	f503 6380 	add.w	r3, r3, #1024	; 0x400
 800283a:	4298      	cmp	r0, r3
 800283c:	d013      	beq.n	8002866 <HAL_GPIO_Init+0x66>
 800283e:	f503 6380 	add.w	r3, r3, #1024	; 0x400
 8002842:	4298      	cmp	r0, r3
 8002844:	d00f      	beq.n	8002866 <HAL_GPIO_Init+0x66>
 8002846:	f503 6380 	add.w	r3, r3, #1024	; 0x400
 800284a:	4298      	cmp	r0, r3
 800284c:	d00b      	beq.n	8002866 <HAL_GPIO_Init+0x66>
 800284e:	f503 6380 	add.w	r3, r3, #1024	; 0x400
 8002852:	4298      	cmp	r0, r3
 8002854:	d007      	beq.n	8002866 <HAL_GPIO_Init+0x66>
 8002856:	f503 6380 	add.w	r3, r3, #1024	; 0x400
 800285a:	4298      	cmp	r0, r3
 800285c:	d003      	beq.n	8002866 <HAL_GPIO_Init+0x66>
 800285e:	21c5      	movs	r1, #197	; 0xc5
 8002860:	488e      	ldr	r0, [pc, #568]	; (8002a9c <HAL_GPIO_Init+0x29c>)
 8002862:	f7fe fa56 	bl	8000d12 <assert_failed>
  assert_param(IS_GPIO_PIN(GPIO_Init->Pin));
 8002866:	682b      	ldr	r3, [r5, #0]
 8002868:	b29a      	uxth	r2, r3
 800286a:	b112      	cbz	r2, 8002872 <HAL_GPIO_Init+0x72>
 800286c:	0c1b      	lsrs	r3, r3, #16
 800286e:	041b      	lsls	r3, r3, #16
 8002870:	b11b      	cbz	r3, 800287a <HAL_GPIO_Init+0x7a>
 8002872:	21c6      	movs	r1, #198	; 0xc6
 8002874:	4889      	ldr	r0, [pc, #548]	; (8002a9c <HAL_GPIO_Init+0x29c>)
 8002876:	f7fe fa4c 	bl	8000d12 <assert_failed>
  assert_param(IS_GPIO_MODE(GPIO_Init->Mode));
 800287a:	686b      	ldr	r3, [r5, #4]
 800287c:	2b03      	cmp	r3, #3
 800287e:	d917      	bls.n	80028b0 <HAL_GPIO_Init+0xb0>
 8002880:	f1a3 0211 	sub.w	r2, r3, #17
 8002884:	2a01      	cmp	r2, #1
 8002886:	d913      	bls.n	80028b0 <HAL_GPIO_Init+0xb0>
 8002888:	4985      	ldr	r1, [pc, #532]	; (8002aa0 <HAL_GPIO_Init+0x2a0>)
 800288a:	f423 1200 	bic.w	r2, r3, #2097152	; 0x200000
 800288e:	428a      	cmp	r2, r1
 8002890:	d00e      	beq.n	80028b0 <HAL_GPIO_Init+0xb0>
 8002892:	f501 1180 	add.w	r1, r1, #1048576	; 0x100000
 8002896:	428b      	cmp	r3, r1
 8002898:	d00a      	beq.n	80028b0 <HAL_GPIO_Init+0xb0>
 800289a:	f5a1 2170 	sub.w	r1, r1, #983040	; 0xf0000
 800289e:	428a      	cmp	r2, r1
 80028a0:	d006      	beq.n	80028b0 <HAL_GPIO_Init+0xb0>
 80028a2:	4a80      	ldr	r2, [pc, #512]	; (8002aa4 <HAL_GPIO_Init+0x2a4>)
 80028a4:	4293      	cmp	r3, r2
 80028a6:	d003      	beq.n	80028b0 <HAL_GPIO_Init+0xb0>
 80028a8:	21c7      	movs	r1, #199	; 0xc7
 80028aa:	487c      	ldr	r0, [pc, #496]	; (8002a9c <HAL_GPIO_Init+0x29c>)
 80028ac:	f7fe fa31 	bl	8000d12 <assert_failed>
  assert_param(IS_GPIO_PULL(GPIO_Init->Pull));
 80028b0:	68ab      	ldr	r3, [r5, #8]
 80028b2:	2b02      	cmp	r3, #2
 80028b4:	d903      	bls.n	80028be <HAL_GPIO_Init+0xbe>
 80028b6:	21c8      	movs	r1, #200	; 0xc8
 80028b8:	4878      	ldr	r0, [pc, #480]	; (8002a9c <HAL_GPIO_Init+0x29c>)
 80028ba:	f7fe fa2a 	bl	8000d12 <assert_failed>
        temp &= ~(0x0FU << (4U * (position & 0x03U)));
        temp |= ((uint32_t)(GPIO_GET_INDEX(GPIOx)) << (4U * (position & 0x03U)));
        SYSCFG->EXTICR[position >> 2U] = temp;

        /* Clear EXTI line configuration */
        temp = EXTI->IMR;
 80028be:	f8df 81ec 	ldr.w	r8, [pc, #492]	; 8002aac <HAL_GPIO_Init+0x2ac>
{
 80028c2:	2600      	movs	r6, #0
    ioposition = 0x01U << position;
 80028c4:	2301      	movs	r3, #1
    iocurrent = (uint32_t)(GPIO_Init->Pin) & ioposition;
 80028c6:	682a      	ldr	r2, [r5, #0]
    ioposition = 0x01U << position;
 80028c8:	fa03 f706 	lsl.w	r7, r3, r6
    iocurrent = (uint32_t)(GPIO_Init->Pin) & ioposition;
 80028cc:	ea07 0902 	and.w	r9, r7, r2
    if(iocurrent == ioposition)
 80028d0:	454f      	cmp	r7, r9
 80028d2:	f040 80ca 	bne.w	8002a6a <HAL_GPIO_Init+0x26a>
      if((GPIO_Init->Mode == GPIO_MODE_AF_PP) || (GPIO_Init->Mode == GPIO_MODE_AF_OD))
 80028d6:	686a      	ldr	r2, [r5, #4]
 80028d8:	f022 0210 	bic.w	r2, r2, #16
 80028dc:	2a02      	cmp	r2, #2
 80028de:	d116      	bne.n	800290e <HAL_GPIO_Init+0x10e>
        assert_param(IS_GPIO_AF(GPIO_Init->Alternate));
 80028e0:	692a      	ldr	r2, [r5, #16]
 80028e2:	2a0f      	cmp	r2, #15
 80028e4:	d903      	bls.n	80028ee <HAL_GPIO_Init+0xee>
 80028e6:	21d9      	movs	r1, #217	; 0xd9
 80028e8:	486c      	ldr	r0, [pc, #432]	; (8002a9c <HAL_GPIO_Init+0x29c>)
 80028ea:	f7fe fa12 	bl	8000d12 <assert_failed>
        temp = GPIOx->AFR[position >> 3U];
 80028ee:	08f1      	lsrs	r1, r6, #3
 80028f0:	eb04 0181 	add.w	r1, r4, r1, lsl #2
        temp &= ~(0xFU << ((uint32_t)(position & 0x07U) * 4U)) ;
 80028f4:	f006 0207 	and.w	r2, r6, #7
 80028f8:	0090      	lsls	r0, r2, #2
        temp = GPIOx->AFR[position >> 3U];
 80028fa:	6a0b      	ldr	r3, [r1, #32]
        temp &= ~(0xFU << ((uint32_t)(position & 0x07U) * 4U)) ;
 80028fc:	220f      	movs	r2, #15
 80028fe:	4082      	lsls	r2, r0
 8002900:	ea23 0e02 	bic.w	lr, r3, r2
        temp |= ((uint32_t)(GPIO_Init->Alternate) << (((uint32_t)position & 0x07U) * 4U));
 8002904:	692a      	ldr	r2, [r5, #16]
 8002906:	4082      	lsls	r2, r0
 8002908:	ea42 020e 	orr.w	r2, r2, lr
        GPIOx->AFR[position >> 3U] = temp;
 800290c:	620a      	str	r2, [r1, #32]
      temp |= ((GPIO_Init->Mode & GPIO_MODE) << (position * 2U));
 800290e:	686a      	ldr	r2, [r5, #4]
      temp = GPIOx->MODER;
 8002910:	6820      	ldr	r0, [r4, #0]
 8002912:	ea4f 0b46 	mov.w	fp, r6, lsl #1
      temp &= ~(GPIO_MODER_MODER0 << (position * 2U));
 8002916:	f04f 0a03 	mov.w	sl, #3
 800291a:	fa0a fa0b 	lsl.w	sl, sl, fp
      temp |= ((GPIO_Init->Mode & GPIO_MODE) << (position * 2U));
 800291e:	f002 0103 	and.w	r1, r2, #3
      temp &= ~(GPIO_MODER_MODER0 << (position * 2U));
 8002922:	ea6f 0a0a 	mvn.w	sl, sl
      if((GPIO_Init->Mode == GPIO_MODE_OUTPUT_PP) || (GPIO_Init->Mode == GPIO_MODE_AF_PP) ||
 8002926:	f022 0210 	bic.w	r2, r2, #16
      temp &= ~(GPIO_MODER_MODER0 << (position * 2U));
 800292a:	ea00 000a 	and.w	r0, r0, sl
      temp |= ((GPIO_Init->Mode & GPIO_MODE) << (position * 2U));
 800292e:	fa01 f10b 	lsl.w	r1, r1, fp
      if((GPIO_Init->Mode == GPIO_MODE_OUTPUT_PP) || (GPIO_Init->Mode == GPIO_MODE_AF_PP) ||
 8002932:	3a01      	subs	r2, #1
      temp |= ((GPIO_Init->Mode & GPIO_MODE) << (position * 2U));
 8002934:	4301      	orrs	r1, r0
      if((GPIO_Init->Mode == GPIO_MODE_OUTPUT_PP) || (GPIO_Init->Mode == GPIO_MODE_AF_PP) ||
 8002936:	2a01      	cmp	r2, #1
      GPIOx->MODER = temp;
 8002938:	6021      	str	r1, [r4, #0]
      if((GPIO_Init->Mode == GPIO_MODE_OUTPUT_PP) || (GPIO_Init->Mode == GPIO_MODE_AF_PP) ||
 800293a:	d817      	bhi.n	800296c <HAL_GPIO_Init+0x16c>
        assert_param(IS_GPIO_SPEED(GPIO_Init->Speed));
 800293c:	68ea      	ldr	r2, [r5, #12]
 800293e:	2a03      	cmp	r2, #3
 8002940:	d903      	bls.n	800294a <HAL_GPIO_Init+0x14a>
 8002942:	21ec      	movs	r1, #236	; 0xec
 8002944:	4855      	ldr	r0, [pc, #340]	; (8002a9c <HAL_GPIO_Init+0x29c>)
 8002946:	f7fe f9e4 	bl	8000d12 <assert_failed>
        temp = GPIOx->OSPEEDR; 
 800294a:	68a1      	ldr	r1, [r4, #8]
        temp |= (GPIO_Init->Speed << (position * 2U));
 800294c:	68ea      	ldr	r2, [r5, #12]
        temp |= (((GPIO_Init->Mode & GPIO_OUTPUT_TYPE) >> 4U) << position);
 800294e:	686b      	ldr	r3, [r5, #4]
        temp &= ~(GPIO_OSPEEDER_OSPEEDR0 << (position * 2U));
 8002950:	ea0a 0101 	and.w	r1, sl, r1
        temp |= (GPIO_Init->Speed << (position * 2U));
 8002954:	fa02 f20b 	lsl.w	r2, r2, fp
 8002958:	430a      	orrs	r2, r1
        GPIOx->OSPEEDR = temp;
 800295a:	60a2      	str	r2, [r4, #8]
        temp = GPIOx->OTYPER;
 800295c:	6862      	ldr	r2, [r4, #4]
        temp |= (((GPIO_Init->Mode & GPIO_OUTPUT_TYPE) >> 4U) << position);
 800295e:	f3c3 1300 	ubfx	r3, r3, #4, #1
        temp &= ~(GPIO_OTYPER_OT_0 << position) ;
 8002962:	ea22 0207 	bic.w	r2, r2, r7
        temp |= (((GPIO_Init->Mode & GPIO_OUTPUT_TYPE) >> 4U) << position);
 8002966:	40b3      	lsls	r3, r6
 8002968:	4313      	orrs	r3, r2
        GPIOx->OTYPER = temp;
 800296a:	6063      	str	r3, [r4, #4]
      temp = GPIOx->PUPDR;
 800296c:	68e3      	ldr	r3, [r4, #12]
      if((GPIO_Init->Mode & EXTI_MODE) == EXTI_MODE)
 800296e:	6868      	ldr	r0, [r5, #4]
      temp &= ~(GPIO_PUPDR_PUPDR0 << (position * 2U));
 8002970:	ea0a 0a03 	and.w	sl, sl, r3
      temp |= ((GPIO_Init->Pull) << (position * 2U));
 8002974:	68ab      	ldr	r3, [r5, #8]
 8002976:	fa03 f30b 	lsl.w	r3, r3, fp
 800297a:	ea43 030a 	orr.w	r3, r3, sl
      GPIOx->PUPDR = temp;
 800297e:	60e3      	str	r3, [r4, #12]
      if((GPIO_Init->Mode & EXTI_MODE) == EXTI_MODE)
 8002980:	00c3      	lsls	r3, r0, #3
 8002982:	d572      	bpl.n	8002a6a <HAL_GPIO_Init+0x26a>
        __HAL_RCC_SYSCFG_CLK_ENABLE();
 8002984:	4a48      	ldr	r2, [pc, #288]	; (8002aa8 <HAL_GPIO_Init+0x2a8>)
 8002986:	2300      	movs	r3, #0
 8002988:	9301      	str	r3, [sp, #4]
 800298a:	6c51      	ldr	r1, [r2, #68]	; 0x44
 800298c:	f441 4180 	orr.w	r1, r1, #16384	; 0x4000
 8002990:	6451      	str	r1, [r2, #68]	; 0x44
 8002992:	6c52      	ldr	r2, [r2, #68]	; 0x44
 8002994:	f026 0103 	bic.w	r1, r6, #3
 8002998:	f101 4180 	add.w	r1, r1, #1073741824	; 0x40000000
 800299c:	f402 4280 	and.w	r2, r2, #16384	; 0x4000
 80029a0:	f501 319c 	add.w	r1, r1, #79872	; 0x13800
 80029a4:	9201      	str	r2, [sp, #4]
        temp &= ~(0x0FU << (4U * (position & 0x03U)));
 80029a6:	f006 0e03 	and.w	lr, r6, #3
        __HAL_RCC_SYSCFG_CLK_ENABLE();
 80029aa:	9a01      	ldr	r2, [sp, #4]
        temp = SYSCFG->EXTICR[position >> 2U];
 80029ac:	f8d1 c008 	ldr.w	ip, [r1, #8]
        temp &= ~(0x0FU << (4U * (position & 0x03U)));
 80029b0:	ea4f 0e8e 	mov.w	lr, lr, lsl #2
 80029b4:	220f      	movs	r2, #15
 80029b6:	fa02 f20e 	lsl.w	r2, r2, lr
 80029ba:	ea2c 0c02 	bic.w	ip, ip, r2
        temp |= ((uint32_t)(GPIO_GET_INDEX(GPIOx)) << (4U * (position & 0x03U)));
 80029be:	4a36      	ldr	r2, [pc, #216]	; (8002a98 <HAL_GPIO_Init+0x298>)
 80029c0:	4294      	cmp	r4, r2
 80029c2:	d027      	beq.n	8002a14 <HAL_GPIO_Init+0x214>
 80029c4:	f103 4380 	add.w	r3, r3, #1073741824	; 0x40000000
 80029c8:	f503 3301 	add.w	r3, r3, #132096	; 0x20400
 80029cc:	429c      	cmp	r4, r3
 80029ce:	d053      	beq.n	8002a78 <HAL_GPIO_Init+0x278>
 80029d0:	f503 6380 	add.w	r3, r3, #1024	; 0x400
 80029d4:	429c      	cmp	r4, r3
 80029d6:	d051      	beq.n	8002a7c <HAL_GPIO_Init+0x27c>
 80029d8:	f503 6380 	add.w	r3, r3, #1024	; 0x400
 80029dc:	429c      	cmp	r4, r3
 80029de:	d04f      	beq.n	8002a80 <HAL_GPIO_Init+0x280>
 80029e0:	f503 6380 	add.w	r3, r3, #1024	; 0x400
 80029e4:	429c      	cmp	r4, r3
 80029e6:	d04d      	beq.n	8002a84 <HAL_GPIO_Init+0x284>
 80029e8:	f503 6380 	add.w	r3, r3, #1024	; 0x400
 80029ec:	429c      	cmp	r4, r3
 80029ee:	d04b      	beq.n	8002a88 <HAL_GPIO_Init+0x288>
 80029f0:	f503 6380 	add.w	r3, r3, #1024	; 0x400
 80029f4:	429c      	cmp	r4, r3
 80029f6:	d049      	beq.n	8002a8c <HAL_GPIO_Init+0x28c>
 80029f8:	f503 6380 	add.w	r3, r3, #1024	; 0x400
 80029fc:	429c      	cmp	r4, r3
 80029fe:	d047      	beq.n	8002a90 <HAL_GPIO_Init+0x290>
 8002a00:	f503 6380 	add.w	r3, r3, #1024	; 0x400
 8002a04:	429c      	cmp	r4, r3
 8002a06:	d045      	beq.n	8002a94 <HAL_GPIO_Init+0x294>
 8002a08:	f503 6380 	add.w	r3, r3, #1024	; 0x400
 8002a0c:	429c      	cmp	r4, r3
 8002a0e:	bf14      	ite	ne
 8002a10:	230a      	movne	r3, #10
 8002a12:	2309      	moveq	r3, #9
 8002a14:	fa03 f30e 	lsl.w	r3, r3, lr
 8002a18:	ea43 030c 	orr.w	r3, r3, ip
        SYSCFG->EXTICR[position >> 2U] = temp;
 8002a1c:	608b      	str	r3, [r1, #8]
        temp = EXTI->IMR;
 8002a1e:	f8d8 2000 	ldr.w	r2, [r8]
        temp &= ~((uint32_t)iocurrent);
 8002a22:	ea6f 0109 	mvn.w	r1, r9
        if((GPIO_Init->Mode & GPIO_MODE_IT) == GPIO_MODE_IT)
 8002a26:	03c7      	lsls	r7, r0, #15
        temp &= ~((uint32_t)iocurrent);
 8002a28:	bf54      	ite	pl
 8002a2a:	400a      	andpl	r2, r1
        {
          temp |= iocurrent;
 8002a2c:	ea49 0202 	orrmi.w	r2, r9, r2
        }
        EXTI->IMR = temp;
 8002a30:	f8c8 2000 	str.w	r2, [r8]

        temp = EXTI->EMR;
 8002a34:	f8d8 2004 	ldr.w	r2, [r8, #4]
        temp &= ~((uint32_t)iocurrent);
        if((GPIO_Init->Mode & GPIO_MODE_EVT) == GPIO_MODE_EVT)
 8002a38:	0383      	lsls	r3, r0, #14
        temp &= ~((uint32_t)iocurrent);
 8002a3a:	bf54      	ite	pl
 8002a3c:	400a      	andpl	r2, r1
        {
          temp |= iocurrent;
 8002a3e:	ea49 0202 	orrmi.w	r2, r9, r2
        }
        EXTI->EMR = temp;
 8002a42:	f8c8 2004 	str.w	r2, [r8, #4]

        /* Clear Rising Falling edge configuration */
        temp = EXTI->RTSR;
 8002a46:	f8d8 2008 	ldr.w	r2, [r8, #8]
        temp &= ~((uint32_t)iocurrent);
        if((GPIO_Init->Mode & RISING_EDGE) == RISING_EDGE)
 8002a4a:	02c7      	lsls	r7, r0, #11
        temp &= ~((uint32_t)iocurrent);
 8002a4c:	bf54      	ite	pl
 8002a4e:	400a      	andpl	r2, r1
        {
          temp |= iocurrent;
 8002a50:	ea49 0202 	orrmi.w	r2, r9, r2
        }
        EXTI->RTSR = temp;
 8002a54:	f8c8 2008 	str.w	r2, [r8, #8]

        temp = EXTI->FTSR;
 8002a58:	f8d8 300c 	ldr.w	r3, [r8, #12]
        temp &= ~((uint32_t)iocurrent);
        if((GPIO_Init->Mode & FALLING_EDGE) == FALLING_EDGE)
 8002a5c:	0282      	lsls	r2, r0, #10
        temp &= ~((uint32_t)iocurrent);
 8002a5e:	bf54      	ite	pl
 8002a60:	400b      	andpl	r3, r1
        {
          temp |= iocurrent;
 8002a62:	ea49 0303 	orrmi.w	r3, r9, r3
        }
        EXTI->FTSR = temp;
 8002a66:	f8c8 300c 	str.w	r3, [r8, #12]
  for(position = 0U; position < GPIO_NUMBER; position++)
 8002a6a:	3601      	adds	r6, #1
 8002a6c:	2e10      	cmp	r6, #16
 8002a6e:	f47f af29 	bne.w	80028c4 <HAL_GPIO_Init+0xc4>
      }
    }
  }
}
 8002a72:	b003      	add	sp, #12
 8002a74:	e8bd 8ff0 	ldmia.w	sp!, {r4, r5, r6, r7, r8, r9, sl, fp, pc}
        temp |= ((uint32_t)(GPIO_GET_INDEX(GPIOx)) << (4U * (position & 0x03U)));
 8002a78:	2301      	movs	r3, #1
 8002a7a:	e7cb      	b.n	8002a14 <HAL_GPIO_Init+0x214>
 8002a7c:	2302      	movs	r3, #2
 8002a7e:	e7c9      	b.n	8002a14 <HAL_GPIO_Init+0x214>
 8002a80:	2303      	movs	r3, #3
 8002a82:	e7c7      	b.n	8002a14 <HAL_GPIO_Init+0x214>
 8002a84:	2304      	movs	r3, #4
 8002a86:	e7c5      	b.n	8002a14 <HAL_GPIO_Init+0x214>
 8002a88:	2305      	movs	r3, #5
 8002a8a:	e7c3      	b.n	8002a14 <HAL_GPIO_Init+0x214>
 8002a8c:	2306      	movs	r3, #6
 8002a8e:	e7c1      	b.n	8002a14 <HAL_GPIO_Init+0x214>
 8002a90:	2307      	movs	r3, #7
 8002a92:	e7bf      	b.n	8002a14 <HAL_GPIO_Init+0x214>
 8002a94:	2308      	movs	r3, #8
 8002a96:	e7bd      	b.n	8002a14 <HAL_GPIO_Init+0x214>
 8002a98:	40020000 	.word	0x40020000
 8002a9c:	08008317 	.word	0x08008317
 8002aa0:	10110000 	.word	0x10110000
 8002aa4:	10220000 	.word	0x10220000
 8002aa8:	40023800 	.word	0x40023800
 8002aac:	40013c00 	.word	0x40013c00

08002ab0 <HAL_GPIO_DeInit>:
  * @param  GPIO_Pin: specifies the port bit to be written.
  *          This parameter can be one of GPIO_PIN_x where x can be (0..15).
  * @retval None
  */
void HAL_GPIO_DeInit(GPIO_TypeDef  *GPIOx, uint32_t GPIO_Pin)
{
 8002ab0:	e92d 4ff8 	stmdb	sp!, {r3, r4, r5, r6, r7, r8, r9, sl, fp, lr}
  uint32_t ioposition = 0x00U;
  uint32_t iocurrent = 0x00U;
  uint32_t tmp = 0x00U;

  /* Check the parameters */
  assert_param(IS_GPIO_ALL_INSTANCE(GPIOx));
 8002ab4:	4b5f      	ldr	r3, [pc, #380]	; (8002c34 <HAL_GPIO_DeInit+0x184>)
 8002ab6:	4298      	cmp	r0, r3
{
 8002ab8:	4604      	mov	r4, r0
 8002aba:	4688      	mov	r8, r1
  assert_param(IS_GPIO_ALL_INSTANCE(GPIOx));
 8002abc:	d02c      	beq.n	8002b18 <HAL_GPIO_DeInit+0x68>
 8002abe:	f503 6380 	add.w	r3, r3, #1024	; 0x400
 8002ac2:	4298      	cmp	r0, r3
 8002ac4:	d028      	beq.n	8002b18 <HAL_GPIO_DeInit+0x68>
 8002ac6:	f503 6380 	add.w	r3, r3, #1024	; 0x400
 8002aca:	4298      	cmp	r0, r3
 8002acc:	d024      	beq.n	8002b18 <HAL_GPIO_DeInit+0x68>
 8002ace:	f503 6380 	add.w	r3, r3, #1024	; 0x400
 8002ad2:	4298      	cmp	r0, r3
 8002ad4:	d020      	beq.n	8002b18 <HAL_GPIO_DeInit+0x68>
 8002ad6:	f503 6380 	add.w	r3, r3, #1024	; 0x400
 8002ada:	4298      	cmp	r0, r3
 8002adc:	d01c      	beq.n	8002b18 <HAL_GPIO_DeInit+0x68>
 8002ade:	f503 6380 	add.w	r3, r3, #1024	; 0x400
 8002ae2:	4298      	cmp	r0, r3
 8002ae4:	d018      	beq.n	8002b18 <HAL_GPIO_DeInit+0x68>
 8002ae6:	f503 6380 	add.w	r3, r3, #1024	; 0x400
 8002aea:	4298      	cmp	r0, r3
 8002aec:	d014      	beq.n	8002b18 <HAL_GPIO_DeInit+0x68>
 8002aee:	f503 6380 	add.w	r3, r3, #1024	; 0x400
 8002af2:	4298      	cmp	r0, r3
 8002af4:	d010      	beq.n	8002b18 <HAL_GPIO_DeInit+0x68>
 8002af6:	f503 6380 	add.w	r3, r3, #1024	; 0x400
 8002afa:	4298      	cmp	r0, r3
 8002afc:	d00c      	beq.n	8002b18 <HAL_GPIO_DeInit+0x68>
 8002afe:	f503 6380 	add.w	r3, r3, #1024	; 0x400
 8002b02:	4298      	cmp	r0, r3
 8002b04:	d008      	beq.n	8002b18 <HAL_GPIO_DeInit+0x68>
 8002b06:	f503 6380 	add.w	r3, r3, #1024	; 0x400
 8002b0a:	4298      	cmp	r0, r3
 8002b0c:	d004      	beq.n	8002b18 <HAL_GPIO_DeInit+0x68>
 8002b0e:	f44f 71a1 	mov.w	r1, #322	; 0x142
 8002b12:	4849      	ldr	r0, [pc, #292]	; (8002c38 <HAL_GPIO_DeInit+0x188>)
 8002b14:	f7fe f8fd 	bl	8000d12 <assert_failed>
        /* Configure the External Interrupt or event for the current IO */
        tmp = 0x0FU << (4U * (position & 0x03U));
        SYSCFG->EXTICR[position >> 2U] &= ~tmp;

        /* Clear EXTI line configuration */
        EXTI->IMR &= ~((uint32_t)iocurrent);
 8002b18:	4d48      	ldr	r5, [pc, #288]	; (8002c3c <HAL_GPIO_DeInit+0x18c>)
      if(tmp == ((uint32_t)(GPIO_GET_INDEX(GPIOx)) << (4U * (position & 0x03U))))
 8002b1a:	f8df a124 	ldr.w	sl, [pc, #292]	; 8002c40 <HAL_GPIO_DeInit+0x190>
 8002b1e:	f8df b124 	ldr.w	fp, [pc, #292]	; 8002c44 <HAL_GPIO_DeInit+0x194>
{
 8002b22:	2100      	movs	r1, #0
    ioposition = 0x01U << position;
 8002b24:	f04f 0901 	mov.w	r9, #1
 8002b28:	fa09 f201 	lsl.w	r2, r9, r1
    if(iocurrent == ioposition)
 8002b2c:	ea32 0308 	bics.w	r3, r2, r8
 8002b30:	d168      	bne.n	8002c04 <HAL_GPIO_DeInit+0x154>
      GPIOx->MODER &= ~(GPIO_MODER_MODER0 << (position * 2U));
 8002b32:	2303      	movs	r3, #3
 8002b34:	fa01 f009 	lsl.w	r0, r1, r9
 8002b38:	6826      	ldr	r6, [r4, #0]
 8002b3a:	fa03 f000 	lsl.w	r0, r3, r0
 8002b3e:	43c0      	mvns	r0, r0
      GPIOx->AFR[position >> 3U] &= ~(0xFU << ((uint32_t)(position & 0x07U) * 4U)) ;
 8002b40:	fa21 fe03 	lsr.w	lr, r1, r3
      GPIOx->MODER &= ~(GPIO_MODER_MODER0 << (position * 2U));
 8002b44:	4006      	ands	r6, r0
 8002b46:	eb04 0e8e 	add.w	lr, r4, lr, lsl #2
 8002b4a:	6026      	str	r6, [r4, #0]
      GPIOx->AFR[position >> 3U] &= ~(0xFU << ((uint32_t)(position & 0x07U) * 4U)) ;
 8002b4c:	f001 0707 	and.w	r7, r1, #7
 8002b50:	f8de c020 	ldr.w	ip, [lr, #32]
 8002b54:	260f      	movs	r6, #15
 8002b56:	00bf      	lsls	r7, r7, #2
 8002b58:	fa06 f707 	lsl.w	r7, r6, r7
 8002b5c:	ea2c 0707 	bic.w	r7, ip, r7
 8002b60:	f8ce 7020 	str.w	r7, [lr, #32]
      GPIOx->OSPEEDR &= ~(GPIO_OSPEEDER_OSPEEDR0 << (position * 2U));
 8002b64:	68a7      	ldr	r7, [r4, #8]
 8002b66:	4007      	ands	r7, r0
 8002b68:	60a7      	str	r7, [r4, #8]
      GPIOx->OTYPER  &= ~(GPIO_OTYPER_OT_0 << position) ;
 8002b6a:	6867      	ldr	r7, [r4, #4]
 8002b6c:	43d2      	mvns	r2, r2
 8002b6e:	4017      	ands	r7, r2
 8002b70:	6067      	str	r7, [r4, #4]
      GPIOx->PUPDR &= ~(GPIO_PUPDR_PUPDR0 << (position * 2U));
 8002b72:	68e7      	ldr	r7, [r4, #12]
 8002b74:	4038      	ands	r0, r7
 8002b76:	60e0      	str	r0, [r4, #12]
 8002b78:	f021 0003 	bic.w	r0, r1, #3
 8002b7c:	f100 4080 	add.w	r0, r0, #1073741824	; 0x40000000
 8002b80:	f500 309c 	add.w	r0, r0, #79872	; 0x13800
      tmp &= (0x0FU << (4U * (position & 0x03U)));
 8002b84:	ea01 0703 	and.w	r7, r1, r3
      if(tmp == ((uint32_t)(GPIO_GET_INDEX(GPIOx)) << (4U * (position & 0x03U))))
 8002b88:	4b2a      	ldr	r3, [pc, #168]	; (8002c34 <HAL_GPIO_DeInit+0x184>)
      tmp = SYSCFG->EXTICR[position >> 2U];
 8002b8a:	f8d0 e008 	ldr.w	lr, [r0, #8]
      tmp &= (0x0FU << (4U * (position & 0x03U)));
 8002b8e:	00bf      	lsls	r7, r7, #2
 8002b90:	40be      	lsls	r6, r7
      if(tmp == ((uint32_t)(GPIO_GET_INDEX(GPIOx)) << (4U * (position & 0x03U))))
 8002b92:	429c      	cmp	r4, r3
      tmp &= (0x0FU << (4U * (position & 0x03U)));
 8002b94:	ea0e 0e06 	and.w	lr, lr, r6
      if(tmp == ((uint32_t)(GPIO_GET_INDEX(GPIOx)) << (4U * (position & 0x03U))))
 8002b98:	d039      	beq.n	8002c0e <HAL_GPIO_DeInit+0x15e>
 8002b9a:	f503 6380 	add.w	r3, r3, #1024	; 0x400
 8002b9e:	429c      	cmp	r4, r3
 8002ba0:	d037      	beq.n	8002c12 <HAL_GPIO_DeInit+0x162>
 8002ba2:	f503 6380 	add.w	r3, r3, #1024	; 0x400
 8002ba6:	429c      	cmp	r4, r3
 8002ba8:	d035      	beq.n	8002c16 <HAL_GPIO_DeInit+0x166>
 8002baa:	f503 6380 	add.w	r3, r3, #1024	; 0x400
 8002bae:	429c      	cmp	r4, r3
 8002bb0:	d033      	beq.n	8002c1a <HAL_GPIO_DeInit+0x16a>
 8002bb2:	f503 6380 	add.w	r3, r3, #1024	; 0x400
 8002bb6:	429c      	cmp	r4, r3
 8002bb8:	d031      	beq.n	8002c1e <HAL_GPIO_DeInit+0x16e>
 8002bba:	f503 6380 	add.w	r3, r3, #1024	; 0x400
 8002bbe:	429c      	cmp	r4, r3
 8002bc0:	d02f      	beq.n	8002c22 <HAL_GPIO_DeInit+0x172>
 8002bc2:	4554      	cmp	r4, sl
 8002bc4:	d02f      	beq.n	8002c26 <HAL_GPIO_DeInit+0x176>
 8002bc6:	455c      	cmp	r4, fp
 8002bc8:	d02f      	beq.n	8002c2a <HAL_GPIO_DeInit+0x17a>
 8002bca:	f503 6340 	add.w	r3, r3, #3072	; 0xc00
 8002bce:	429c      	cmp	r4, r3
 8002bd0:	d02d      	beq.n	8002c2e <HAL_GPIO_DeInit+0x17e>
 8002bd2:	f503 6380 	add.w	r3, r3, #1024	; 0x400
 8002bd6:	429c      	cmp	r4, r3
 8002bd8:	bf0c      	ite	eq
 8002bda:	2309      	moveq	r3, #9
 8002bdc:	230a      	movne	r3, #10
 8002bde:	40bb      	lsls	r3, r7
 8002be0:	459e      	cmp	lr, r3
 8002be2:	d10f      	bne.n	8002c04 <HAL_GPIO_DeInit+0x154>
        SYSCFG->EXTICR[position >> 2U] &= ~tmp;
 8002be4:	6883      	ldr	r3, [r0, #8]
 8002be6:	ea23 0606 	bic.w	r6, r3, r6
 8002bea:	6086      	str	r6, [r0, #8]
        EXTI->IMR &= ~((uint32_t)iocurrent);
 8002bec:	682b      	ldr	r3, [r5, #0]
 8002bee:	4013      	ands	r3, r2
 8002bf0:	602b      	str	r3, [r5, #0]
        EXTI->EMR &= ~((uint32_t)iocurrent);
 8002bf2:	686b      	ldr	r3, [r5, #4]
 8002bf4:	4013      	ands	r3, r2
 8002bf6:	606b      	str	r3, [r5, #4]
        
        /* Clear Rising Falling edge configuration */
        EXTI->RTSR &= ~((uint32_t)iocurrent);
 8002bf8:	68ab      	ldr	r3, [r5, #8]
 8002bfa:	4013      	ands	r3, r2
 8002bfc:	60ab      	str	r3, [r5, #8]
        EXTI->FTSR &= ~((uint32_t)iocurrent);
 8002bfe:	68eb      	ldr	r3, [r5, #12]
 8002c00:	401a      	ands	r2, r3
 8002c02:	60ea      	str	r2, [r5, #12]
  for(position = 0U; position < GPIO_NUMBER; position++)
 8002c04:	3101      	adds	r1, #1
 8002c06:	2910      	cmp	r1, #16
 8002c08:	d18c      	bne.n	8002b24 <HAL_GPIO_DeInit+0x74>
      }
    }
  }
}
 8002c0a:	e8bd 8ff8 	ldmia.w	sp!, {r3, r4, r5, r6, r7, r8, r9, sl, fp, pc}
      if(tmp == ((uint32_t)(GPIO_GET_INDEX(GPIOx)) << (4U * (position & 0x03U))))
 8002c0e:	2300      	movs	r3, #0
 8002c10:	e7e5      	b.n	8002bde <HAL_GPIO_DeInit+0x12e>
 8002c12:	464b      	mov	r3, r9
 8002c14:	e7e3      	b.n	8002bde <HAL_GPIO_DeInit+0x12e>
 8002c16:	2302      	movs	r3, #2
 8002c18:	e7e1      	b.n	8002bde <HAL_GPIO_DeInit+0x12e>
 8002c1a:	2303      	movs	r3, #3
 8002c1c:	e7df      	b.n	8002bde <HAL_GPIO_DeInit+0x12e>
 8002c1e:	2304      	movs	r3, #4
 8002c20:	e7dd      	b.n	8002bde <HAL_GPIO_DeInit+0x12e>
 8002c22:	2305      	movs	r3, #5
 8002c24:	e7db      	b.n	8002bde <HAL_GPIO_DeInit+0x12e>
 8002c26:	2306      	movs	r3, #6
 8002c28:	e7d9      	b.n	8002bde <HAL_GPIO_DeInit+0x12e>
 8002c2a:	2307      	movs	r3, #7
 8002c2c:	e7d7      	b.n	8002bde <HAL_GPIO_DeInit+0x12e>
 8002c2e:	2308      	movs	r3, #8
 8002c30:	e7d5      	b.n	8002bde <HAL_GPIO_DeInit+0x12e>
 8002c32:	bf00      	nop
 8002c34:	40020000 	.word	0x40020000
 8002c38:	08008317 	.word	0x08008317
 8002c3c:	40013c00 	.word	0x40013c00
 8002c40:	40021800 	.word	0x40021800
 8002c44:	40021c00 	.word	0x40021c00

08002c48 <HAL_GPIO_ReadPin>:
  * @param  GPIO_Pin: specifies the port bit to read.
  *         This parameter can be GPIO_PIN_x where x can be (0..15).
  * @retval The input port pin value.
  */
GPIO_PinState HAL_GPIO_ReadPin(GPIO_TypeDef* GPIOx, uint16_t GPIO_Pin)
{
 8002c48:	b538      	push	{r3, r4, r5, lr}
 8002c4a:	4605      	mov	r5, r0
  GPIO_PinState bitstatus;

  /* Check the parameters */
  assert_param(IS_GPIO_PIN(GPIO_Pin));
 8002c4c:	460c      	mov	r4, r1
 8002c4e:	b921      	cbnz	r1, 8002c5a <HAL_GPIO_ReadPin+0x12>
 8002c50:	f44f 71c8 	mov.w	r1, #400	; 0x190
 8002c54:	4804      	ldr	r0, [pc, #16]	; (8002c68 <HAL_GPIO_ReadPin+0x20>)
 8002c56:	f7fe f85c 	bl	8000d12 <assert_failed>

  if((GPIOx->IDR & GPIO_Pin) != (uint32_t)GPIO_PIN_RESET)
 8002c5a:	692b      	ldr	r3, [r5, #16]
 8002c5c:	421c      	tst	r4, r3
  else
  {
    bitstatus = GPIO_PIN_RESET;
  }
  return bitstatus;
}
 8002c5e:	bf14      	ite	ne
 8002c60:	2001      	movne	r0, #1
 8002c62:	2000      	moveq	r0, #0
 8002c64:	bd38      	pop	{r3, r4, r5, pc}
 8002c66:	bf00      	nop
 8002c68:	08008317 	.word	0x08008317

08002c6c <HAL_GPIO_WritePin>:
  *            @arg GPIO_PIN_RESET: to clear the port pin
  *            @arg GPIO_PIN_SET: to set the port pin
  * @retval None
  */
void HAL_GPIO_WritePin(GPIO_TypeDef* GPIOx, uint16_t GPIO_Pin, GPIO_PinState PinState)
{
 8002c6c:	b570      	push	{r4, r5, r6, lr}
 8002c6e:	4605      	mov	r5, r0
 8002c70:	4616      	mov	r6, r2
  /* Check the parameters */
  assert_param(IS_GPIO_PIN(GPIO_Pin));
 8002c72:	460c      	mov	r4, r1
 8002c74:	b921      	cbnz	r1, 8002c80 <HAL_GPIO_WritePin+0x14>
 8002c76:	f240 11b1 	movw	r1, #433	; 0x1b1
 8002c7a:	4808      	ldr	r0, [pc, #32]	; (8002c9c <HAL_GPIO_WritePin+0x30>)
 8002c7c:	f7fe f849 	bl	8000d12 <assert_failed>
  assert_param(IS_GPIO_PIN_ACTION(PinState));
 8002c80:	2e01      	cmp	r6, #1
 8002c82:	d906      	bls.n	8002c92 <HAL_GPIO_WritePin+0x26>
 8002c84:	f44f 71d9 	mov.w	r1, #434	; 0x1b2
 8002c88:	4804      	ldr	r0, [pc, #16]	; (8002c9c <HAL_GPIO_WritePin+0x30>)
 8002c8a:	f7fe f842 	bl	8000d12 <assert_failed>
  {
    GPIOx->BSRR = GPIO_Pin;
  }
  else
  {
    GPIOx->BSRR = (uint32_t)GPIO_Pin << 16U;
 8002c8e:	61ac      	str	r4, [r5, #24]
 8002c90:	bd70      	pop	{r4, r5, r6, pc}
  if(PinState != GPIO_PIN_RESET)
 8002c92:	2e00      	cmp	r6, #0
 8002c94:	d1fb      	bne.n	8002c8e <HAL_GPIO_WritePin+0x22>
    GPIOx->BSRR = (uint32_t)GPIO_Pin << 16U;
 8002c96:	0424      	lsls	r4, r4, #16
 8002c98:	e7f9      	b.n	8002c8e <HAL_GPIO_WritePin+0x22>
 8002c9a:	bf00      	nop
 8002c9c:	08008317 	.word	0x08008317

08002ca0 <HAL_GPIO_TogglePin>:
  *                      x can be (A..I) to select the GPIO peripheral for STM32F40XX and STM32F427X devices.
  * @param  GPIO_Pin: Specifies the pins to be toggled.
  * @retval None
  */
void HAL_GPIO_TogglePin(GPIO_TypeDef* GPIOx, uint16_t GPIO_Pin)
{
 8002ca0:	b538      	push	{r3, r4, r5, lr}
 8002ca2:	4605      	mov	r5, r0
  /* Check the parameters */
  assert_param(IS_GPIO_PIN(GPIO_Pin));
 8002ca4:	460c      	mov	r4, r1
 8002ca6:	b921      	cbnz	r1, 8002cb2 <HAL_GPIO_TogglePin+0x12>
 8002ca8:	f44f 71e4 	mov.w	r1, #456	; 0x1c8
 8002cac:	4803      	ldr	r0, [pc, #12]	; (8002cbc <HAL_GPIO_TogglePin+0x1c>)
 8002cae:	f7fe f830 	bl	8000d12 <assert_failed>

  GPIOx->ODR ^= GPIO_Pin;
 8002cb2:	696b      	ldr	r3, [r5, #20]
 8002cb4:	405c      	eors	r4, r3
 8002cb6:	616c      	str	r4, [r5, #20]
 8002cb8:	bd38      	pop	{r3, r4, r5, pc}
 8002cba:	bf00      	nop
 8002cbc:	08008317 	.word	0x08008317

08002cc0 <HAL_GPIO_EXTI_IRQHandler>:
  * @brief  This function handles EXTI interrupt request.
  * @param  GPIO_Pin: Specifies the pins connected EXTI line
  * @retval None
  */
void HAL_GPIO_EXTI_IRQHandler(uint16_t GPIO_Pin)
{
 8002cc0:	b508      	push	{r3, lr}
  /* EXTI line interrupt detected */
  if(__HAL_GPIO_EXTI_GET_IT(GPIO_Pin) != RESET)
 8002cc2:	4b04      	ldr	r3, [pc, #16]	; (8002cd4 <HAL_GPIO_EXTI_IRQHandler+0x14>)
 8002cc4:	6959      	ldr	r1, [r3, #20]
 8002cc6:	4201      	tst	r1, r0
 8002cc8:	d002      	beq.n	8002cd0 <HAL_GPIO_EXTI_IRQHandler+0x10>
  {
    __HAL_GPIO_EXTI_CLEAR_IT(GPIO_Pin);
 8002cca:	6158      	str	r0, [r3, #20]
    HAL_GPIO_EXTI_Callback(GPIO_Pin);
 8002ccc:	f003 fe12 	bl	80068f4 <HAL_GPIO_EXTI_Callback>
 8002cd0:	bd08      	pop	{r3, pc}
 8002cd2:	bf00      	nop
 8002cd4:	40013c00 	.word	0x40013c00

08002cd8 <I2C_IsAcknowledgeFailed>:
  *                the configuration information for the specified I2C.
  * @retval HAL status
  */
static HAL_StatusTypeDef I2C_IsAcknowledgeFailed(I2C_HandleTypeDef *hi2c)
{
  if(__HAL_I2C_GET_FLAG(hi2c, I2C_FLAG_AF) == SET)
 8002cd8:	6802      	ldr	r2, [r0, #0]
 8002cda:	6953      	ldr	r3, [r2, #20]
 8002cdc:	f413 6380 	ands.w	r3, r3, #1024	; 0x400
 8002ce0:	d00d      	beq.n	8002cfe <I2C_IsAcknowledgeFailed+0x26>
  {
    /* Clear NACKF Flag */
    __HAL_I2C_CLEAR_FLAG(hi2c, I2C_FLAG_AF);
 8002ce2:	f46f 6380 	mvn.w	r3, #1024	; 0x400
 8002ce6:	6153      	str	r3, [r2, #20]

    hi2c->ErrorCode = HAL_I2C_ERROR_AF;
 8002ce8:	2304      	movs	r3, #4
 8002cea:	6403      	str	r3, [r0, #64]	; 0x40
    hi2c->PreviousState = I2C_STATE_NONE;
    hi2c->State= HAL_I2C_STATE_READY;
 8002cec:	2220      	movs	r2, #32
    hi2c->PreviousState = I2C_STATE_NONE;
 8002cee:	2300      	movs	r3, #0
 8002cf0:	6303      	str	r3, [r0, #48]	; 0x30

    /* Process Unlocked */
    __HAL_UNLOCK(hi2c);
 8002cf2:	f880 303c 	strb.w	r3, [r0, #60]	; 0x3c
    hi2c->State= HAL_I2C_STATE_READY;
 8002cf6:	f880 203d 	strb.w	r2, [r0, #61]	; 0x3d

    return HAL_ERROR;
 8002cfa:	2001      	movs	r0, #1
 8002cfc:	4770      	bx	lr
  }
  return HAL_OK;
 8002cfe:	4618      	mov	r0, r3
}
 8002d00:	4770      	bx	lr

08002d02 <I2C_WaitOnMasterAddressFlagUntilTimeout>:
{
 8002d02:	e92d 43f8 	stmdb	sp!, {r3, r4, r5, r6, r7, r8, r9, lr}
 8002d06:	4604      	mov	r4, r0
 8002d08:	4617      	mov	r7, r2
 8002d0a:	4699      	mov	r9, r3
  while(__HAL_I2C_GET_FLAG(hi2c, Flag) == RESET)
 8002d0c:	f3c1 4807 	ubfx	r8, r1, #16, #8
 8002d10:	b28e      	uxth	r6, r1
 8002d12:	6825      	ldr	r5, [r4, #0]
 8002d14:	f1b8 0f01 	cmp.w	r8, #1
 8002d18:	bf0c      	ite	eq
 8002d1a:	696b      	ldreq	r3, [r5, #20]
 8002d1c:	69ab      	ldrne	r3, [r5, #24]
 8002d1e:	ea36 0303 	bics.w	r3, r6, r3
 8002d22:	bf14      	ite	ne
 8002d24:	2001      	movne	r0, #1
 8002d26:	2000      	moveq	r0, #0
 8002d28:	b908      	cbnz	r0, 8002d2e <I2C_WaitOnMasterAddressFlagUntilTimeout+0x2c>
}
 8002d2a:	e8bd 83f8 	ldmia.w	sp!, {r3, r4, r5, r6, r7, r8, r9, pc}
    if(__HAL_I2C_GET_FLAG(hi2c, I2C_FLAG_AF) == SET)
 8002d2e:	696b      	ldr	r3, [r5, #20]
 8002d30:	055a      	lsls	r2, r3, #21
 8002d32:	d512      	bpl.n	8002d5a <I2C_WaitOnMasterAddressFlagUntilTimeout+0x58>
      hi2c->Instance->CR1 |= I2C_CR1_STOP;
 8002d34:	682b      	ldr	r3, [r5, #0]
 8002d36:	f443 7300 	orr.w	r3, r3, #512	; 0x200
 8002d3a:	602b      	str	r3, [r5, #0]
      __HAL_I2C_CLEAR_FLAG(hi2c, I2C_FLAG_AF);
 8002d3c:	f46f 6380 	mvn.w	r3, #1024	; 0x400
 8002d40:	616b      	str	r3, [r5, #20]
      hi2c->ErrorCode = HAL_I2C_ERROR_AF;
 8002d42:	2304      	movs	r3, #4
 8002d44:	6423      	str	r3, [r4, #64]	; 0x40
      hi2c->State= HAL_I2C_STATE_READY;
 8002d46:	2220      	movs	r2, #32
      hi2c->PreviousState = I2C_STATE_NONE;
 8002d48:	2300      	movs	r3, #0
 8002d4a:	6323      	str	r3, [r4, #48]	; 0x30
      __HAL_UNLOCK(hi2c);
 8002d4c:	f884 303c 	strb.w	r3, [r4, #60]	; 0x3c
      hi2c->State= HAL_I2C_STATE_READY;
 8002d50:	f884 203d 	strb.w	r2, [r4, #61]	; 0x3d
      return HAL_ERROR;
 8002d54:	2001      	movs	r0, #1
 8002d56:	e8bd 83f8 	ldmia.w	sp!, {r3, r4, r5, r6, r7, r8, r9, pc}
    if(Timeout != HAL_MAX_DELAY)
 8002d5a:	1c7b      	adds	r3, r7, #1
 8002d5c:	d0d9      	beq.n	8002d12 <I2C_WaitOnMasterAddressFlagUntilTimeout+0x10>
      if((Timeout == 0U)||((HAL_GetTick() - Tickstart ) > Timeout))
 8002d5e:	b94f      	cbnz	r7, 8002d74 <I2C_WaitOnMasterAddressFlagUntilTimeout+0x72>
        hi2c->PreviousState = I2C_STATE_NONE;
 8002d60:	2300      	movs	r3, #0
        hi2c->State= HAL_I2C_STATE_READY;
 8002d62:	2220      	movs	r2, #32
        hi2c->PreviousState = I2C_STATE_NONE;
 8002d64:	6323      	str	r3, [r4, #48]	; 0x30
        __HAL_UNLOCK(hi2c);
 8002d66:	f884 303c 	strb.w	r3, [r4, #60]	; 0x3c
        hi2c->State= HAL_I2C_STATE_READY;
 8002d6a:	f884 203d 	strb.w	r2, [r4, #61]	; 0x3d
        return HAL_TIMEOUT;
 8002d6e:	2003      	movs	r0, #3
 8002d70:	e8bd 83f8 	ldmia.w	sp!, {r3, r4, r5, r6, r7, r8, r9, pc}
      if((Timeout == 0U)||((HAL_GetTick() - Tickstart ) > Timeout))
 8002d74:	f7fe fe4c 	bl	8001a10 <HAL_GetTick>
 8002d78:	eba0 0009 	sub.w	r0, r0, r9
 8002d7c:	4287      	cmp	r7, r0
 8002d7e:	d2c8      	bcs.n	8002d12 <I2C_WaitOnMasterAddressFlagUntilTimeout+0x10>
 8002d80:	e7ee      	b.n	8002d60 <I2C_WaitOnMasterAddressFlagUntilTimeout+0x5e>

08002d82 <I2C_WaitOnFlagUntilTimeout>:
{
 8002d82:	e92d 43f8 	stmdb	sp!, {r3, r4, r5, r6, r7, r8, r9, lr}
 8002d86:	9e08      	ldr	r6, [sp, #32]
 8002d88:	4604      	mov	r4, r0
 8002d8a:	4690      	mov	r8, r2
 8002d8c:	461f      	mov	r7, r3
  while((__HAL_I2C_GET_FLAG(hi2c, Flag) ? SET : RESET) == Status) 
 8002d8e:	f3c1 4907 	ubfx	r9, r1, #16, #8
 8002d92:	b28d      	uxth	r5, r1
 8002d94:	6823      	ldr	r3, [r4, #0]
 8002d96:	f1b9 0f01 	cmp.w	r9, #1
 8002d9a:	bf0c      	ite	eq
 8002d9c:	695b      	ldreq	r3, [r3, #20]
 8002d9e:	699b      	ldrne	r3, [r3, #24]
 8002da0:	ea35 0303 	bics.w	r3, r5, r3
 8002da4:	bf0c      	ite	eq
 8002da6:	2301      	moveq	r3, #1
 8002da8:	2300      	movne	r3, #0
 8002daa:	4543      	cmp	r3, r8
 8002dac:	d002      	beq.n	8002db4 <I2C_WaitOnFlagUntilTimeout+0x32>
  return HAL_OK;
 8002dae:	2000      	movs	r0, #0
}
 8002db0:	e8bd 83f8 	ldmia.w	sp!, {r3, r4, r5, r6, r7, r8, r9, pc}
    if(Timeout != HAL_MAX_DELAY)
 8002db4:	1c7b      	adds	r3, r7, #1
 8002db6:	d0ed      	beq.n	8002d94 <I2C_WaitOnFlagUntilTimeout+0x12>
      if((Timeout == 0U)||((HAL_GetTick() - Tickstart ) > Timeout))
 8002db8:	b95f      	cbnz	r7, 8002dd2 <I2C_WaitOnFlagUntilTimeout+0x50>
        hi2c->PreviousState = I2C_STATE_NONE;
 8002dba:	2300      	movs	r3, #0
        hi2c->State= HAL_I2C_STATE_READY;
 8002dbc:	2220      	movs	r2, #32
        hi2c->PreviousState = I2C_STATE_NONE;
 8002dbe:	6323      	str	r3, [r4, #48]	; 0x30
        __HAL_UNLOCK(hi2c);
 8002dc0:	f884 303c 	strb.w	r3, [r4, #60]	; 0x3c
        hi2c->State= HAL_I2C_STATE_READY;
 8002dc4:	f884 203d 	strb.w	r2, [r4, #61]	; 0x3d
        __HAL_UNLOCK(hi2c);
 8002dc8:	2003      	movs	r0, #3
        hi2c->Mode = HAL_I2C_MODE_NONE;
 8002dca:	f884 303e 	strb.w	r3, [r4, #62]	; 0x3e
 8002dce:	e8bd 83f8 	ldmia.w	sp!, {r3, r4, r5, r6, r7, r8, r9, pc}
      if((Timeout == 0U)||((HAL_GetTick() - Tickstart ) > Timeout))
 8002dd2:	f7fe fe1d 	bl	8001a10 <HAL_GetTick>
 8002dd6:	1b80      	subs	r0, r0, r6
 8002dd8:	4287      	cmp	r7, r0
 8002dda:	d2db      	bcs.n	8002d94 <I2C_WaitOnFlagUntilTimeout+0x12>
 8002ddc:	e7ed      	b.n	8002dba <I2C_WaitOnFlagUntilTimeout+0x38>

08002dde <I2C_WaitOnTXEFlagUntilTimeout>:
{    
 8002dde:	b570      	push	{r4, r5, r6, lr}
 8002de0:	4604      	mov	r4, r0
 8002de2:	460d      	mov	r5, r1
 8002de4:	4616      	mov	r6, r2
  while(__HAL_I2C_GET_FLAG(hi2c, I2C_FLAG_TXE) == RESET)
 8002de6:	6823      	ldr	r3, [r4, #0]
 8002de8:	695b      	ldr	r3, [r3, #20]
 8002dea:	061b      	lsls	r3, r3, #24
 8002dec:	d501      	bpl.n	8002df2 <I2C_WaitOnTXEFlagUntilTimeout+0x14>
  return HAL_OK;      
 8002dee:	2000      	movs	r0, #0
 8002df0:	bd70      	pop	{r4, r5, r6, pc}
    if(I2C_IsAcknowledgeFailed(hi2c) != HAL_OK)
 8002df2:	4620      	mov	r0, r4
 8002df4:	f7ff ff70 	bl	8002cd8 <I2C_IsAcknowledgeFailed>
 8002df8:	b9a8      	cbnz	r0, 8002e26 <I2C_WaitOnTXEFlagUntilTimeout+0x48>
    if(Timeout != HAL_MAX_DELAY)
 8002dfa:	1c6a      	adds	r2, r5, #1
 8002dfc:	d0f3      	beq.n	8002de6 <I2C_WaitOnTXEFlagUntilTimeout+0x8>
      if((Timeout == 0U) || ((HAL_GetTick()-Tickstart) > Timeout))
 8002dfe:	b965      	cbnz	r5, 8002e1a <I2C_WaitOnTXEFlagUntilTimeout+0x3c>
        hi2c->ErrorCode |= HAL_I2C_ERROR_TIMEOUT;
 8002e00:	6c23      	ldr	r3, [r4, #64]	; 0x40
 8002e02:	f043 0320 	orr.w	r3, r3, #32
 8002e06:	6423      	str	r3, [r4, #64]	; 0x40
        hi2c->State= HAL_I2C_STATE_READY;
 8002e08:	2220      	movs	r2, #32
        hi2c->PreviousState = I2C_STATE_NONE;
 8002e0a:	2300      	movs	r3, #0
 8002e0c:	6323      	str	r3, [r4, #48]	; 0x30
        __HAL_UNLOCK(hi2c);
 8002e0e:	f884 303c 	strb.w	r3, [r4, #60]	; 0x3c
        hi2c->State= HAL_I2C_STATE_READY;
 8002e12:	f884 203d 	strb.w	r2, [r4, #61]	; 0x3d
        __HAL_UNLOCK(hi2c);
 8002e16:	2003      	movs	r0, #3
 8002e18:	bd70      	pop	{r4, r5, r6, pc}
      if((Timeout == 0U) || ((HAL_GetTick()-Tickstart) > Timeout))
 8002e1a:	f7fe fdf9 	bl	8001a10 <HAL_GetTick>
 8002e1e:	1b80      	subs	r0, r0, r6
 8002e20:	4285      	cmp	r5, r0
 8002e22:	d2e0      	bcs.n	8002de6 <I2C_WaitOnTXEFlagUntilTimeout+0x8>
 8002e24:	e7ec      	b.n	8002e00 <I2C_WaitOnTXEFlagUntilTimeout+0x22>
      return HAL_ERROR;
 8002e26:	2001      	movs	r0, #1
}
 8002e28:	bd70      	pop	{r4, r5, r6, pc}
	...

08002e2c <I2C_RequestMemoryWrite>:
{
 8002e2c:	e92d 41ff 	stmdb	sp!, {r0, r1, r2, r3, r4, r5, r6, r7, r8, lr}
 8002e30:	4615      	mov	r5, r2
  hi2c->Instance->CR1 |= I2C_CR1_START;
 8002e32:	6802      	ldr	r2, [r0, #0]
{
 8002e34:	9e0b      	ldr	r6, [sp, #44]	; 0x2c
 8002e36:	4698      	mov	r8, r3
  hi2c->Instance->CR1 |= I2C_CR1_START;
 8002e38:	6813      	ldr	r3, [r2, #0]
 8002e3a:	f443 7380 	orr.w	r3, r3, #256	; 0x100
 8002e3e:	6013      	str	r3, [r2, #0]
{
 8002e40:	460f      	mov	r7, r1
  if(I2C_WaitOnFlagUntilTimeout(hi2c, I2C_FLAG_SB, RESET, Timeout, Tickstart) != HAL_OK)
 8002e42:	9600      	str	r6, [sp, #0]
 8002e44:	9b0a      	ldr	r3, [sp, #40]	; 0x28
 8002e46:	2200      	movs	r2, #0
 8002e48:	f04f 1101 	mov.w	r1, #65537	; 0x10001
{
 8002e4c:	4604      	mov	r4, r0
  if(I2C_WaitOnFlagUntilTimeout(hi2c, I2C_FLAG_SB, RESET, Timeout, Tickstart) != HAL_OK)
 8002e4e:	f7ff ff98 	bl	8002d82 <I2C_WaitOnFlagUntilTimeout>
 8002e52:	b968      	cbnz	r0, 8002e70 <I2C_RequestMemoryWrite+0x44>
  hi2c->Instance->DR = I2C_7BIT_ADD_WRITE(DevAddress);
 8002e54:	6823      	ldr	r3, [r4, #0]
  if(I2C_WaitOnMasterAddressFlagUntilTimeout(hi2c, I2C_FLAG_ADDR, Timeout, Tickstart) != HAL_OK)
 8002e56:	9a0a      	ldr	r2, [sp, #40]	; 0x28
 8002e58:	491c      	ldr	r1, [pc, #112]	; (8002ecc <I2C_RequestMemoryWrite+0xa0>)
  hi2c->Instance->DR = I2C_7BIT_ADD_WRITE(DevAddress);
 8002e5a:	f007 07fe 	and.w	r7, r7, #254	; 0xfe
 8002e5e:	611f      	str	r7, [r3, #16]
  if(I2C_WaitOnMasterAddressFlagUntilTimeout(hi2c, I2C_FLAG_ADDR, Timeout, Tickstart) != HAL_OK)
 8002e60:	4620      	mov	r0, r4
 8002e62:	4633      	mov	r3, r6
 8002e64:	f7ff ff4d 	bl	8002d02 <I2C_WaitOnMasterAddressFlagUntilTimeout>
 8002e68:	b130      	cbz	r0, 8002e78 <I2C_RequestMemoryWrite+0x4c>
    if(hi2c->ErrorCode == HAL_I2C_ERROR_AF)
 8002e6a:	6c23      	ldr	r3, [r4, #64]	; 0x40
 8002e6c:	2b04      	cmp	r3, #4
 8002e6e:	d018      	beq.n	8002ea2 <I2C_RequestMemoryWrite+0x76>
      return HAL_TIMEOUT;
 8002e70:	2003      	movs	r0, #3
}
 8002e72:	b004      	add	sp, #16
 8002e74:	e8bd 81f0 	ldmia.w	sp!, {r4, r5, r6, r7, r8, pc}
  __HAL_I2C_CLEAR_ADDRFLAG(hi2c);
 8002e78:	6823      	ldr	r3, [r4, #0]
 8002e7a:	9003      	str	r0, [sp, #12]
 8002e7c:	695a      	ldr	r2, [r3, #20]
 8002e7e:	9203      	str	r2, [sp, #12]
 8002e80:	699b      	ldr	r3, [r3, #24]
 8002e82:	9303      	str	r3, [sp, #12]
  if(I2C_WaitOnTXEFlagUntilTimeout(hi2c, Timeout, Tickstart) != HAL_OK)
 8002e84:	4632      	mov	r2, r6
 8002e86:	990a      	ldr	r1, [sp, #40]	; 0x28
  __HAL_I2C_CLEAR_ADDRFLAG(hi2c);
 8002e88:	9b03      	ldr	r3, [sp, #12]
  if(I2C_WaitOnTXEFlagUntilTimeout(hi2c, Timeout, Tickstart) != HAL_OK)
 8002e8a:	4620      	mov	r0, r4
 8002e8c:	f7ff ffa7 	bl	8002dde <I2C_WaitOnTXEFlagUntilTimeout>
 8002e90:	b148      	cbz	r0, 8002ea6 <I2C_RequestMemoryWrite+0x7a>
      if(hi2c->ErrorCode == HAL_I2C_ERROR_AF)
 8002e92:	6c23      	ldr	r3, [r4, #64]	; 0x40
 8002e94:	2b04      	cmp	r3, #4
 8002e96:	d1eb      	bne.n	8002e70 <I2C_RequestMemoryWrite+0x44>
        hi2c->Instance->CR1 |= I2C_CR1_STOP;
 8002e98:	6822      	ldr	r2, [r4, #0]
 8002e9a:	6813      	ldr	r3, [r2, #0]
 8002e9c:	f443 7300 	orr.w	r3, r3, #512	; 0x200
 8002ea0:	6013      	str	r3, [r2, #0]
      return HAL_ERROR;
 8002ea2:	2001      	movs	r0, #1
 8002ea4:	e7e5      	b.n	8002e72 <I2C_RequestMemoryWrite+0x46>
  if(MemAddSize == I2C_MEMADD_SIZE_8BIT)
 8002ea6:	f1b8 0f01 	cmp.w	r8, #1
 8002eaa:	6823      	ldr	r3, [r4, #0]
 8002eac:	d102      	bne.n	8002eb4 <I2C_RequestMemoryWrite+0x88>
    hi2c->Instance->DR = I2C_MEM_ADD_LSB(MemAddress);
 8002eae:	b2ed      	uxtb	r5, r5
 8002eb0:	611d      	str	r5, [r3, #16]
 8002eb2:	e7de      	b.n	8002e72 <I2C_RequestMemoryWrite+0x46>
    hi2c->Instance->DR = I2C_MEM_ADD_MSB(MemAddress);
 8002eb4:	0a2a      	lsrs	r2, r5, #8
 8002eb6:	611a      	str	r2, [r3, #16]
    if(I2C_WaitOnTXEFlagUntilTimeout(hi2c, Timeout, Tickstart) != HAL_OK)
 8002eb8:	990a      	ldr	r1, [sp, #40]	; 0x28
 8002eba:	4632      	mov	r2, r6
 8002ebc:	4620      	mov	r0, r4
 8002ebe:	f7ff ff8e 	bl	8002dde <I2C_WaitOnTXEFlagUntilTimeout>
 8002ec2:	2800      	cmp	r0, #0
 8002ec4:	d1e5      	bne.n	8002e92 <I2C_RequestMemoryWrite+0x66>
    hi2c->Instance->DR = I2C_MEM_ADD_LSB(MemAddress);
 8002ec6:	6823      	ldr	r3, [r4, #0]
 8002ec8:	e7f1      	b.n	8002eae <I2C_RequestMemoryWrite+0x82>
 8002eca:	bf00      	nop
 8002ecc:	00010002 	.word	0x00010002

08002ed0 <I2C_RequestMemoryRead>:
{
 8002ed0:	e92d 41ff 	stmdb	sp!, {r0, r1, r2, r3, r4, r5, r6, r7, r8, lr}
 8002ed4:	4698      	mov	r8, r3
  hi2c->Instance->CR1 |= I2C_CR1_ACK;
 8002ed6:	6803      	ldr	r3, [r0, #0]
{
 8002ed8:	9d0b      	ldr	r5, [sp, #44]	; 0x2c
 8002eda:	4616      	mov	r6, r2
  hi2c->Instance->CR1 |= I2C_CR1_ACK;
 8002edc:	681a      	ldr	r2, [r3, #0]
 8002ede:	f442 6280 	orr.w	r2, r2, #1024	; 0x400
 8002ee2:	601a      	str	r2, [r3, #0]
  hi2c->Instance->CR1 |= I2C_CR1_START;
 8002ee4:	681a      	ldr	r2, [r3, #0]
 8002ee6:	f442 7280 	orr.w	r2, r2, #256	; 0x100
 8002eea:	601a      	str	r2, [r3, #0]
{
 8002eec:	460f      	mov	r7, r1
  if(I2C_WaitOnFlagUntilTimeout(hi2c, I2C_FLAG_SB, RESET, Timeout, Tickstart) != HAL_OK)
 8002eee:	9500      	str	r5, [sp, #0]
 8002ef0:	9b0a      	ldr	r3, [sp, #40]	; 0x28
 8002ef2:	2200      	movs	r2, #0
 8002ef4:	f04f 1101 	mov.w	r1, #65537	; 0x10001
{
 8002ef8:	4604      	mov	r4, r0
  if(I2C_WaitOnFlagUntilTimeout(hi2c, I2C_FLAG_SB, RESET, Timeout, Tickstart) != HAL_OK)
 8002efa:	f7ff ff42 	bl	8002d82 <I2C_WaitOnFlagUntilTimeout>
 8002efe:	b980      	cbnz	r0, 8002f22 <I2C_RequestMemoryRead+0x52>
  hi2c->Instance->DR = I2C_7BIT_ADD_WRITE(DevAddress);
 8002f00:	6823      	ldr	r3, [r4, #0]
  if(I2C_WaitOnMasterAddressFlagUntilTimeout(hi2c, I2C_FLAG_ADDR, Timeout, Tickstart) != HAL_OK)
 8002f02:	492f      	ldr	r1, [pc, #188]	; (8002fc0 <I2C_RequestMemoryRead+0xf0>)
  hi2c->Instance->DR = I2C_7BIT_ADD_WRITE(DevAddress);
 8002f04:	b2ff      	uxtb	r7, r7
 8002f06:	f007 02fe 	and.w	r2, r7, #254	; 0xfe
 8002f0a:	611a      	str	r2, [r3, #16]
  if(I2C_WaitOnMasterAddressFlagUntilTimeout(hi2c, I2C_FLAG_ADDR, Timeout, Tickstart) != HAL_OK)
 8002f0c:	4620      	mov	r0, r4
 8002f0e:	462b      	mov	r3, r5
 8002f10:	9a0a      	ldr	r2, [sp, #40]	; 0x28
 8002f12:	f7ff fef6 	bl	8002d02 <I2C_WaitOnMasterAddressFlagUntilTimeout>
 8002f16:	b140      	cbz	r0, 8002f2a <I2C_RequestMemoryRead+0x5a>
    if(hi2c->ErrorCode == HAL_I2C_ERROR_AF)
 8002f18:	6c23      	ldr	r3, [r4, #64]	; 0x40
 8002f1a:	2b04      	cmp	r3, #4
 8002f1c:	d101      	bne.n	8002f22 <I2C_RequestMemoryRead+0x52>
      return HAL_ERROR;
 8002f1e:	2001      	movs	r0, #1
 8002f20:	e000      	b.n	8002f24 <I2C_RequestMemoryRead+0x54>
      return HAL_TIMEOUT;
 8002f22:	2003      	movs	r0, #3
}
 8002f24:	b004      	add	sp, #16
 8002f26:	e8bd 81f0 	ldmia.w	sp!, {r4, r5, r6, r7, r8, pc}
  __HAL_I2C_CLEAR_ADDRFLAG(hi2c);
 8002f2a:	6823      	ldr	r3, [r4, #0]
 8002f2c:	9003      	str	r0, [sp, #12]
 8002f2e:	695a      	ldr	r2, [r3, #20]
 8002f30:	9203      	str	r2, [sp, #12]
 8002f32:	699b      	ldr	r3, [r3, #24]
 8002f34:	9303      	str	r3, [sp, #12]
  if(I2C_WaitOnTXEFlagUntilTimeout(hi2c, Timeout, Tickstart) != HAL_OK)
 8002f36:	462a      	mov	r2, r5
 8002f38:	990a      	ldr	r1, [sp, #40]	; 0x28
  __HAL_I2C_CLEAR_ADDRFLAG(hi2c);
 8002f3a:	9b03      	ldr	r3, [sp, #12]
  if(I2C_WaitOnTXEFlagUntilTimeout(hi2c, Timeout, Tickstart) != HAL_OK)
 8002f3c:	4620      	mov	r0, r4
 8002f3e:	f7ff ff4e 	bl	8002dde <I2C_WaitOnTXEFlagUntilTimeout>
 8002f42:	b140      	cbz	r0, 8002f56 <I2C_RequestMemoryRead+0x86>
    if(hi2c->ErrorCode == HAL_I2C_ERROR_AF)
 8002f44:	6c23      	ldr	r3, [r4, #64]	; 0x40
 8002f46:	2b04      	cmp	r3, #4
 8002f48:	d1eb      	bne.n	8002f22 <I2C_RequestMemoryRead+0x52>
      hi2c->Instance->CR1 |= I2C_CR1_STOP;
 8002f4a:	6822      	ldr	r2, [r4, #0]
 8002f4c:	6813      	ldr	r3, [r2, #0]
 8002f4e:	f443 7300 	orr.w	r3, r3, #512	; 0x200
 8002f52:	6013      	str	r3, [r2, #0]
 8002f54:	e7e3      	b.n	8002f1e <I2C_RequestMemoryRead+0x4e>
  if(MemAddSize == I2C_MEMADD_SIZE_8BIT)
 8002f56:	f1b8 0f01 	cmp.w	r8, #1
 8002f5a:	6823      	ldr	r3, [r4, #0]
 8002f5c:	d124      	bne.n	8002fa8 <I2C_RequestMemoryRead+0xd8>
    hi2c->Instance->DR = I2C_MEM_ADD_LSB(MemAddress);
 8002f5e:	b2f6      	uxtb	r6, r6
 8002f60:	611e      	str	r6, [r3, #16]
  if(I2C_WaitOnTXEFlagUntilTimeout(hi2c, Timeout, Tickstart) != HAL_OK)
 8002f62:	462a      	mov	r2, r5
 8002f64:	990a      	ldr	r1, [sp, #40]	; 0x28
 8002f66:	4620      	mov	r0, r4
 8002f68:	f7ff ff39 	bl	8002dde <I2C_WaitOnTXEFlagUntilTimeout>
 8002f6c:	4602      	mov	r2, r0
 8002f6e:	2800      	cmp	r0, #0
 8002f70:	d1e8      	bne.n	8002f44 <I2C_RequestMemoryRead+0x74>
  hi2c->Instance->CR1 |= I2C_CR1_START;
 8002f72:	6821      	ldr	r1, [r4, #0]
 8002f74:	680b      	ldr	r3, [r1, #0]
 8002f76:	f443 7380 	orr.w	r3, r3, #256	; 0x100
 8002f7a:	600b      	str	r3, [r1, #0]
  if(I2C_WaitOnFlagUntilTimeout(hi2c, I2C_FLAG_SB, RESET, Timeout, Tickstart) != HAL_OK)
 8002f7c:	4620      	mov	r0, r4
 8002f7e:	9500      	str	r5, [sp, #0]
 8002f80:	9b0a      	ldr	r3, [sp, #40]	; 0x28
 8002f82:	f04f 1101 	mov.w	r1, #65537	; 0x10001
 8002f86:	f7ff fefc 	bl	8002d82 <I2C_WaitOnFlagUntilTimeout>
 8002f8a:	2800      	cmp	r0, #0
 8002f8c:	d1c9      	bne.n	8002f22 <I2C_RequestMemoryRead+0x52>
  hi2c->Instance->DR = I2C_7BIT_ADD_READ(DevAddress);
 8002f8e:	6823      	ldr	r3, [r4, #0]
  if(I2C_WaitOnMasterAddressFlagUntilTimeout(hi2c, I2C_FLAG_ADDR, Timeout, Tickstart) != HAL_OK)
 8002f90:	9a0a      	ldr	r2, [sp, #40]	; 0x28
 8002f92:	490b      	ldr	r1, [pc, #44]	; (8002fc0 <I2C_RequestMemoryRead+0xf0>)
  hi2c->Instance->DR = I2C_7BIT_ADD_READ(DevAddress);
 8002f94:	f047 0701 	orr.w	r7, r7, #1
 8002f98:	611f      	str	r7, [r3, #16]
  if(I2C_WaitOnMasterAddressFlagUntilTimeout(hi2c, I2C_FLAG_ADDR, Timeout, Tickstart) != HAL_OK)
 8002f9a:	4620      	mov	r0, r4
 8002f9c:	462b      	mov	r3, r5
 8002f9e:	f7ff feb0 	bl	8002d02 <I2C_WaitOnMasterAddressFlagUntilTimeout>
 8002fa2:	2800      	cmp	r0, #0
 8002fa4:	d1b8      	bne.n	8002f18 <I2C_RequestMemoryRead+0x48>
 8002fa6:	e7bd      	b.n	8002f24 <I2C_RequestMemoryRead+0x54>
    hi2c->Instance->DR = I2C_MEM_ADD_MSB(MemAddress);
 8002fa8:	0a32      	lsrs	r2, r6, #8
 8002faa:	611a      	str	r2, [r3, #16]
    if(I2C_WaitOnTXEFlagUntilTimeout(hi2c, Timeout, Tickstart) != HAL_OK)
 8002fac:	990a      	ldr	r1, [sp, #40]	; 0x28
 8002fae:	462a      	mov	r2, r5
 8002fb0:	4620      	mov	r0, r4
 8002fb2:	f7ff ff14 	bl	8002dde <I2C_WaitOnTXEFlagUntilTimeout>
 8002fb6:	2800      	cmp	r0, #0
 8002fb8:	d1c4      	bne.n	8002f44 <I2C_RequestMemoryRead+0x74>
    hi2c->Instance->DR = I2C_MEM_ADD_LSB(MemAddress);
 8002fba:	6823      	ldr	r3, [r4, #0]
 8002fbc:	e7cf      	b.n	8002f5e <I2C_RequestMemoryRead+0x8e>
 8002fbe:	bf00      	nop
 8002fc0:	00010002 	.word	0x00010002

08002fc4 <I2C_WaitOnRXNEFlagUntilTimeout>:
{  
 8002fc4:	b570      	push	{r4, r5, r6, lr}
 8002fc6:	4604      	mov	r4, r0
 8002fc8:	460d      	mov	r5, r1
 8002fca:	4616      	mov	r6, r2
  while(__HAL_I2C_GET_FLAG(hi2c, I2C_FLAG_RXNE) == RESET)
 8002fcc:	6820      	ldr	r0, [r4, #0]
 8002fce:	6943      	ldr	r3, [r0, #20]
 8002fd0:	f013 0340 	ands.w	r3, r3, #64	; 0x40
 8002fd4:	d001      	beq.n	8002fda <I2C_WaitOnRXNEFlagUntilTimeout+0x16>
  return HAL_OK;
 8002fd6:	2000      	movs	r0, #0
}
 8002fd8:	bd70      	pop	{r4, r5, r6, pc}
    if(__HAL_I2C_GET_FLAG(hi2c, I2C_FLAG_STOPF) == SET)
 8002fda:	6942      	ldr	r2, [r0, #20]
 8002fdc:	06d2      	lsls	r2, r2, #27
 8002fde:	d50b      	bpl.n	8002ff8 <I2C_WaitOnRXNEFlagUntilTimeout+0x34>
      __HAL_I2C_CLEAR_FLAG(hi2c, I2C_FLAG_STOPF);
 8002fe0:	f06f 0210 	mvn.w	r2, #16
 8002fe4:	6142      	str	r2, [r0, #20]
      hi2c->State= HAL_I2C_STATE_READY;
 8002fe6:	2220      	movs	r2, #32
      hi2c->ErrorCode = HAL_I2C_ERROR_NONE;
 8002fe8:	6423      	str	r3, [r4, #64]	; 0x40
      __HAL_UNLOCK(hi2c);
 8002fea:	f884 303c 	strb.w	r3, [r4, #60]	; 0x3c
      hi2c->PreviousState = I2C_STATE_NONE;
 8002fee:	6323      	str	r3, [r4, #48]	; 0x30
      return HAL_ERROR;
 8002ff0:	2001      	movs	r0, #1
      hi2c->State= HAL_I2C_STATE_READY;
 8002ff2:	f884 203d 	strb.w	r2, [r4, #61]	; 0x3d
      return HAL_ERROR;
 8002ff6:	bd70      	pop	{r4, r5, r6, pc}
    if((Timeout == 0U) || ((HAL_GetTick()-Tickstart) > Timeout))
 8002ff8:	b95d      	cbnz	r5, 8003012 <I2C_WaitOnRXNEFlagUntilTimeout+0x4e>
      hi2c->ErrorCode |= HAL_I2C_ERROR_TIMEOUT;
 8002ffa:	6c23      	ldr	r3, [r4, #64]	; 0x40
 8002ffc:	f043 0320 	orr.w	r3, r3, #32
 8003000:	6423      	str	r3, [r4, #64]	; 0x40
      hi2c->State= HAL_I2C_STATE_READY;
 8003002:	2320      	movs	r3, #32
 8003004:	f884 303d 	strb.w	r3, [r4, #61]	; 0x3d
      __HAL_UNLOCK(hi2c);
 8003008:	2300      	movs	r3, #0
 800300a:	f884 303c 	strb.w	r3, [r4, #60]	; 0x3c
 800300e:	2003      	movs	r0, #3
 8003010:	bd70      	pop	{r4, r5, r6, pc}
    if((Timeout == 0U) || ((HAL_GetTick()-Tickstart) > Timeout))
 8003012:	f7fe fcfd 	bl	8001a10 <HAL_GetTick>
 8003016:	1b80      	subs	r0, r0, r6
 8003018:	4285      	cmp	r5, r0
 800301a:	d2d7      	bcs.n	8002fcc <I2C_WaitOnRXNEFlagUntilTimeout+0x8>
 800301c:	e7ed      	b.n	8002ffa <I2C_WaitOnRXNEFlagUntilTimeout+0x36>

0800301e <I2C_WaitOnBTFFlagUntilTimeout>:
{  
 800301e:	b570      	push	{r4, r5, r6, lr}
 8003020:	4604      	mov	r4, r0
 8003022:	460d      	mov	r5, r1
 8003024:	4616      	mov	r6, r2
  while(__HAL_I2C_GET_FLAG(hi2c, I2C_FLAG_BTF) == RESET)
 8003026:	6823      	ldr	r3, [r4, #0]
 8003028:	695b      	ldr	r3, [r3, #20]
 800302a:	075b      	lsls	r3, r3, #29
 800302c:	d501      	bpl.n	8003032 <I2C_WaitOnBTFFlagUntilTimeout+0x14>
  return HAL_OK;
 800302e:	2000      	movs	r0, #0
 8003030:	bd70      	pop	{r4, r5, r6, pc}
    if(I2C_IsAcknowledgeFailed(hi2c) != HAL_OK)
 8003032:	4620      	mov	r0, r4
 8003034:	f7ff fe50 	bl	8002cd8 <I2C_IsAcknowledgeFailed>
 8003038:	b9a8      	cbnz	r0, 8003066 <I2C_WaitOnBTFFlagUntilTimeout+0x48>
    if(Timeout != HAL_MAX_DELAY)
 800303a:	1c6a      	adds	r2, r5, #1
 800303c:	d0f3      	beq.n	8003026 <I2C_WaitOnBTFFlagUntilTimeout+0x8>
      if((Timeout == 0U) || ((HAL_GetTick()-Tickstart) > Timeout))
 800303e:	b965      	cbnz	r5, 800305a <I2C_WaitOnBTFFlagUntilTimeout+0x3c>
        hi2c->ErrorCode |= HAL_I2C_ERROR_TIMEOUT;
 8003040:	6c23      	ldr	r3, [r4, #64]	; 0x40
 8003042:	f043 0320 	orr.w	r3, r3, #32
 8003046:	6423      	str	r3, [r4, #64]	; 0x40
        hi2c->State= HAL_I2C_STATE_READY;
 8003048:	2220      	movs	r2, #32
        hi2c->PreviousState = I2C_STATE_NONE;
 800304a:	2300      	movs	r3, #0
 800304c:	6323      	str	r3, [r4, #48]	; 0x30
        __HAL_UNLOCK(hi2c);
 800304e:	f884 303c 	strb.w	r3, [r4, #60]	; 0x3c
        hi2c->State= HAL_I2C_STATE_READY;
 8003052:	f884 203d 	strb.w	r2, [r4, #61]	; 0x3d
        __HAL_UNLOCK(hi2c);
 8003056:	2003      	movs	r0, #3
 8003058:	bd70      	pop	{r4, r5, r6, pc}
      if((Timeout == 0U) || ((HAL_GetTick()-Tickstart) > Timeout))
 800305a:	f7fe fcd9 	bl	8001a10 <HAL_GetTick>
 800305e:	1b80      	subs	r0, r0, r6
 8003060:	4285      	cmp	r5, r0
 8003062:	d2e0      	bcs.n	8003026 <I2C_WaitOnBTFFlagUntilTimeout+0x8>
 8003064:	e7ec      	b.n	8003040 <I2C_WaitOnBTFFlagUntilTimeout+0x22>
      return HAL_ERROR;
 8003066:	2001      	movs	r0, #1
}
 8003068:	bd70      	pop	{r4, r5, r6, pc}
	...

0800306c <HAL_I2C_Init>:
{
 800306c:	b570      	push	{r4, r5, r6, lr}
  if(hi2c == NULL)
 800306e:	4604      	mov	r4, r0
 8003070:	2800      	cmp	r0, #0
 8003072:	f000 80c1 	beq.w	80031f8 <HAL_I2C_Init+0x18c>
  assert_param(IS_I2C_ALL_INSTANCE(hi2c->Instance));
 8003076:	6803      	ldr	r3, [r0, #0]
 8003078:	4a60      	ldr	r2, [pc, #384]	; (80031fc <HAL_I2C_Init+0x190>)
 800307a:	4293      	cmp	r3, r2
 800307c:	d00c      	beq.n	8003098 <HAL_I2C_Init+0x2c>
 800307e:	f502 6280 	add.w	r2, r2, #1024	; 0x400
 8003082:	4293      	cmp	r3, r2
 8003084:	d008      	beq.n	8003098 <HAL_I2C_Init+0x2c>
 8003086:	f502 6280 	add.w	r2, r2, #1024	; 0x400
 800308a:	4293      	cmp	r3, r2
 800308c:	d004      	beq.n	8003098 <HAL_I2C_Init+0x2c>
 800308e:	f44f 71b8 	mov.w	r1, #368	; 0x170
 8003092:	485b      	ldr	r0, [pc, #364]	; (8003200 <HAL_I2C_Init+0x194>)
 8003094:	f7fd fe3d 	bl	8000d12 <assert_failed>
  assert_param(IS_I2C_CLOCK_SPEED(hi2c->Init.ClockSpeed));
 8003098:	6863      	ldr	r3, [r4, #4]
 800309a:	4a5a      	ldr	r2, [pc, #360]	; (8003204 <HAL_I2C_Init+0x198>)
 800309c:	3b01      	subs	r3, #1
 800309e:	4293      	cmp	r3, r2
 80030a0:	d904      	bls.n	80030ac <HAL_I2C_Init+0x40>
 80030a2:	f240 1171 	movw	r1, #369	; 0x171
 80030a6:	4856      	ldr	r0, [pc, #344]	; (8003200 <HAL_I2C_Init+0x194>)
 80030a8:	f7fd fe33 	bl	8000d12 <assert_failed>
  assert_param(IS_I2C_DUTY_CYCLE(hi2c->Init.DutyCycle));
 80030ac:	68a3      	ldr	r3, [r4, #8]
 80030ae:	f433 4380 	bics.w	r3, r3, #16384	; 0x4000
 80030b2:	d004      	beq.n	80030be <HAL_I2C_Init+0x52>
 80030b4:	f44f 71b9 	mov.w	r1, #370	; 0x172
 80030b8:	4851      	ldr	r0, [pc, #324]	; (8003200 <HAL_I2C_Init+0x194>)
 80030ba:	f7fd fe2a 	bl	8000d12 <assert_failed>
  assert_param(IS_I2C_OWN_ADDRESS1(hi2c->Init.OwnAddress1));
 80030be:	68e3      	ldr	r3, [r4, #12]
 80030c0:	f423 737f 	bic.w	r3, r3, #1020	; 0x3fc
 80030c4:	f023 0303 	bic.w	r3, r3, #3
 80030c8:	b123      	cbz	r3, 80030d4 <HAL_I2C_Init+0x68>
 80030ca:	f240 1173 	movw	r1, #371	; 0x173
 80030ce:	484c      	ldr	r0, [pc, #304]	; (8003200 <HAL_I2C_Init+0x194>)
 80030d0:	f7fd fe1f 	bl	8000d12 <assert_failed>
  assert_param(IS_I2C_ADDRESSING_MODE(hi2c->Init.AddressingMode));
 80030d4:	6923      	ldr	r3, [r4, #16]
 80030d6:	f423 4300 	bic.w	r3, r3, #32768	; 0x8000
 80030da:	f5b3 4f80 	cmp.w	r3, #16384	; 0x4000
 80030de:	d004      	beq.n	80030ea <HAL_I2C_Init+0x7e>
 80030e0:	f44f 71ba 	mov.w	r1, #372	; 0x174
 80030e4:	4846      	ldr	r0, [pc, #280]	; (8003200 <HAL_I2C_Init+0x194>)
 80030e6:	f7fd fe14 	bl	8000d12 <assert_failed>
  assert_param(IS_I2C_DUAL_ADDRESS(hi2c->Init.DualAddressMode));
 80030ea:	6963      	ldr	r3, [r4, #20]
 80030ec:	2b01      	cmp	r3, #1
 80030ee:	d904      	bls.n	80030fa <HAL_I2C_Init+0x8e>
 80030f0:	f240 1175 	movw	r1, #373	; 0x175
 80030f4:	4842      	ldr	r0, [pc, #264]	; (8003200 <HAL_I2C_Init+0x194>)
 80030f6:	f7fd fe0c 	bl	8000d12 <assert_failed>
  assert_param(IS_I2C_OWN_ADDRESS2(hi2c->Init.OwnAddress2));
 80030fa:	69a3      	ldr	r3, [r4, #24]
 80030fc:	f033 03fe 	bics.w	r3, r3, #254	; 0xfe
 8003100:	d004      	beq.n	800310c <HAL_I2C_Init+0xa0>
 8003102:	f44f 71bb 	mov.w	r1, #374	; 0x176
 8003106:	483e      	ldr	r0, [pc, #248]	; (8003200 <HAL_I2C_Init+0x194>)
 8003108:	f7fd fe03 	bl	8000d12 <assert_failed>
  assert_param(IS_I2C_GENERAL_CALL(hi2c->Init.GeneralCallMode));
 800310c:	69e3      	ldr	r3, [r4, #28]
 800310e:	f033 0340 	bics.w	r3, r3, #64	; 0x40
 8003112:	d004      	beq.n	800311e <HAL_I2C_Init+0xb2>
 8003114:	f240 1177 	movw	r1, #375	; 0x177
 8003118:	4839      	ldr	r0, [pc, #228]	; (8003200 <HAL_I2C_Init+0x194>)
 800311a:	f7fd fdfa 	bl	8000d12 <assert_failed>
  assert_param(IS_I2C_NO_STRETCH(hi2c->Init.NoStretchMode));
 800311e:	6a23      	ldr	r3, [r4, #32]
 8003120:	f033 0380 	bics.w	r3, r3, #128	; 0x80
 8003124:	d004      	beq.n	8003130 <HAL_I2C_Init+0xc4>
 8003126:	f44f 71bc 	mov.w	r1, #376	; 0x178
 800312a:	4835      	ldr	r0, [pc, #212]	; (8003200 <HAL_I2C_Init+0x194>)
 800312c:	f7fd fdf1 	bl	8000d12 <assert_failed>
  if(hi2c->State == HAL_I2C_STATE_RESET)
 8003130:	f894 303d 	ldrb.w	r3, [r4, #61]	; 0x3d
 8003134:	f003 02ff 	and.w	r2, r3, #255	; 0xff
 8003138:	b923      	cbnz	r3, 8003144 <HAL_I2C_Init+0xd8>
    hi2c->Lock = HAL_UNLOCKED;
 800313a:	f884 203c 	strb.w	r2, [r4, #60]	; 0x3c
    HAL_I2C_MspInit(hi2c);
 800313e:	4620      	mov	r0, r4
 8003140:	f7fd fbb6 	bl	80008b0 <HAL_I2C_MspInit>
  __HAL_I2C_DISABLE(hi2c);
 8003144:	6822      	ldr	r2, [r4, #0]
  hi2c->Instance->TRISE = I2C_RISE_TIME(freqrange, hi2c->Init.ClockSpeed);
 8003146:	4e30      	ldr	r6, [pc, #192]	; (8003208 <HAL_I2C_Init+0x19c>)
  freqrange = I2C_FREQRANGE(pclk1);
 8003148:	4d30      	ldr	r5, [pc, #192]	; (800320c <HAL_I2C_Init+0x1a0>)
  hi2c->State = HAL_I2C_STATE_BUSY;
 800314a:	2324      	movs	r3, #36	; 0x24
 800314c:	f884 303d 	strb.w	r3, [r4, #61]	; 0x3d
  __HAL_I2C_DISABLE(hi2c);
 8003150:	6813      	ldr	r3, [r2, #0]
 8003152:	f023 0301 	bic.w	r3, r3, #1
 8003156:	6013      	str	r3, [r2, #0]
  pclk1 = HAL_RCC_GetPCLK1Freq();
 8003158:	f001 f85a 	bl	8004210 <HAL_RCC_GetPCLK1Freq>
  hi2c->Instance->TRISE = I2C_RISE_TIME(freqrange, hi2c->Init.ClockSpeed);
 800315c:	6863      	ldr	r3, [r4, #4]
  hi2c->Instance->CR2 = freqrange;
 800315e:	6822      	ldr	r2, [r4, #0]
  freqrange = I2C_FREQRANGE(pclk1);
 8003160:	fbb0 f5f5 	udiv	r5, r0, r5
  hi2c->Instance->TRISE = I2C_RISE_TIME(freqrange, hi2c->Init.ClockSpeed);
 8003164:	42b3      	cmp	r3, r6
 8003166:	bf84      	itt	hi
 8003168:	f44f 7196 	movhi.w	r1, #300	; 0x12c
 800316c:	4369      	mulhi	r1, r5
  hi2c->Instance->CR2 = freqrange;
 800316e:	6055      	str	r5, [r2, #4]
  hi2c->Instance->TRISE = I2C_RISE_TIME(freqrange, hi2c->Init.ClockSpeed);
 8003170:	bf91      	iteee	ls
 8003172:	1c69      	addls	r1, r5, #1
 8003174:	f44f 757a 	movhi.w	r5, #1000	; 0x3e8
 8003178:	fbb1 f1f5 	udivhi	r1, r1, r5
 800317c:	3101      	addhi	r1, #1
  hi2c->Instance->CCR = I2C_SPEED(pclk1, hi2c->Init.ClockSpeed, hi2c->Init.DutyCycle);
 800317e:	42b3      	cmp	r3, r6
  hi2c->Instance->TRISE = I2C_RISE_TIME(freqrange, hi2c->Init.ClockSpeed);
 8003180:	6211      	str	r1, [r2, #32]
  hi2c->Instance->CCR = I2C_SPEED(pclk1, hi2c->Init.ClockSpeed, hi2c->Init.DutyCycle);
 8003182:	d821      	bhi.n	80031c8 <HAL_I2C_Init+0x15c>
 8003184:	005b      	lsls	r3, r3, #1
 8003186:	fbb0 f0f3 	udiv	r0, r0, r3
 800318a:	f3c0 030b 	ubfx	r3, r0, #0, #12
 800318e:	2b03      	cmp	r3, #3
 8003190:	bf98      	it	ls
 8003192:	2004      	movls	r0, #4
  hi2c->Instance->CR1 = (hi2c->Init.GeneralCallMode | hi2c->Init.NoStretchMode);
 8003194:	6a21      	ldr	r1, [r4, #32]
 8003196:	69e3      	ldr	r3, [r4, #28]
  hi2c->Instance->CCR = I2C_SPEED(pclk1, hi2c->Init.ClockSpeed, hi2c->Init.DutyCycle);
 8003198:	61d0      	str	r0, [r2, #28]
  hi2c->Instance->CR1 = (hi2c->Init.GeneralCallMode | hi2c->Init.NoStretchMode);
 800319a:	430b      	orrs	r3, r1
 800319c:	6013      	str	r3, [r2, #0]
  hi2c->Instance->OAR1 = (hi2c->Init.AddressingMode | hi2c->Init.OwnAddress1);
 800319e:	68e1      	ldr	r1, [r4, #12]
 80031a0:	6923      	ldr	r3, [r4, #16]
 80031a2:	430b      	orrs	r3, r1
 80031a4:	6093      	str	r3, [r2, #8]
  hi2c->Instance->OAR2 = (hi2c->Init.DualAddressMode | hi2c->Init.OwnAddress2);
 80031a6:	69a1      	ldr	r1, [r4, #24]
 80031a8:	6963      	ldr	r3, [r4, #20]
 80031aa:	430b      	orrs	r3, r1
 80031ac:	60d3      	str	r3, [r2, #12]
  __HAL_I2C_ENABLE(hi2c);
 80031ae:	6813      	ldr	r3, [r2, #0]
 80031b0:	f043 0301 	orr.w	r3, r3, #1
 80031b4:	6013      	str	r3, [r2, #0]
  hi2c->ErrorCode = HAL_I2C_ERROR_NONE;
 80031b6:	2000      	movs	r0, #0
  hi2c->State = HAL_I2C_STATE_READY;
 80031b8:	2320      	movs	r3, #32
  hi2c->ErrorCode = HAL_I2C_ERROR_NONE;
 80031ba:	6420      	str	r0, [r4, #64]	; 0x40
  hi2c->State = HAL_I2C_STATE_READY;
 80031bc:	f884 303d 	strb.w	r3, [r4, #61]	; 0x3d
  hi2c->PreviousState = I2C_STATE_NONE;
 80031c0:	6320      	str	r0, [r4, #48]	; 0x30
  hi2c->Mode = HAL_I2C_MODE_NONE;
 80031c2:	f884 003e 	strb.w	r0, [r4, #62]	; 0x3e
  return HAL_OK;
 80031c6:	bd70      	pop	{r4, r5, r6, pc}
  hi2c->Instance->CCR = I2C_SPEED(pclk1, hi2c->Init.ClockSpeed, hi2c->Init.DutyCycle);
 80031c8:	68a1      	ldr	r1, [r4, #8]
 80031ca:	b949      	cbnz	r1, 80031e0 <HAL_I2C_Init+0x174>
 80031cc:	eb03 0343 	add.w	r3, r3, r3, lsl #1
 80031d0:	fbb0 f0f3 	udiv	r0, r0, r3
 80031d4:	f3c0 030b 	ubfx	r3, r0, #0, #12
 80031d8:	b163      	cbz	r3, 80031f4 <HAL_I2C_Init+0x188>
 80031da:	f440 4000 	orr.w	r0, r0, #32768	; 0x8000
 80031de:	e7d9      	b.n	8003194 <HAL_I2C_Init+0x128>
 80031e0:	2119      	movs	r1, #25
 80031e2:	434b      	muls	r3, r1
 80031e4:	fbb0 f0f3 	udiv	r0, r0, r3
 80031e8:	f3c0 030b 	ubfx	r3, r0, #0, #12
 80031ec:	b113      	cbz	r3, 80031f4 <HAL_I2C_Init+0x188>
 80031ee:	f440 4040 	orr.w	r0, r0, #49152	; 0xc000
 80031f2:	e7cf      	b.n	8003194 <HAL_I2C_Init+0x128>
 80031f4:	2001      	movs	r0, #1
 80031f6:	e7cd      	b.n	8003194 <HAL_I2C_Init+0x128>
    return HAL_ERROR;
 80031f8:	2001      	movs	r0, #1
}
 80031fa:	bd70      	pop	{r4, r5, r6, pc}
 80031fc:	40005400 	.word	0x40005400
 8003200:	08008356 	.word	0x08008356
 8003204:	00061a7f 	.word	0x00061a7f
 8003208:	000186a0 	.word	0x000186a0
 800320c:	000f4240 	.word	0x000f4240

08003210 <HAL_I2C_Mem_Write>:
{
 8003210:	e92d 47f3 	stmdb	sp!, {r0, r1, r4, r5, r6, r7, r8, r9, sl, lr}
 8003214:	9e0c      	ldr	r6, [sp, #48]	; 0x30
 8003216:	4698      	mov	r8, r3
 8003218:	4604      	mov	r4, r0
 800321a:	4689      	mov	r9, r1
 800321c:	4692      	mov	sl, r2
  tickstart = HAL_GetTick();
 800321e:	f7fe fbf7 	bl	8001a10 <HAL_GetTick>
  assert_param(IS_I2C_MEMADD_SIZE(MemAddSize));
 8003222:	f1b8 0f01 	cmp.w	r8, #1
  tickstart = HAL_GetTick();
 8003226:	4605      	mov	r5, r0
  assert_param(IS_I2C_MEMADD_SIZE(MemAddSize));
 8003228:	d007      	beq.n	800323a <HAL_I2C_Mem_Write+0x2a>
 800322a:	f1b8 0f10 	cmp.w	r8, #16
 800322e:	d004      	beq.n	800323a <HAL_I2C_Mem_Write+0x2a>
 8003230:	f640 116d 	movw	r1, #2413	; 0x96d
 8003234:	4844      	ldr	r0, [pc, #272]	; (8003348 <HAL_I2C_Mem_Write+0x138>)
 8003236:	f7fd fd6c 	bl	8000d12 <assert_failed>
  if(hi2c->State == HAL_I2C_STATE_READY)
 800323a:	f894 303d 	ldrb.w	r3, [r4, #61]	; 0x3d
 800323e:	2b20      	cmp	r3, #32
 8003240:	d003      	beq.n	800324a <HAL_I2C_Mem_Write+0x3a>
    return HAL_BUSY;
 8003242:	2002      	movs	r0, #2
}
 8003244:	b002      	add	sp, #8
 8003246:	e8bd 87f0 	ldmia.w	sp!, {r4, r5, r6, r7, r8, r9, sl, pc}
    if(I2C_WaitOnFlagUntilTimeout(hi2c, I2C_FLAG_BUSY, SET, I2C_TIMEOUT_BUSY_FLAG, tickstart) != HAL_OK)
 800324a:	9500      	str	r5, [sp, #0]
 800324c:	2319      	movs	r3, #25
 800324e:	2201      	movs	r2, #1
 8003250:	493e      	ldr	r1, [pc, #248]	; (800334c <HAL_I2C_Mem_Write+0x13c>)
 8003252:	4620      	mov	r0, r4
 8003254:	f7ff fd95 	bl	8002d82 <I2C_WaitOnFlagUntilTimeout>
 8003258:	2800      	cmp	r0, #0
 800325a:	d1f2      	bne.n	8003242 <HAL_I2C_Mem_Write+0x32>
    __HAL_LOCK(hi2c);
 800325c:	f894 303c 	ldrb.w	r3, [r4, #60]	; 0x3c
 8003260:	2b01      	cmp	r3, #1
 8003262:	d0ee      	beq.n	8003242 <HAL_I2C_Mem_Write+0x32>
 8003264:	2301      	movs	r3, #1
 8003266:	f884 303c 	strb.w	r3, [r4, #60]	; 0x3c
    if((hi2c->Instance->CR1 & I2C_CR1_PE) != I2C_CR1_PE)
 800326a:	6823      	ldr	r3, [r4, #0]
 800326c:	681a      	ldr	r2, [r3, #0]
 800326e:	07d2      	lsls	r2, r2, #31
      __HAL_I2C_ENABLE(hi2c);
 8003270:	bf5e      	ittt	pl
 8003272:	681a      	ldrpl	r2, [r3, #0]
 8003274:	f042 0201 	orrpl.w	r2, r2, #1
 8003278:	601a      	strpl	r2, [r3, #0]
    hi2c->Instance->CR1 &= ~I2C_CR1_POS;
 800327a:	681a      	ldr	r2, [r3, #0]
 800327c:	f422 6200 	bic.w	r2, r2, #2048	; 0x800
 8003280:	601a      	str	r2, [r3, #0]
    hi2c->State     = HAL_I2C_STATE_BUSY_TX;
 8003282:	2321      	movs	r3, #33	; 0x21
 8003284:	f884 303d 	strb.w	r3, [r4, #61]	; 0x3d
    hi2c->Mode      = HAL_I2C_MODE_MEM;
 8003288:	2340      	movs	r3, #64	; 0x40
 800328a:	f884 303e 	strb.w	r3, [r4, #62]	; 0x3e
    hi2c->pBuffPtr    = pData;
 800328e:	9b0a      	ldr	r3, [sp, #40]	; 0x28
 8003290:	6263      	str	r3, [r4, #36]	; 0x24
    hi2c->ErrorCode = HAL_I2C_ERROR_NONE;
 8003292:	2700      	movs	r7, #0
    hi2c->XferCount   = Size;
 8003294:	f8bd 302c 	ldrh.w	r3, [sp, #44]	; 0x2c
    hi2c->ErrorCode = HAL_I2C_ERROR_NONE;
 8003298:	6427      	str	r7, [r4, #64]	; 0x40
    hi2c->XferCount   = Size;
 800329a:	8563      	strh	r3, [r4, #42]	; 0x2a
    hi2c->XferOptions = I2C_NO_OPTION_FRAME;
 800329c:	4b2c      	ldr	r3, [pc, #176]	; (8003350 <HAL_I2C_Mem_Write+0x140>)
 800329e:	62e3      	str	r3, [r4, #44]	; 0x2c
    hi2c->XferSize    = hi2c->XferCount;
 80032a0:	8d63      	ldrh	r3, [r4, #42]	; 0x2a
 80032a2:	8523      	strh	r3, [r4, #40]	; 0x28
    if(I2C_RequestMemoryWrite(hi2c, DevAddress, MemAddress, MemAddSize, Timeout, tickstart) != HAL_OK)
 80032a4:	9501      	str	r5, [sp, #4]
 80032a6:	9600      	str	r6, [sp, #0]
 80032a8:	4643      	mov	r3, r8
 80032aa:	4652      	mov	r2, sl
 80032ac:	4649      	mov	r1, r9
 80032ae:	4620      	mov	r0, r4
 80032b0:	f7ff fdbc 	bl	8002e2c <I2C_RequestMemoryWrite>
 80032b4:	2800      	cmp	r0, #0
 80032b6:	d02a      	beq.n	800330e <HAL_I2C_Mem_Write+0xfe>
      if(hi2c->ErrorCode == HAL_I2C_ERROR_AF)
 80032b8:	6c23      	ldr	r3, [r4, #64]	; 0x40
        __HAL_UNLOCK(hi2c);
 80032ba:	f884 703c 	strb.w	r7, [r4, #60]	; 0x3c
      if(hi2c->ErrorCode == HAL_I2C_ERROR_AF)
 80032be:	2b04      	cmp	r3, #4
 80032c0:	d107      	bne.n	80032d2 <HAL_I2C_Mem_Write+0xc2>
        return HAL_ERROR;
 80032c2:	2001      	movs	r0, #1
 80032c4:	e7be      	b.n	8003244 <HAL_I2C_Mem_Write+0x34>
      if(I2C_WaitOnTXEFlagUntilTimeout(hi2c, Timeout, tickstart) != HAL_OK)
 80032c6:	f7ff fd8a 	bl	8002dde <I2C_WaitOnTXEFlagUntilTimeout>
 80032ca:	b120      	cbz	r0, 80032d6 <HAL_I2C_Mem_Write+0xc6>
        if(hi2c->ErrorCode == HAL_I2C_ERROR_AF)
 80032cc:	6c23      	ldr	r3, [r4, #64]	; 0x40
 80032ce:	2b04      	cmp	r3, #4
 80032d0:	d034      	beq.n	800333c <HAL_I2C_Mem_Write+0x12c>
          return HAL_TIMEOUT;
 80032d2:	2003      	movs	r0, #3
 80032d4:	e7b6      	b.n	8003244 <HAL_I2C_Mem_Write+0x34>
      hi2c->Instance->DR = (*hi2c->pBuffPtr++);
 80032d6:	6a61      	ldr	r1, [r4, #36]	; 0x24
 80032d8:	6827      	ldr	r7, [r4, #0]
      hi2c->XferSize--;
 80032da:	8d22      	ldrh	r2, [r4, #40]	; 0x28
      hi2c->Instance->DR = (*hi2c->pBuffPtr++);
 80032dc:	1c4b      	adds	r3, r1, #1
 80032de:	6263      	str	r3, [r4, #36]	; 0x24
 80032e0:	780b      	ldrb	r3, [r1, #0]
 80032e2:	613b      	str	r3, [r7, #16]
      hi2c->XferCount--;
 80032e4:	8d63      	ldrh	r3, [r4, #42]	; 0x2a
 80032e6:	3b01      	subs	r3, #1
 80032e8:	b29b      	uxth	r3, r3
 80032ea:	8563      	strh	r3, [r4, #42]	; 0x2a
      if((__HAL_I2C_GET_FLAG(hi2c, I2C_FLAG_BTF) == SET) && (hi2c->XferSize != 0U))
 80032ec:	697b      	ldr	r3, [r7, #20]
      hi2c->XferSize--;
 80032ee:	1e50      	subs	r0, r2, #1
 80032f0:	b280      	uxth	r0, r0
      if((__HAL_I2C_GET_FLAG(hi2c, I2C_FLAG_BTF) == SET) && (hi2c->XferSize != 0U))
 80032f2:	075b      	lsls	r3, r3, #29
      hi2c->XferSize--;
 80032f4:	8520      	strh	r0, [r4, #40]	; 0x28
      if((__HAL_I2C_GET_FLAG(hi2c, I2C_FLAG_BTF) == SET) && (hi2c->XferSize != 0U))
 80032f6:	d50a      	bpl.n	800330e <HAL_I2C_Mem_Write+0xfe>
 80032f8:	b148      	cbz	r0, 800330e <HAL_I2C_Mem_Write+0xfe>
        hi2c->Instance->DR = (*hi2c->pBuffPtr++);
 80032fa:	1c8b      	adds	r3, r1, #2
 80032fc:	6263      	str	r3, [r4, #36]	; 0x24
 80032fe:	784b      	ldrb	r3, [r1, #1]
 8003300:	613b      	str	r3, [r7, #16]
        hi2c->XferCount--;
 8003302:	8d63      	ldrh	r3, [r4, #42]	; 0x2a
 8003304:	3b01      	subs	r3, #1
        hi2c->XferSize--;
 8003306:	3a02      	subs	r2, #2
        hi2c->XferCount--;
 8003308:	b29b      	uxth	r3, r3
        hi2c->XferSize--;
 800330a:	8522      	strh	r2, [r4, #40]	; 0x28
        hi2c->XferCount--;
 800330c:	8563      	strh	r3, [r4, #42]	; 0x2a
    while(hi2c->XferSize > 0U)
 800330e:	8d23      	ldrh	r3, [r4, #40]	; 0x28
      if(I2C_WaitOnTXEFlagUntilTimeout(hi2c, Timeout, tickstart) != HAL_OK)
 8003310:	462a      	mov	r2, r5
 8003312:	4631      	mov	r1, r6
 8003314:	4620      	mov	r0, r4
    while(hi2c->XferSize > 0U)
 8003316:	2b00      	cmp	r3, #0
 8003318:	d1d5      	bne.n	80032c6 <HAL_I2C_Mem_Write+0xb6>
    if(I2C_WaitOnBTFFlagUntilTimeout(hi2c, Timeout, tickstart) != HAL_OK)
 800331a:	f7ff fe80 	bl	800301e <I2C_WaitOnBTFFlagUntilTimeout>
 800331e:	2800      	cmp	r0, #0
 8003320:	d1d4      	bne.n	80032cc <HAL_I2C_Mem_Write+0xbc>
    hi2c->Instance->CR1 |= I2C_CR1_STOP;
 8003322:	6822      	ldr	r2, [r4, #0]
 8003324:	6813      	ldr	r3, [r2, #0]
 8003326:	f443 7300 	orr.w	r3, r3, #512	; 0x200
 800332a:	6013      	str	r3, [r2, #0]
    hi2c->State = HAL_I2C_STATE_READY;
 800332c:	2320      	movs	r3, #32
 800332e:	f884 303d 	strb.w	r3, [r4, #61]	; 0x3d
    __HAL_UNLOCK(hi2c);
 8003332:	f884 003c 	strb.w	r0, [r4, #60]	; 0x3c
    hi2c->Mode = HAL_I2C_MODE_NONE;
 8003336:	f884 003e 	strb.w	r0, [r4, #62]	; 0x3e
    return HAL_OK;
 800333a:	e783      	b.n	8003244 <HAL_I2C_Mem_Write+0x34>
        hi2c->Instance->CR1 |= I2C_CR1_STOP;
 800333c:	6822      	ldr	r2, [r4, #0]
 800333e:	6813      	ldr	r3, [r2, #0]
 8003340:	f443 7300 	orr.w	r3, r3, #512	; 0x200
 8003344:	6013      	str	r3, [r2, #0]
 8003346:	e7bc      	b.n	80032c2 <HAL_I2C_Mem_Write+0xb2>
 8003348:	08008356 	.word	0x08008356
 800334c:	00100002 	.word	0x00100002
 8003350:	ffff0000 	.word	0xffff0000

08003354 <HAL_I2C_Mem_Read>:
{
 8003354:	e92d 47f0 	stmdb	sp!, {r4, r5, r6, r7, r8, r9, sl, lr}
 8003358:	b086      	sub	sp, #24
 800335a:	461d      	mov	r5, r3
 800335c:	4604      	mov	r4, r0
 800335e:	4689      	mov	r9, r1
 8003360:	4692      	mov	sl, r2
 8003362:	9f10      	ldr	r7, [sp, #64]	; 0x40
  tickstart = HAL_GetTick();
 8003364:	f7fe fb54 	bl	8001a10 <HAL_GetTick>
  assert_param(IS_I2C_MEMADD_SIZE(MemAddSize));
 8003368:	2d01      	cmp	r5, #1
  tickstart = HAL_GetTick();
 800336a:	4606      	mov	r6, r0
  assert_param(IS_I2C_MEMADD_SIZE(MemAddSize));
 800336c:	d006      	beq.n	800337c <HAL_I2C_Mem_Read+0x28>
 800336e:	2d10      	cmp	r5, #16
 8003370:	d004      	beq.n	800337c <HAL_I2C_Mem_Read+0x28>
 8003372:	f640 11f2 	movw	r1, #2546	; 0x9f2
 8003376:	4881      	ldr	r0, [pc, #516]	; (800357c <HAL_I2C_Mem_Read+0x228>)
 8003378:	f7fd fccb 	bl	8000d12 <assert_failed>
  if(hi2c->State == HAL_I2C_STATE_READY)
 800337c:	f894 303d 	ldrb.w	r3, [r4, #61]	; 0x3d
 8003380:	2b20      	cmp	r3, #32
 8003382:	d004      	beq.n	800338e <HAL_I2C_Mem_Read+0x3a>
    return HAL_BUSY;
 8003384:	2502      	movs	r5, #2
}
 8003386:	4628      	mov	r0, r5
 8003388:	b006      	add	sp, #24
 800338a:	e8bd 87f0 	ldmia.w	sp!, {r4, r5, r6, r7, r8, r9, sl, pc}
    if(I2C_WaitOnFlagUntilTimeout(hi2c, I2C_FLAG_BUSY, SET, I2C_TIMEOUT_BUSY_FLAG, tickstart) != HAL_OK)
 800338e:	9600      	str	r6, [sp, #0]
 8003390:	2319      	movs	r3, #25
 8003392:	2201      	movs	r2, #1
 8003394:	497a      	ldr	r1, [pc, #488]	; (8003580 <HAL_I2C_Mem_Read+0x22c>)
 8003396:	4620      	mov	r0, r4
 8003398:	f7ff fcf3 	bl	8002d82 <I2C_WaitOnFlagUntilTimeout>
 800339c:	2800      	cmp	r0, #0
 800339e:	d1f1      	bne.n	8003384 <HAL_I2C_Mem_Read+0x30>
    __HAL_LOCK(hi2c);
 80033a0:	f894 303c 	ldrb.w	r3, [r4, #60]	; 0x3c
 80033a4:	2b01      	cmp	r3, #1
 80033a6:	d0ed      	beq.n	8003384 <HAL_I2C_Mem_Read+0x30>
 80033a8:	2301      	movs	r3, #1
 80033aa:	f884 303c 	strb.w	r3, [r4, #60]	; 0x3c
    if((hi2c->Instance->CR1 & I2C_CR1_PE) != I2C_CR1_PE)
 80033ae:	6823      	ldr	r3, [r4, #0]
 80033b0:	681a      	ldr	r2, [r3, #0]
 80033b2:	07d2      	lsls	r2, r2, #31
      __HAL_I2C_ENABLE(hi2c);
 80033b4:	bf5e      	ittt	pl
 80033b6:	681a      	ldrpl	r2, [r3, #0]
 80033b8:	f042 0201 	orrpl.w	r2, r2, #1
 80033bc:	601a      	strpl	r2, [r3, #0]
    hi2c->Instance->CR1 &= ~I2C_CR1_POS;
 80033be:	681a      	ldr	r2, [r3, #0]
 80033c0:	f422 6200 	bic.w	r2, r2, #2048	; 0x800
 80033c4:	601a      	str	r2, [r3, #0]
    hi2c->State     = HAL_I2C_STATE_BUSY_RX;
 80033c6:	2322      	movs	r3, #34	; 0x22
 80033c8:	f884 303d 	strb.w	r3, [r4, #61]	; 0x3d
    hi2c->Mode      = HAL_I2C_MODE_MEM;
 80033cc:	2340      	movs	r3, #64	; 0x40
 80033ce:	f884 303e 	strb.w	r3, [r4, #62]	; 0x3e
    hi2c->pBuffPtr    = pData;
 80033d2:	9b0e      	ldr	r3, [sp, #56]	; 0x38
 80033d4:	6263      	str	r3, [r4, #36]	; 0x24
    hi2c->ErrorCode = HAL_I2C_ERROR_NONE;
 80033d6:	f04f 0800 	mov.w	r8, #0
    hi2c->XferCount   = Size;
 80033da:	f8bd 303c 	ldrh.w	r3, [sp, #60]	; 0x3c
    hi2c->ErrorCode = HAL_I2C_ERROR_NONE;
 80033de:	f8c4 8040 	str.w	r8, [r4, #64]	; 0x40
    hi2c->XferCount   = Size;
 80033e2:	8563      	strh	r3, [r4, #42]	; 0x2a
    hi2c->XferOptions = I2C_NO_OPTION_FRAME;
 80033e4:	4b67      	ldr	r3, [pc, #412]	; (8003584 <HAL_I2C_Mem_Read+0x230>)
 80033e6:	62e3      	str	r3, [r4, #44]	; 0x2c
    hi2c->XferSize    = hi2c->XferCount;
 80033e8:	8d63      	ldrh	r3, [r4, #42]	; 0x2a
 80033ea:	8523      	strh	r3, [r4, #40]	; 0x28
    if(I2C_RequestMemoryRead(hi2c, DevAddress, MemAddress, MemAddSize, Timeout, tickstart) != HAL_OK)
 80033ec:	9601      	str	r6, [sp, #4]
 80033ee:	462b      	mov	r3, r5
 80033f0:	9700      	str	r7, [sp, #0]
 80033f2:	4652      	mov	r2, sl
 80033f4:	4649      	mov	r1, r9
 80033f6:	4620      	mov	r0, r4
 80033f8:	f7ff fd6a 	bl	8002ed0 <I2C_RequestMemoryRead>
 80033fc:	4605      	mov	r5, r0
 80033fe:	b130      	cbz	r0, 800340e <HAL_I2C_Mem_Read+0xba>
      if(hi2c->ErrorCode == HAL_I2C_ERROR_AF)
 8003400:	6c23      	ldr	r3, [r4, #64]	; 0x40
        __HAL_UNLOCK(hi2c);
 8003402:	f884 803c 	strb.w	r8, [r4, #60]	; 0x3c
      if(hi2c->ErrorCode == HAL_I2C_ERROR_AF)
 8003406:	2b04      	cmp	r3, #4
 8003408:	d13a      	bne.n	8003480 <HAL_I2C_Mem_Read+0x12c>
              return HAL_ERROR;
 800340a:	2501      	movs	r5, #1
 800340c:	e7bb      	b.n	8003386 <HAL_I2C_Mem_Read+0x32>
    if(hi2c->XferSize == 0U)
 800340e:	8d22      	ldrh	r2, [r4, #40]	; 0x28
 8003410:	6823      	ldr	r3, [r4, #0]
 8003412:	b992      	cbnz	r2, 800343a <HAL_I2C_Mem_Read+0xe6>
      __HAL_I2C_CLEAR_ADDRFLAG(hi2c);
 8003414:	9002      	str	r0, [sp, #8]
 8003416:	695a      	ldr	r2, [r3, #20]
 8003418:	9202      	str	r2, [sp, #8]
 800341a:	699a      	ldr	r2, [r3, #24]
 800341c:	9202      	str	r2, [sp, #8]
 800341e:	9a02      	ldr	r2, [sp, #8]
      hi2c->Instance->CR1 |= I2C_CR1_STOP;
 8003420:	681a      	ldr	r2, [r3, #0]
 8003422:	f442 7200 	orr.w	r2, r2, #512	; 0x200
 8003426:	601a      	str	r2, [r3, #0]
    hi2c->State = HAL_I2C_STATE_READY;
 8003428:	2320      	movs	r3, #32
 800342a:	f884 303d 	strb.w	r3, [r4, #61]	; 0x3d
    hi2c->Mode = HAL_I2C_MODE_NONE;
 800342e:	2300      	movs	r3, #0
 8003430:	f884 303e 	strb.w	r3, [r4, #62]	; 0x3e
    __HAL_UNLOCK(hi2c);
 8003434:	f884 303c 	strb.w	r3, [r4, #60]	; 0x3c
    return HAL_OK;
 8003438:	e7a5      	b.n	8003386 <HAL_I2C_Mem_Read+0x32>
    else if(hi2c->XferSize == 1U)
 800343a:	2a01      	cmp	r2, #1
 800343c:	d122      	bne.n	8003484 <HAL_I2C_Mem_Read+0x130>
      hi2c->Instance->CR1 &= ~I2C_CR1_ACK;
 800343e:	681a      	ldr	r2, [r3, #0]
 8003440:	f422 6280 	bic.w	r2, r2, #1024	; 0x400
 8003444:	601a      	str	r2, [r3, #0]
      __HAL_I2C_CLEAR_ADDRFLAG(hi2c);
 8003446:	9003      	str	r0, [sp, #12]
 8003448:	695a      	ldr	r2, [r3, #20]
 800344a:	9203      	str	r2, [sp, #12]
 800344c:	699a      	ldr	r2, [r3, #24]
 800344e:	9203      	str	r2, [sp, #12]
 8003450:	9a03      	ldr	r2, [sp, #12]
      hi2c->Instance->CR1 |= I2C_CR1_STOP;
 8003452:	681a      	ldr	r2, [r3, #0]
 8003454:	f442 7200 	orr.w	r2, r2, #512	; 0x200
 8003458:	601a      	str	r2, [r3, #0]
          if(I2C_WaitOnFlagUntilTimeout(hi2c, I2C_FLAG_BTF, RESET, Timeout, tickstart) != HAL_OK)
 800345a:	f8df 812c 	ldr.w	r8, [pc, #300]	; 8003588 <HAL_I2C_Mem_Read+0x234>
    while(hi2c->XferSize > 0U)
 800345e:	8d23      	ldrh	r3, [r4, #40]	; 0x28
 8003460:	2b00      	cmp	r3, #0
 8003462:	d0e1      	beq.n	8003428 <HAL_I2C_Mem_Read+0xd4>
      if(hi2c->XferSize <= 3U)
 8003464:	2b03      	cmp	r3, #3
 8003466:	d86b      	bhi.n	8003540 <HAL_I2C_Mem_Read+0x1ec>
        if(hi2c->XferSize== 1U)
 8003468:	2b01      	cmp	r3, #1
 800346a:	d123      	bne.n	80034b4 <HAL_I2C_Mem_Read+0x160>
          if(I2C_WaitOnRXNEFlagUntilTimeout(hi2c, Timeout, tickstart) != HAL_OK)      
 800346c:	4632      	mov	r2, r6
 800346e:	4639      	mov	r1, r7
 8003470:	4620      	mov	r0, r4
 8003472:	f7ff fda7 	bl	8002fc4 <I2C_WaitOnRXNEFlagUntilTimeout>
 8003476:	2800      	cmp	r0, #0
 8003478:	d039      	beq.n	80034ee <HAL_I2C_Mem_Read+0x19a>
            if(hi2c->ErrorCode == HAL_I2C_ERROR_TIMEOUT)
 800347a:	6c23      	ldr	r3, [r4, #64]	; 0x40
 800347c:	2b20      	cmp	r3, #32
 800347e:	d1c4      	bne.n	800340a <HAL_I2C_Mem_Read+0xb6>
              return HAL_TIMEOUT;
 8003480:	2503      	movs	r5, #3
 8003482:	e780      	b.n	8003386 <HAL_I2C_Mem_Read+0x32>
    else if(hi2c->XferSize == 2U)
 8003484:	2a02      	cmp	r2, #2
 8003486:	d10e      	bne.n	80034a6 <HAL_I2C_Mem_Read+0x152>
      hi2c->Instance->CR1 &= ~I2C_CR1_ACK;
 8003488:	681a      	ldr	r2, [r3, #0]
 800348a:	f422 6280 	bic.w	r2, r2, #1024	; 0x400
 800348e:	601a      	str	r2, [r3, #0]
      hi2c->Instance->CR1 |= I2C_CR1_POS;
 8003490:	681a      	ldr	r2, [r3, #0]
 8003492:	f442 6200 	orr.w	r2, r2, #2048	; 0x800
 8003496:	601a      	str	r2, [r3, #0]
      __HAL_I2C_CLEAR_ADDRFLAG(hi2c);
 8003498:	9004      	str	r0, [sp, #16]
 800349a:	695a      	ldr	r2, [r3, #20]
 800349c:	9204      	str	r2, [sp, #16]
 800349e:	699b      	ldr	r3, [r3, #24]
 80034a0:	9304      	str	r3, [sp, #16]
 80034a2:	9b04      	ldr	r3, [sp, #16]
 80034a4:	e7d9      	b.n	800345a <HAL_I2C_Mem_Read+0x106>
      __HAL_I2C_CLEAR_ADDRFLAG(hi2c);
 80034a6:	9005      	str	r0, [sp, #20]
 80034a8:	695a      	ldr	r2, [r3, #20]
 80034aa:	9205      	str	r2, [sp, #20]
 80034ac:	699b      	ldr	r3, [r3, #24]
 80034ae:	9305      	str	r3, [sp, #20]
 80034b0:	9b05      	ldr	r3, [sp, #20]
 80034b2:	e7d2      	b.n	800345a <HAL_I2C_Mem_Read+0x106>
        else if(hi2c->XferSize == 2U)
 80034b4:	2b02      	cmp	r3, #2
          if(I2C_WaitOnFlagUntilTimeout(hi2c, I2C_FLAG_BTF, RESET, Timeout, tickstart) != HAL_OK)
 80034b6:	9600      	str	r6, [sp, #0]
 80034b8:	463b      	mov	r3, r7
 80034ba:	f04f 0200 	mov.w	r2, #0
 80034be:	4641      	mov	r1, r8
 80034c0:	4620      	mov	r0, r4
        else if(hi2c->XferSize == 2U)
 80034c2:	d122      	bne.n	800350a <HAL_I2C_Mem_Read+0x1b6>
          if(I2C_WaitOnFlagUntilTimeout(hi2c, I2C_FLAG_BTF, RESET, Timeout, tickstart) != HAL_OK)
 80034c4:	f7ff fc5d 	bl	8002d82 <I2C_WaitOnFlagUntilTimeout>
 80034c8:	2800      	cmp	r0, #0
 80034ca:	d1d9      	bne.n	8003480 <HAL_I2C_Mem_Read+0x12c>
          hi2c->Instance->CR1 |= I2C_CR1_STOP;
 80034cc:	6823      	ldr	r3, [r4, #0]
 80034ce:	681a      	ldr	r2, [r3, #0]
 80034d0:	f442 7200 	orr.w	r2, r2, #512	; 0x200
 80034d4:	601a      	str	r2, [r3, #0]
          (*hi2c->pBuffPtr++) = hi2c->Instance->DR;
 80034d6:	6a62      	ldr	r2, [r4, #36]	; 0x24
 80034d8:	691b      	ldr	r3, [r3, #16]
 80034da:	1c51      	adds	r1, r2, #1
 80034dc:	6261      	str	r1, [r4, #36]	; 0x24
 80034de:	7013      	strb	r3, [r2, #0]
          hi2c->XferSize--;
 80034e0:	8d23      	ldrh	r3, [r4, #40]	; 0x28
 80034e2:	3b01      	subs	r3, #1
 80034e4:	8523      	strh	r3, [r4, #40]	; 0x28
          hi2c->XferCount--;
 80034e6:	8d63      	ldrh	r3, [r4, #42]	; 0x2a
 80034e8:	3b01      	subs	r3, #1
 80034ea:	b29b      	uxth	r3, r3
 80034ec:	8563      	strh	r3, [r4, #42]	; 0x2a
          (*hi2c->pBuffPtr++) = hi2c->Instance->DR;
 80034ee:	6a63      	ldr	r3, [r4, #36]	; 0x24
 80034f0:	1c5a      	adds	r2, r3, #1
 80034f2:	6262      	str	r2, [r4, #36]	; 0x24
 80034f4:	6822      	ldr	r2, [r4, #0]
          (*hi2c->pBuffPtr++) = hi2c->Instance->DR;
 80034f6:	6912      	ldr	r2, [r2, #16]
 80034f8:	701a      	strb	r2, [r3, #0]
          hi2c->XferSize--;
 80034fa:	8d23      	ldrh	r3, [r4, #40]	; 0x28
 80034fc:	3b01      	subs	r3, #1
 80034fe:	8523      	strh	r3, [r4, #40]	; 0x28
          hi2c->XferCount--;
 8003500:	8d63      	ldrh	r3, [r4, #42]	; 0x2a
 8003502:	3b01      	subs	r3, #1
 8003504:	b29b      	uxth	r3, r3
 8003506:	8563      	strh	r3, [r4, #42]	; 0x2a
 8003508:	e7a9      	b.n	800345e <HAL_I2C_Mem_Read+0x10a>
          if(I2C_WaitOnFlagUntilTimeout(hi2c, I2C_FLAG_BTF, RESET, Timeout, tickstart) != HAL_OK)
 800350a:	f7ff fc3a 	bl	8002d82 <I2C_WaitOnFlagUntilTimeout>
 800350e:	4602      	mov	r2, r0
 8003510:	2800      	cmp	r0, #0
 8003512:	d1b5      	bne.n	8003480 <HAL_I2C_Mem_Read+0x12c>
          hi2c->Instance->CR1 &= ~I2C_CR1_ACK;
 8003514:	6823      	ldr	r3, [r4, #0]
 8003516:	6819      	ldr	r1, [r3, #0]
 8003518:	f421 6180 	bic.w	r1, r1, #1024	; 0x400
 800351c:	6019      	str	r1, [r3, #0]
          (*hi2c->pBuffPtr++) = hi2c->Instance->DR;
 800351e:	6a61      	ldr	r1, [r4, #36]	; 0x24
 8003520:	691b      	ldr	r3, [r3, #16]
 8003522:	1c48      	adds	r0, r1, #1
 8003524:	6260      	str	r0, [r4, #36]	; 0x24
 8003526:	700b      	strb	r3, [r1, #0]
          hi2c->XferSize--;
 8003528:	8d23      	ldrh	r3, [r4, #40]	; 0x28
          if(I2C_WaitOnFlagUntilTimeout(hi2c, I2C_FLAG_BTF, RESET, Timeout, tickstart) != HAL_OK)
 800352a:	9600      	str	r6, [sp, #0]
          hi2c->XferSize--;
 800352c:	3b01      	subs	r3, #1
 800352e:	8523      	strh	r3, [r4, #40]	; 0x28
          hi2c->XferCount--;
 8003530:	8d63      	ldrh	r3, [r4, #42]	; 0x2a
 8003532:	3b01      	subs	r3, #1
 8003534:	b29b      	uxth	r3, r3
 8003536:	8563      	strh	r3, [r4, #42]	; 0x2a
          if(I2C_WaitOnFlagUntilTimeout(hi2c, I2C_FLAG_BTF, RESET, Timeout, tickstart) != HAL_OK)
 8003538:	4641      	mov	r1, r8
 800353a:	463b      	mov	r3, r7
 800353c:	4620      	mov	r0, r4
 800353e:	e7c1      	b.n	80034c4 <HAL_I2C_Mem_Read+0x170>
        if(I2C_WaitOnRXNEFlagUntilTimeout(hi2c, Timeout, tickstart) != HAL_OK)
 8003540:	4632      	mov	r2, r6
 8003542:	4639      	mov	r1, r7
 8003544:	4620      	mov	r0, r4
 8003546:	f7ff fd3d 	bl	8002fc4 <I2C_WaitOnRXNEFlagUntilTimeout>
 800354a:	2800      	cmp	r0, #0
 800354c:	d195      	bne.n	800347a <HAL_I2C_Mem_Read+0x126>
        (*hi2c->pBuffPtr++) = hi2c->Instance->DR;
 800354e:	6a63      	ldr	r3, [r4, #36]	; 0x24
 8003550:	1c5a      	adds	r2, r3, #1
 8003552:	6262      	str	r2, [r4, #36]	; 0x24
 8003554:	6822      	ldr	r2, [r4, #0]
 8003556:	6912      	ldr	r2, [r2, #16]
 8003558:	701a      	strb	r2, [r3, #0]
        hi2c->XferSize--;
 800355a:	8d23      	ldrh	r3, [r4, #40]	; 0x28
        if(__HAL_I2C_GET_FLAG(hi2c, I2C_FLAG_BTF) == SET)
 800355c:	6822      	ldr	r2, [r4, #0]
        hi2c->XferSize--;
 800355e:	3b01      	subs	r3, #1
 8003560:	8523      	strh	r3, [r4, #40]	; 0x28
        hi2c->XferCount--;
 8003562:	8d63      	ldrh	r3, [r4, #42]	; 0x2a
 8003564:	3b01      	subs	r3, #1
 8003566:	b29b      	uxth	r3, r3
 8003568:	8563      	strh	r3, [r4, #42]	; 0x2a
        if(__HAL_I2C_GET_FLAG(hi2c, I2C_FLAG_BTF) == SET)
 800356a:	6953      	ldr	r3, [r2, #20]
 800356c:	075b      	lsls	r3, r3, #29
 800356e:	f57f af76 	bpl.w	800345e <HAL_I2C_Mem_Read+0x10a>
          (*hi2c->pBuffPtr++) = hi2c->Instance->DR;
 8003572:	6a63      	ldr	r3, [r4, #36]	; 0x24
 8003574:	1c59      	adds	r1, r3, #1
 8003576:	6261      	str	r1, [r4, #36]	; 0x24
 8003578:	e7bd      	b.n	80034f6 <HAL_I2C_Mem_Read+0x1a2>
 800357a:	bf00      	nop
 800357c:	08008356 	.word	0x08008356
 8003580:	00100002 	.word	0x00100002
 8003584:	ffff0000 	.word	0xffff0000
 8003588:	00010004 	.word	0x00010004

0800358c <LTDC_SetConfig>:
  * @param  LayerIdx  LTDC Layer index.
  *                   This parameter can be one of the following values: LTDC_LAYER_1 (0) or LTDC_LAYER_2 (1)
  * @retval None
  */
static void LTDC_SetConfig(LTDC_HandleTypeDef *hltdc, LTDC_LayerCfgTypeDef *pLayerCfg, uint32_t LayerIdx)
{
 800358c:	e92d 43f0 	stmdb	sp!, {r4, r5, r6, r7, r8, r9, lr}
  uint32_t tmp1 = 0U;
  uint32_t tmp2 = 0U;

  /* Configure the horizontal start and stop position */
  tmp = ((pLayerCfg->WindowX1 + ((hltdc->Instance->BPCR & LTDC_BPCR_AHBP) >> 16U)) << 16U);
  LTDC_LAYER(hltdc, LayerIdx)->WHPCR &= ~(LTDC_LxWHPCR_WHSTPOS | LTDC_LxWHPCR_WHSPPOS);
 8003590:	01d2      	lsls	r2, r2, #7
  tmp = ((pLayerCfg->WindowX1 + ((hltdc->Instance->BPCR & LTDC_BPCR_AHBP) >> 16U)) << 16U);
 8003592:	6804      	ldr	r4, [r0, #0]
 8003594:	684f      	ldr	r7, [r1, #4]
 8003596:	68e5      	ldr	r5, [r4, #12]
  LTDC_LAYER(hltdc, LayerIdx)->WHPCR = ((pLayerCfg->WindowX0 + ((hltdc->Instance->BPCR & LTDC_BPCR_AHBP) >> 16U) + 1U) | tmp);
 8003598:	f8d1 e000 	ldr.w	lr, [r1]
  LTDC_LAYER(hltdc, LayerIdx)->PFCR = (pLayerCfg->PixelFormat);

  /* Configure the default color values */
  tmp = ((uint32_t)(pLayerCfg->Backcolor.Green) << 8U);
  tmp1 = ((uint32_t)(pLayerCfg->Backcolor.Red) << 16U);
  tmp2 = (pLayerCfg->Alpha0 << 24U);  
 800359c:	f8d1 9018 	ldr.w	r9, [r1, #24]
  LTDC_LAYER(hltdc, LayerIdx)->WHPCR &= ~(LTDC_LxWHPCR_WHSTPOS | LTDC_LxWHPCR_WHSPPOS);
 80035a0:	3284      	adds	r2, #132	; 0x84
 80035a2:	18a3      	adds	r3, r4, r2
  LTDC_LAYER(hltdc, LayerIdx)->WHPCR = ((pLayerCfg->WindowX0 + ((hltdc->Instance->BPCR & LTDC_BPCR_AHBP) >> 16U) + 1U) | tmp);
 80035a4:	f10e 0601 	add.w	r6, lr, #1
  LTDC_LAYER(hltdc, LayerIdx)->WHPCR &= ~(LTDC_LxWHPCR_WHSTPOS | LTDC_LxWHPCR_WHSPPOS);
 80035a8:	6858      	ldr	r0, [r3, #4]
 80035aa:	f400 4070 	and.w	r0, r0, #61440	; 0xf000
 80035ae:	6058      	str	r0, [r3, #4]
  LTDC_LAYER(hltdc, LayerIdx)->WHPCR = ((pLayerCfg->WindowX0 + ((hltdc->Instance->BPCR & LTDC_BPCR_AHBP) >> 16U) + 1U) | tmp);
 80035b0:	68e0      	ldr	r0, [r4, #12]
  tmp = ((pLayerCfg->WindowX1 + ((hltdc->Instance->BPCR & LTDC_BPCR_AHBP) >> 16U)) << 16U);
 80035b2:	f3c5 450b 	ubfx	r5, r5, #16, #12
  LTDC_LAYER(hltdc, LayerIdx)->WHPCR = ((pLayerCfg->WindowX0 + ((hltdc->Instance->BPCR & LTDC_BPCR_AHBP) >> 16U) + 1U) | tmp);
 80035b6:	f3c0 400b 	ubfx	r0, r0, #16, #12
  tmp = ((pLayerCfg->WindowX1 + ((hltdc->Instance->BPCR & LTDC_BPCR_AHBP) >> 16U)) << 16U);
 80035ba:	443d      	add	r5, r7
  LTDC_LAYER(hltdc, LayerIdx)->WHPCR = ((pLayerCfg->WindowX0 + ((hltdc->Instance->BPCR & LTDC_BPCR_AHBP) >> 16U) + 1U) | tmp);
 80035bc:	4430      	add	r0, r6
 80035be:	ea40 4005 	orr.w	r0, r0, r5, lsl #16
 80035c2:	6058      	str	r0, [r3, #4]
  tmp = ((pLayerCfg->WindowY1 + (hltdc->Instance->BPCR & LTDC_BPCR_AVBP)) << 16U);
 80035c4:	68e0      	ldr	r0, [r4, #12]
 80035c6:	68cd      	ldr	r5, [r1, #12]
 80035c8:	f3c0 000a 	ubfx	r0, r0, #0, #11
 80035cc:	4405      	add	r5, r0
  LTDC_LAYER(hltdc, LayerIdx)->WVPCR &= ~(LTDC_LxWVPCR_WVSTPOS | LTDC_LxWVPCR_WVSPPOS);
 80035ce:	6898      	ldr	r0, [r3, #8]
 80035d0:	f400 4070 	and.w	r0, r0, #61440	; 0xf000
 80035d4:	6098      	str	r0, [r3, #8]
  LTDC_LAYER(hltdc, LayerIdx)->WVPCR  = ((pLayerCfg->WindowY0 + (hltdc->Instance->BPCR & LTDC_BPCR_AVBP) + 1U) | tmp);  
 80035d6:	68e6      	ldr	r6, [r4, #12]
 80035d8:	6888      	ldr	r0, [r1, #8]
 80035da:	f3c6 060a 	ubfx	r6, r6, #0, #11
 80035de:	3001      	adds	r0, #1
 80035e0:	4430      	add	r0, r6
 80035e2:	ea40 4005 	orr.w	r0, r0, r5, lsl #16
 80035e6:	6098      	str	r0, [r3, #8]
  LTDC_LAYER(hltdc, LayerIdx)->PFCR &= ~(LTDC_LxPFCR_PF);
 80035e8:	6918      	ldr	r0, [r3, #16]
  LTDC_LAYER(hltdc, LayerIdx)->PFCR = (pLayerCfg->PixelFormat);
 80035ea:	690e      	ldr	r6, [r1, #16]
  LTDC_LAYER(hltdc, LayerIdx)->PFCR &= ~(LTDC_LxPFCR_PF);
 80035ec:	f020 0007 	bic.w	r0, r0, #7
 80035f0:	6118      	str	r0, [r3, #16]
  LTDC_LAYER(hltdc, LayerIdx)->DCCR &= ~(LTDC_LxDCCR_DCBLUE | LTDC_LxDCCR_DCGREEN | LTDC_LxDCCR_DCRED | LTDC_LxDCCR_DCALPHA);
 80035f2:	f04f 0c00 	mov.w	ip, #0
  LTDC_LAYER(hltdc, LayerIdx)->PFCR = (pLayerCfg->PixelFormat);
 80035f6:	611e      	str	r6, [r3, #16]
  LTDC_LAYER(hltdc, LayerIdx)->DCCR &= ~(LTDC_LxDCCR_DCBLUE | LTDC_LxDCCR_DCGREEN | LTDC_LxDCCR_DCRED | LTDC_LxDCCR_DCALPHA);
 80035f8:	699d      	ldr	r5, [r3, #24]
  tmp1 = ((uint32_t)(pLayerCfg->Backcolor.Red) << 16U);
 80035fa:	f891 0032 	ldrb.w	r0, [r1, #50]	; 0x32
  tmp = ((uint32_t)(pLayerCfg->Backcolor.Green) << 8U);
 80035fe:	f891 8031 	ldrb.w	r8, [r1, #49]	; 0x31
  LTDC_LAYER(hltdc, LayerIdx)->DCCR &= ~(LTDC_LxDCCR_DCBLUE | LTDC_LxDCCR_DCGREEN | LTDC_LxDCCR_DCRED | LTDC_LxDCCR_DCALPHA);
 8003602:	f8c3 c018 	str.w	ip, [r3, #24]
  LTDC_LAYER(hltdc, LayerIdx)->DCCR = (pLayerCfg->Backcolor.Blue | tmp | tmp1 | tmp2); 
 8003606:	f891 5030 	ldrb.w	r5, [r1, #48]	; 0x30
 800360a:	ea45 6509 	orr.w	r5, r5, r9, lsl #24
 800360e:	ea45 2508 	orr.w	r5, r5, r8, lsl #8
 8003612:	ea45 4500 	orr.w	r5, r5, r0, lsl #16
 8003616:	619d      	str	r5, [r3, #24]

  /* Specifies the constant alpha value */
  LTDC_LAYER(hltdc, LayerIdx)->CACR &= ~(LTDC_LxCACR_CONSTA);
 8003618:	6958      	ldr	r0, [r3, #20]
 800361a:	f020 00ff 	bic.w	r0, r0, #255	; 0xff
 800361e:	6158      	str	r0, [r3, #20]
  LTDC_LAYER(hltdc, LayerIdx)->CACR = (pLayerCfg->Alpha);
 8003620:	6948      	ldr	r0, [r1, #20]
 8003622:	6158      	str	r0, [r3, #20]

  /* Specifies the blending factors */
  LTDC_LAYER(hltdc, LayerIdx)->BFCR &= ~(LTDC_LxBFCR_BF2 | LTDC_LxBFCR_BF1);
 8003624:	69d8      	ldr	r0, [r3, #28]
 8003626:	f420 60e0 	bic.w	r0, r0, #1792	; 0x700
 800362a:	f020 0007 	bic.w	r0, r0, #7
 800362e:	61d8      	str	r0, [r3, #28]
  LTDC_LAYER(hltdc, LayerIdx)->BFCR = (pLayerCfg->BlendingFactor1 | pLayerCfg->BlendingFactor2);
 8003630:	6a08      	ldr	r0, [r1, #32]
 8003632:	69cd      	ldr	r5, [r1, #28]
 8003634:	4305      	orrs	r5, r0
 8003636:	61dd      	str	r5, [r3, #28]

  /* Configure the color frame buffer start address */
  LTDC_LAYER(hltdc, LayerIdx)->CFBAR &= ~(LTDC_LxCFBAR_CFBADD);
 8003638:	6a98      	ldr	r0, [r3, #40]	; 0x28
  LTDC_LAYER(hltdc, LayerIdx)->CFBAR = (pLayerCfg->FBStartAdress);
 800363a:	6a48      	ldr	r0, [r1, #36]	; 0x24
  LTDC_LAYER(hltdc, LayerIdx)->CFBAR &= ~(LTDC_LxCFBAR_CFBADD);
 800363c:	f8c3 c028 	str.w	ip, [r3, #40]	; 0x28
  LTDC_LAYER(hltdc, LayerIdx)->CFBAR = (pLayerCfg->FBStartAdress);
 8003640:	6298      	str	r0, [r3, #40]	; 0x28

  if(pLayerCfg->PixelFormat == LTDC_PIXEL_FORMAT_ARGB8888)
 8003642:	b31e      	cbz	r6, 800368c <LTDC_SetConfig+0x100>
  {
    tmp = 4U;
  }
  else if (pLayerCfg->PixelFormat == LTDC_PIXEL_FORMAT_RGB888)
 8003644:	2e01      	cmp	r6, #1
 8003646:	d023      	beq.n	8003690 <LTDC_SetConfig+0x104>
  {
    tmp = 3U;
  }
  else if((pLayerCfg->PixelFormat == LTDC_PIXEL_FORMAT_ARGB4444) || \
 8003648:	1eb0      	subs	r0, r6, #2
 800364a:	2802      	cmp	r0, #2
 800364c:	d922      	bls.n	8003694 <LTDC_SetConfig+0x108>
    (pLayerCfg->PixelFormat == LTDC_PIXEL_FORMAT_RGB565)   || \
      (pLayerCfg->PixelFormat == LTDC_PIXEL_FORMAT_ARGB1555) || \
 800364e:	2e07      	cmp	r6, #7
  {
    tmp = 2U;
  }
  else
  {
    tmp = 1U;
 8003650:	bf0c      	ite	eq
 8003652:	2002      	moveq	r0, #2
 8003654:	2001      	movne	r0, #1
  }

  /* Configure the color frame buffer pitch in byte */
  LTDC_LAYER(hltdc, LayerIdx)->CFBLR  &= ~(LTDC_LxCFBLR_CFBLL | LTDC_LxCFBLR_CFBP);
 8003656:	6add      	ldr	r5, [r3, #44]	; 0x2c
 8003658:	f005 25e0 	and.w	r5, r5, #3758153728	; 0xe000e000
 800365c:	62dd      	str	r5, [r3, #44]	; 0x2c
  LTDC_LAYER(hltdc, LayerIdx)->CFBLR  = (((pLayerCfg->ImageWidth * tmp) << 16U) | (((pLayerCfg->WindowX1 - pLayerCfg->WindowX0) * tmp)  + 3U));
 800365e:	6a8d      	ldr	r5, [r1, #40]	; 0x28

  /* Configure the frame buffer line number */
  LTDC_LAYER(hltdc, LayerIdx)->CFBLNR  &= ~(LTDC_LxCFBLNR_CFBLNBR);
  LTDC_LAYER(hltdc, LayerIdx)->CFBLNR  = (pLayerCfg->ImageHeight);
 8003660:	6ac9      	ldr	r1, [r1, #44]	; 0x2c
  LTDC_LAYER(hltdc, LayerIdx)->CFBLR  = (((pLayerCfg->ImageWidth * tmp) << 16U) | (((pLayerCfg->WindowX1 - pLayerCfg->WindowX0) * tmp)  + 3U));
 8003662:	eba7 070e 	sub.w	r7, r7, lr
 8003666:	4345      	muls	r5, r0
 8003668:	4378      	muls	r0, r7
 800366a:	3003      	adds	r0, #3
 800366c:	ea40 4005 	orr.w	r0, r0, r5, lsl #16
 8003670:	62d8      	str	r0, [r3, #44]	; 0x2c
  LTDC_LAYER(hltdc, LayerIdx)->CFBLNR  &= ~(LTDC_LxCFBLNR_CFBLNBR);
 8003672:	6b18      	ldr	r0, [r3, #48]	; 0x30
 8003674:	f420 60ff 	bic.w	r0, r0, #2040	; 0x7f8
 8003678:	f020 0007 	bic.w	r0, r0, #7
 800367c:	6318      	str	r0, [r3, #48]	; 0x30
  LTDC_LAYER(hltdc, LayerIdx)->CFBLNR  = (pLayerCfg->ImageHeight);
 800367e:	6319      	str	r1, [r3, #48]	; 0x30

  /* Enable LTDC_Layer by setting LEN bit */  
  LTDC_LAYER(hltdc, LayerIdx)->CR |= (uint32_t)LTDC_LxCR_LEN;
 8003680:	58a3      	ldr	r3, [r4, r2]
 8003682:	f043 0301 	orr.w	r3, r3, #1
 8003686:	50a3      	str	r3, [r4, r2]
 8003688:	e8bd 83f0 	ldmia.w	sp!, {r4, r5, r6, r7, r8, r9, pc}
    tmp = 4U;
 800368c:	2004      	movs	r0, #4
 800368e:	e7e2      	b.n	8003656 <LTDC_SetConfig+0xca>
    tmp = 3U;
 8003690:	2003      	movs	r0, #3
 8003692:	e7e0      	b.n	8003656 <LTDC_SetConfig+0xca>
    tmp = 2U;
 8003694:	2002      	movs	r0, #2
 8003696:	e7de      	b.n	8003656 <LTDC_SetConfig+0xca>

08003698 <HAL_LTDC_Init>:
{
 8003698:	b538      	push	{r3, r4, r5, lr}
  if(hltdc == NULL)
 800369a:	4604      	mov	r4, r0
 800369c:	2800      	cmp	r0, #0
 800369e:	f000 80cd 	beq.w	800383c <HAL_LTDC_Init+0x1a4>
  assert_param(IS_LTDC_ALL_INSTANCE(hltdc->Instance));
 80036a2:	6802      	ldr	r2, [r0, #0]
 80036a4:	4b66      	ldr	r3, [pc, #408]	; (8003840 <HAL_LTDC_Init+0x1a8>)
 80036a6:	429a      	cmp	r2, r3
 80036a8:	d003      	beq.n	80036b2 <HAL_LTDC_Init+0x1a>
 80036aa:	21a8      	movs	r1, #168	; 0xa8
 80036ac:	4865      	ldr	r0, [pc, #404]	; (8003844 <HAL_LTDC_Init+0x1ac>)
 80036ae:	f7fd fb30 	bl	8000d12 <assert_failed>
  assert_param(IS_LTDC_HSYNC(hltdc->Init.HorizontalSync));
 80036b2:	6963      	ldr	r3, [r4, #20]
 80036b4:	f5b3 5f80 	cmp.w	r3, #4096	; 0x1000
 80036b8:	d303      	bcc.n	80036c2 <HAL_LTDC_Init+0x2a>
 80036ba:	21a9      	movs	r1, #169	; 0xa9
 80036bc:	4861      	ldr	r0, [pc, #388]	; (8003844 <HAL_LTDC_Init+0x1ac>)
 80036be:	f7fd fb28 	bl	8000d12 <assert_failed>
  assert_param(IS_LTDC_VSYNC(hltdc->Init.VerticalSync));
 80036c2:	69a3      	ldr	r3, [r4, #24]
 80036c4:	f5b3 6f00 	cmp.w	r3, #2048	; 0x800
 80036c8:	d303      	bcc.n	80036d2 <HAL_LTDC_Init+0x3a>
 80036ca:	21aa      	movs	r1, #170	; 0xaa
 80036cc:	485d      	ldr	r0, [pc, #372]	; (8003844 <HAL_LTDC_Init+0x1ac>)
 80036ce:	f7fd fb20 	bl	8000d12 <assert_failed>
  assert_param(IS_LTDC_AHBP(hltdc->Init.AccumulatedHBP));
 80036d2:	69e3      	ldr	r3, [r4, #28]
 80036d4:	f5b3 5f80 	cmp.w	r3, #4096	; 0x1000
 80036d8:	d303      	bcc.n	80036e2 <HAL_LTDC_Init+0x4a>
 80036da:	21ab      	movs	r1, #171	; 0xab
 80036dc:	4859      	ldr	r0, [pc, #356]	; (8003844 <HAL_LTDC_Init+0x1ac>)
 80036de:	f7fd fb18 	bl	8000d12 <assert_failed>
  assert_param(IS_LTDC_AVBP(hltdc->Init.AccumulatedVBP));
 80036e2:	6a23      	ldr	r3, [r4, #32]
 80036e4:	f5b3 6f00 	cmp.w	r3, #2048	; 0x800
 80036e8:	d303      	bcc.n	80036f2 <HAL_LTDC_Init+0x5a>
 80036ea:	21ac      	movs	r1, #172	; 0xac
 80036ec:	4855      	ldr	r0, [pc, #340]	; (8003844 <HAL_LTDC_Init+0x1ac>)
 80036ee:	f7fd fb10 	bl	8000d12 <assert_failed>
  assert_param(IS_LTDC_AAH(hltdc->Init.AccumulatedActiveH));
 80036f2:	6aa3      	ldr	r3, [r4, #40]	; 0x28
 80036f4:	f5b3 6f00 	cmp.w	r3, #2048	; 0x800
 80036f8:	d303      	bcc.n	8003702 <HAL_LTDC_Init+0x6a>
 80036fa:	21ad      	movs	r1, #173	; 0xad
 80036fc:	4851      	ldr	r0, [pc, #324]	; (8003844 <HAL_LTDC_Init+0x1ac>)
 80036fe:	f7fd fb08 	bl	8000d12 <assert_failed>
  assert_param(IS_LTDC_AAW(hltdc->Init.AccumulatedActiveW));
 8003702:	6a63      	ldr	r3, [r4, #36]	; 0x24
 8003704:	f5b3 5f80 	cmp.w	r3, #4096	; 0x1000
 8003708:	d303      	bcc.n	8003712 <HAL_LTDC_Init+0x7a>
 800370a:	21ae      	movs	r1, #174	; 0xae
 800370c:	484d      	ldr	r0, [pc, #308]	; (8003844 <HAL_LTDC_Init+0x1ac>)
 800370e:	f7fd fb00 	bl	8000d12 <assert_failed>
  assert_param(IS_LTDC_TOTALH(hltdc->Init.TotalHeigh));
 8003712:	6b23      	ldr	r3, [r4, #48]	; 0x30
 8003714:	f5b3 6f00 	cmp.w	r3, #2048	; 0x800
 8003718:	d303      	bcc.n	8003722 <HAL_LTDC_Init+0x8a>
 800371a:	21af      	movs	r1, #175	; 0xaf
 800371c:	4849      	ldr	r0, [pc, #292]	; (8003844 <HAL_LTDC_Init+0x1ac>)
 800371e:	f7fd faf8 	bl	8000d12 <assert_failed>
  assert_param(IS_LTDC_TOTALW(hltdc->Init.TotalWidth));
 8003722:	6ae3      	ldr	r3, [r4, #44]	; 0x2c
 8003724:	f5b3 5f80 	cmp.w	r3, #4096	; 0x1000
 8003728:	d303      	bcc.n	8003732 <HAL_LTDC_Init+0x9a>
 800372a:	21b0      	movs	r1, #176	; 0xb0
 800372c:	4845      	ldr	r0, [pc, #276]	; (8003844 <HAL_LTDC_Init+0x1ac>)
 800372e:	f7fd faf0 	bl	8000d12 <assert_failed>
  assert_param(IS_LTDC_HSPOL(hltdc->Init.HSPolarity));
 8003732:	6863      	ldr	r3, [r4, #4]
 8003734:	f033 4300 	bics.w	r3, r3, #2147483648	; 0x80000000
 8003738:	d003      	beq.n	8003742 <HAL_LTDC_Init+0xaa>
 800373a:	21b1      	movs	r1, #177	; 0xb1
 800373c:	4841      	ldr	r0, [pc, #260]	; (8003844 <HAL_LTDC_Init+0x1ac>)
 800373e:	f7fd fae8 	bl	8000d12 <assert_failed>
  assert_param(IS_LTDC_VSPOL(hltdc->Init.VSPolarity));
 8003742:	68a3      	ldr	r3, [r4, #8]
 8003744:	f033 4380 	bics.w	r3, r3, #1073741824	; 0x40000000
 8003748:	d003      	beq.n	8003752 <HAL_LTDC_Init+0xba>
 800374a:	21b2      	movs	r1, #178	; 0xb2
 800374c:	483d      	ldr	r0, [pc, #244]	; (8003844 <HAL_LTDC_Init+0x1ac>)
 800374e:	f7fd fae0 	bl	8000d12 <assert_failed>
  assert_param(IS_LTDC_DEPOL(hltdc->Init.DEPolarity));
 8003752:	68e3      	ldr	r3, [r4, #12]
 8003754:	f033 5300 	bics.w	r3, r3, #536870912	; 0x20000000
 8003758:	d003      	beq.n	8003762 <HAL_LTDC_Init+0xca>
 800375a:	21b3      	movs	r1, #179	; 0xb3
 800375c:	4839      	ldr	r0, [pc, #228]	; (8003844 <HAL_LTDC_Init+0x1ac>)
 800375e:	f7fd fad8 	bl	8000d12 <assert_failed>
  assert_param(IS_LTDC_PCPOL(hltdc->Init.PCPolarity));
 8003762:	6923      	ldr	r3, [r4, #16]
 8003764:	f033 5380 	bics.w	r3, r3, #268435456	; 0x10000000
 8003768:	d003      	beq.n	8003772 <HAL_LTDC_Init+0xda>
 800376a:	21b4      	movs	r1, #180	; 0xb4
 800376c:	4835      	ldr	r0, [pc, #212]	; (8003844 <HAL_LTDC_Init+0x1ac>)
 800376e:	f7fd fad0 	bl	8000d12 <assert_failed>
  if(hltdc->State == HAL_LTDC_STATE_RESET)
 8003772:	f894 30a1 	ldrb.w	r3, [r4, #161]	; 0xa1
 8003776:	f003 02ff 	and.w	r2, r3, #255	; 0xff
 800377a:	b923      	cbnz	r3, 8003786 <HAL_LTDC_Init+0xee>
    hltdc->Lock = HAL_UNLOCKED;
 800377c:	f884 20a0 	strb.w	r2, [r4, #160]	; 0xa0
    HAL_LTDC_MspInit(hltdc);
 8003780:	4620      	mov	r0, r4
 8003782:	f7fd f927 	bl	80009d4 <HAL_LTDC_MspInit>
  hltdc->State = HAL_LTDC_STATE_BUSY;
 8003786:	2302      	movs	r3, #2
 8003788:	f884 30a1 	strb.w	r3, [r4, #161]	; 0xa1
  hltdc->Instance->GCR &= ~(LTDC_GCR_HSPOL | LTDC_GCR_VSPOL | LTDC_GCR_DEPOL | LTDC_GCR_PCPOL);
 800378c:	6823      	ldr	r3, [r4, #0]
  hltdc->Instance->GCR |=  (uint32_t)(hltdc->Init.HSPolarity | hltdc->Init.VSPolarity | \
 800378e:	68a0      	ldr	r0, [r4, #8]
  hltdc->Instance->GCR &= ~(LTDC_GCR_HSPOL | LTDC_GCR_VSPOL | LTDC_GCR_DEPOL | LTDC_GCR_PCPOL);
 8003790:	699a      	ldr	r2, [r3, #24]
 8003792:	f022 4270 	bic.w	r2, r2, #4026531840	; 0xf0000000
 8003796:	619a      	str	r2, [r3, #24]
  hltdc->Instance->GCR |=  (uint32_t)(hltdc->Init.HSPolarity | hltdc->Init.VSPolarity | \
 8003798:	6862      	ldr	r2, [r4, #4]
 800379a:	6999      	ldr	r1, [r3, #24]
 800379c:	4302      	orrs	r2, r0
 800379e:	68e0      	ldr	r0, [r4, #12]
 80037a0:	4302      	orrs	r2, r0
  hltdc->Init.DEPolarity | hltdc->Init.PCPolarity);
 80037a2:	6920      	ldr	r0, [r4, #16]
 80037a4:	4302      	orrs	r2, r0
  hltdc->Instance->GCR |=  (uint32_t)(hltdc->Init.HSPolarity | hltdc->Init.VSPolarity | \
 80037a6:	430a      	orrs	r2, r1
 80037a8:	619a      	str	r2, [r3, #24]
  hltdc->Instance->SSCR &= ~(LTDC_SSCR_VSH | LTDC_SSCR_HSW);
 80037aa:	689a      	ldr	r2, [r3, #8]
 80037ac:	4926      	ldr	r1, [pc, #152]	; (8003848 <HAL_LTDC_Init+0x1b0>)
  tmp = (hltdc->Init.HorizontalSync << 16U);
 80037ae:	6960      	ldr	r0, [r4, #20]
  hltdc->Instance->SSCR &= ~(LTDC_SSCR_VSH | LTDC_SSCR_HSW);
 80037b0:	400a      	ands	r2, r1
 80037b2:	609a      	str	r2, [r3, #8]
  hltdc->Instance->SSCR |= (tmp | hltdc->Init.VerticalSync);
 80037b4:	689a      	ldr	r2, [r3, #8]
 80037b6:	ea42 4200 	orr.w	r2, r2, r0, lsl #16
 80037ba:	69a0      	ldr	r0, [r4, #24]
 80037bc:	4302      	orrs	r2, r0
 80037be:	609a      	str	r2, [r3, #8]
  hltdc->Instance->BPCR &= ~(LTDC_BPCR_AVBP | LTDC_BPCR_AHBP);
 80037c0:	68da      	ldr	r2, [r3, #12]
  tmp = (hltdc->Init.AccumulatedHBP << 16U);
 80037c2:	69e0      	ldr	r0, [r4, #28]
  hltdc->Instance->BPCR &= ~(LTDC_BPCR_AVBP | LTDC_BPCR_AHBP);
 80037c4:	400a      	ands	r2, r1
 80037c6:	60da      	str	r2, [r3, #12]
  hltdc->Instance->BPCR |= (tmp | hltdc->Init.AccumulatedVBP);
 80037c8:	68da      	ldr	r2, [r3, #12]
 80037ca:	ea42 4200 	orr.w	r2, r2, r0, lsl #16
 80037ce:	6a20      	ldr	r0, [r4, #32]
 80037d0:	4302      	orrs	r2, r0
 80037d2:	60da      	str	r2, [r3, #12]
  hltdc->Instance->AWCR &= ~(LTDC_AWCR_AAH | LTDC_AWCR_AAW);
 80037d4:	691a      	ldr	r2, [r3, #16]
  tmp = (hltdc->Init.AccumulatedActiveW << 16U);
 80037d6:	6a60      	ldr	r0, [r4, #36]	; 0x24
  hltdc->Instance->AWCR &= ~(LTDC_AWCR_AAH | LTDC_AWCR_AAW);
 80037d8:	400a      	ands	r2, r1
 80037da:	611a      	str	r2, [r3, #16]
  hltdc->Instance->AWCR |= (tmp | hltdc->Init.AccumulatedActiveH);
 80037dc:	691a      	ldr	r2, [r3, #16]
 80037de:	ea42 4200 	orr.w	r2, r2, r0, lsl #16
 80037e2:	6aa0      	ldr	r0, [r4, #40]	; 0x28
 80037e4:	4302      	orrs	r2, r0
 80037e6:	611a      	str	r2, [r3, #16]
  hltdc->Instance->TWCR &= ~(LTDC_TWCR_TOTALH | LTDC_TWCR_TOTALW);
 80037e8:	695a      	ldr	r2, [r3, #20]
 80037ea:	4011      	ands	r1, r2
 80037ec:	6159      	str	r1, [r3, #20]
  hltdc->Instance->TWCR |= (tmp | hltdc->Init.TotalHeigh);
 80037ee:	695a      	ldr	r2, [r3, #20]
  tmp = (hltdc->Init.TotalWidth << 16U);
 80037f0:	6ae1      	ldr	r1, [r4, #44]	; 0x2c
  hltdc->Instance->TWCR |= (tmp | hltdc->Init.TotalHeigh);
 80037f2:	ea42 4201 	orr.w	r2, r2, r1, lsl #16
 80037f6:	6b21      	ldr	r1, [r4, #48]	; 0x30
 80037f8:	430a      	orrs	r2, r1
 80037fa:	615a      	str	r2, [r3, #20]
  hltdc->Instance->BCCR &= ~(LTDC_BCCR_BCBLUE | LTDC_BCCR_BCGREEN | LTDC_BCCR_BCRED);
 80037fc:	6ad9      	ldr	r1, [r3, #44]	; 0x2c
  tmp1 = ((uint32_t)(hltdc->Init.Backcolor.Red) << 16U);
 80037fe:	f894 0036 	ldrb.w	r0, [r4, #54]	; 0x36
  tmp = ((uint32_t)(hltdc->Init.Backcolor.Green) << 8U);
 8003802:	f894 5035 	ldrb.w	r5, [r4, #53]	; 0x35
  hltdc->Instance->BCCR &= ~(LTDC_BCCR_BCBLUE | LTDC_BCCR_BCGREEN | LTDC_BCCR_BCRED);
 8003806:	f001 417f 	and.w	r1, r1, #4278190080	; 0xff000000
 800380a:	62d9      	str	r1, [r3, #44]	; 0x2c
  hltdc->Instance->BCCR |= (tmp1 | tmp | hltdc->Init.Backcolor.Blue);
 800380c:	6ad9      	ldr	r1, [r3, #44]	; 0x2c
 800380e:	f894 2034 	ldrb.w	r2, [r4, #52]	; 0x34
 8003812:	430a      	orrs	r2, r1
 8003814:	ea42 2205 	orr.w	r2, r2, r5, lsl #8
 8003818:	ea42 4200 	orr.w	r2, r2, r0, lsl #16
 800381c:	62da      	str	r2, [r3, #44]	; 0x2c
  __HAL_LTDC_ENABLE_IT(hltdc, LTDC_IT_TE | LTDC_IT_FU);
 800381e:	6b5a      	ldr	r2, [r3, #52]	; 0x34
 8003820:	f042 0206 	orr.w	r2, r2, #6
 8003824:	635a      	str	r2, [r3, #52]	; 0x34
  __HAL_LTDC_ENABLE(hltdc);
 8003826:	699a      	ldr	r2, [r3, #24]
 8003828:	f042 0201 	orr.w	r2, r2, #1
 800382c:	619a      	str	r2, [r3, #24]
  hltdc->ErrorCode = HAL_LTDC_ERROR_NONE;  
 800382e:	2000      	movs	r0, #0
  hltdc->State = HAL_LTDC_STATE_READY;
 8003830:	2301      	movs	r3, #1
  hltdc->ErrorCode = HAL_LTDC_ERROR_NONE;  
 8003832:	f8c4 00a4 	str.w	r0, [r4, #164]	; 0xa4
  hltdc->State = HAL_LTDC_STATE_READY;
 8003836:	f884 30a1 	strb.w	r3, [r4, #161]	; 0xa1
  return HAL_OK;
 800383a:	bd38      	pop	{r3, r4, r5, pc}
    return HAL_ERROR;
 800383c:	2001      	movs	r0, #1
}
 800383e:	bd38      	pop	{r3, r4, r5, pc}
 8003840:	40016800 	.word	0x40016800
 8003844:	08008394 	.word	0x08008394
 8003848:	f000f800 	.word	0xf000f800

0800384c <HAL_LTDC_ErrorCallback>:
 800384c:	4770      	bx	lr

0800384e <HAL_LTDC_LineEventCallback>:
 800384e:	4770      	bx	lr

08003850 <HAL_LTDC_ReloadEventCallback>:
{
 8003850:	4770      	bx	lr

08003852 <HAL_LTDC_IRQHandler>:
  uint32_t isrflags  = READ_REG(hltdc->Instance->ISR);
 8003852:	6803      	ldr	r3, [r0, #0]
{
 8003854:	b570      	push	{r4, r5, r6, lr}
  uint32_t isrflags  = READ_REG(hltdc->Instance->ISR);
 8003856:	6b9e      	ldr	r6, [r3, #56]	; 0x38
  uint32_t itsources = READ_REG(hltdc->Instance->IER);
 8003858:	6b5d      	ldr	r5, [r3, #52]	; 0x34
  if(((isrflags & LTDC_ISR_TERRIF) != RESET) && ((itsources & LTDC_IER_TERRIE) != RESET))
 800385a:	0772      	lsls	r2, r6, #29
{
 800385c:	4604      	mov	r4, r0
  if(((isrflags & LTDC_ISR_TERRIF) != RESET) && ((itsources & LTDC_IER_TERRIE) != RESET))
 800385e:	d514      	bpl.n	800388a <HAL_LTDC_IRQHandler+0x38>
 8003860:	0769      	lsls	r1, r5, #29
 8003862:	d512      	bpl.n	800388a <HAL_LTDC_IRQHandler+0x38>
    __HAL_LTDC_DISABLE_IT(hltdc, LTDC_IT_TE);
 8003864:	6b5a      	ldr	r2, [r3, #52]	; 0x34
 8003866:	f022 0204 	bic.w	r2, r2, #4
 800386a:	635a      	str	r2, [r3, #52]	; 0x34
    __HAL_LTDC_CLEAR_FLAG(hltdc, LTDC_FLAG_TE);
 800386c:	2204      	movs	r2, #4
 800386e:	63da      	str	r2, [r3, #60]	; 0x3c
    hltdc->ErrorCode |= HAL_LTDC_ERROR_TE;
 8003870:	f8d0 30a4 	ldr.w	r3, [r0, #164]	; 0xa4
 8003874:	f043 0301 	orr.w	r3, r3, #1
 8003878:	f8c0 30a4 	str.w	r3, [r0, #164]	; 0xa4
    __HAL_UNLOCK(hltdc);
 800387c:	2300      	movs	r3, #0
    hltdc->State = HAL_LTDC_STATE_ERROR;
 800387e:	f880 20a1 	strb.w	r2, [r0, #161]	; 0xa1
    __HAL_UNLOCK(hltdc);
 8003882:	f880 30a0 	strb.w	r3, [r0, #160]	; 0xa0
    HAL_LTDC_ErrorCallback(hltdc);
 8003886:	f7ff ffe1 	bl	800384c <HAL_LTDC_ErrorCallback>
  if(((isrflags & LTDC_ISR_FUIF) != RESET) && ((itsources & LTDC_IER_FUIE) != RESET))
 800388a:	07b2      	lsls	r2, r6, #30
 800388c:	d516      	bpl.n	80038bc <HAL_LTDC_IRQHandler+0x6a>
 800388e:	07ab      	lsls	r3, r5, #30
 8003890:	d514      	bpl.n	80038bc <HAL_LTDC_IRQHandler+0x6a>
    __HAL_LTDC_DISABLE_IT(hltdc, LTDC_IT_FU);
 8003892:	6823      	ldr	r3, [r4, #0]
 8003894:	6b5a      	ldr	r2, [r3, #52]	; 0x34
 8003896:	f022 0202 	bic.w	r2, r2, #2
 800389a:	635a      	str	r2, [r3, #52]	; 0x34
    __HAL_LTDC_CLEAR_FLAG(hltdc, LTDC_FLAG_FU);
 800389c:	2202      	movs	r2, #2
 800389e:	63da      	str	r2, [r3, #60]	; 0x3c
    hltdc->ErrorCode |= HAL_LTDC_ERROR_FU;
 80038a0:	f8d4 30a4 	ldr.w	r3, [r4, #164]	; 0xa4
 80038a4:	4313      	orrs	r3, r2
 80038a6:	f8c4 30a4 	str.w	r3, [r4, #164]	; 0xa4
    hltdc->State = HAL_LTDC_STATE_ERROR;
 80038aa:	2304      	movs	r3, #4
 80038ac:	f884 30a1 	strb.w	r3, [r4, #161]	; 0xa1
    __HAL_UNLOCK(hltdc);
 80038b0:	2300      	movs	r3, #0
 80038b2:	f884 30a0 	strb.w	r3, [r4, #160]	; 0xa0
    HAL_LTDC_ErrorCallback(hltdc);
 80038b6:	4620      	mov	r0, r4
 80038b8:	f7ff ffc8 	bl	800384c <HAL_LTDC_ErrorCallback>
  if(((isrflags & LTDC_ISR_LIF) != RESET) && ((itsources & LTDC_IER_LIE) != RESET))
 80038bc:	07f0      	lsls	r0, r6, #31
 80038be:	d510      	bpl.n	80038e2 <HAL_LTDC_IRQHandler+0x90>
 80038c0:	07e9      	lsls	r1, r5, #31
 80038c2:	d50e      	bpl.n	80038e2 <HAL_LTDC_IRQHandler+0x90>
    __HAL_LTDC_DISABLE_IT(hltdc, LTDC_IT_LI);
 80038c4:	6823      	ldr	r3, [r4, #0]
 80038c6:	6b5a      	ldr	r2, [r3, #52]	; 0x34
 80038c8:	f022 0201 	bic.w	r2, r2, #1
 80038cc:	635a      	str	r2, [r3, #52]	; 0x34
    __HAL_LTDC_CLEAR_FLAG(hltdc, LTDC_FLAG_LI);
 80038ce:	2201      	movs	r2, #1
 80038d0:	63da      	str	r2, [r3, #60]	; 0x3c
    __HAL_UNLOCK(hltdc);
 80038d2:	2300      	movs	r3, #0
    hltdc->State = HAL_LTDC_STATE_READY;
 80038d4:	f884 20a1 	strb.w	r2, [r4, #161]	; 0xa1
    __HAL_UNLOCK(hltdc);
 80038d8:	f884 30a0 	strb.w	r3, [r4, #160]	; 0xa0
    HAL_LTDC_LineEventCallback(hltdc);
 80038dc:	4620      	mov	r0, r4
 80038de:	f7ff ffb6 	bl	800384e <HAL_LTDC_LineEventCallback>
  if(((isrflags & LTDC_ISR_RRIF) != RESET) && ((itsources & LTDC_IER_RRIE) != RESET))
 80038e2:	0732      	lsls	r2, r6, #28
 80038e4:	d511      	bpl.n	800390a <HAL_LTDC_IRQHandler+0xb8>
 80038e6:	072b      	lsls	r3, r5, #28
 80038e8:	d50f      	bpl.n	800390a <HAL_LTDC_IRQHandler+0xb8>
    __HAL_LTDC_DISABLE_IT(hltdc, LTDC_IT_RR);
 80038ea:	6823      	ldr	r3, [r4, #0]
 80038ec:	6b5a      	ldr	r2, [r3, #52]	; 0x34
 80038ee:	f022 0208 	bic.w	r2, r2, #8
 80038f2:	635a      	str	r2, [r3, #52]	; 0x34
    __HAL_LTDC_CLEAR_FLAG(hltdc, LTDC_FLAG_RR);
 80038f4:	2208      	movs	r2, #8
 80038f6:	63da      	str	r2, [r3, #60]	; 0x3c
    hltdc->State = HAL_LTDC_STATE_READY;
 80038f8:	2301      	movs	r3, #1
 80038fa:	f884 30a1 	strb.w	r3, [r4, #161]	; 0xa1
    __HAL_UNLOCK(hltdc);
 80038fe:	2300      	movs	r3, #0
 8003900:	f884 30a0 	strb.w	r3, [r4, #160]	; 0xa0
    HAL_LTDC_ReloadEventCallback(hltdc);
 8003904:	4620      	mov	r0, r4
 8003906:	f7ff ffa3 	bl	8003850 <HAL_LTDC_ReloadEventCallback>
 800390a:	bd70      	pop	{r4, r5, r6, pc}

0800390c <HAL_LTDC_ConfigLayer>:
  assert_param(IS_LTDC_LAYER(LayerIdx));
 800390c:	2a01      	cmp	r2, #1
{   
 800390e:	e92d 43f8 	stmdb	sp!, {r3, r4, r5, r6, r7, r8, r9, lr}
 8003912:	4607      	mov	r7, r0
 8003914:	460e      	mov	r6, r1
 8003916:	4691      	mov	r9, r2
  assert_param(IS_LTDC_LAYER(LayerIdx));
 8003918:	d904      	bls.n	8003924 <HAL_LTDC_ConfigLayer+0x18>
 800391a:	f240 11f1 	movw	r1, #497	; 0x1f1
 800391e:	4847      	ldr	r0, [pc, #284]	; (8003a3c <HAL_LTDC_ConfigLayer+0x130>)
 8003920:	f7fd f9f7 	bl	8000d12 <assert_failed>
  assert_param(IS_LTDC_HCONFIGST(pLayerCfg->WindowX0));
 8003924:	6833      	ldr	r3, [r6, #0]
 8003926:	f5b3 5f80 	cmp.w	r3, #4096	; 0x1000
 800392a:	d304      	bcc.n	8003936 <HAL_LTDC_ConfigLayer+0x2a>
 800392c:	f44f 71f9 	mov.w	r1, #498	; 0x1f2
 8003930:	4842      	ldr	r0, [pc, #264]	; (8003a3c <HAL_LTDC_ConfigLayer+0x130>)
 8003932:	f7fd f9ee 	bl	8000d12 <assert_failed>
  assert_param(IS_LTDC_HCONFIGSP(pLayerCfg->WindowX1));
 8003936:	6873      	ldr	r3, [r6, #4]
 8003938:	f5b3 3f80 	cmp.w	r3, #65536	; 0x10000
 800393c:	d304      	bcc.n	8003948 <HAL_LTDC_ConfigLayer+0x3c>
 800393e:	f240 11f3 	movw	r1, #499	; 0x1f3
 8003942:	483e      	ldr	r0, [pc, #248]	; (8003a3c <HAL_LTDC_ConfigLayer+0x130>)
 8003944:	f7fd f9e5 	bl	8000d12 <assert_failed>
  assert_param(IS_LTDC_VCONFIGST(pLayerCfg->WindowY0));
 8003948:	68b3      	ldr	r3, [r6, #8]
 800394a:	f5b3 5f80 	cmp.w	r3, #4096	; 0x1000
 800394e:	d304      	bcc.n	800395a <HAL_LTDC_ConfigLayer+0x4e>
 8003950:	f44f 71fa 	mov.w	r1, #500	; 0x1f4
 8003954:	4839      	ldr	r0, [pc, #228]	; (8003a3c <HAL_LTDC_ConfigLayer+0x130>)
 8003956:	f7fd f9dc 	bl	8000d12 <assert_failed>
  assert_param(IS_LTDC_VCONFIGSP(pLayerCfg->WindowY1));
 800395a:	68f3      	ldr	r3, [r6, #12]
 800395c:	f5b3 3f80 	cmp.w	r3, #65536	; 0x10000
 8003960:	d304      	bcc.n	800396c <HAL_LTDC_ConfigLayer+0x60>
 8003962:	f240 11f5 	movw	r1, #501	; 0x1f5
 8003966:	4835      	ldr	r0, [pc, #212]	; (8003a3c <HAL_LTDC_ConfigLayer+0x130>)
 8003968:	f7fd f9d3 	bl	8000d12 <assert_failed>
  assert_param(IS_LTDC_PIXEL_FORMAT(pLayerCfg->PixelFormat));
 800396c:	6933      	ldr	r3, [r6, #16]
 800396e:	2b07      	cmp	r3, #7
 8003970:	d904      	bls.n	800397c <HAL_LTDC_ConfigLayer+0x70>
 8003972:	f44f 71fb 	mov.w	r1, #502	; 0x1f6
 8003976:	4831      	ldr	r0, [pc, #196]	; (8003a3c <HAL_LTDC_ConfigLayer+0x130>)
 8003978:	f7fd f9cb 	bl	8000d12 <assert_failed>
  assert_param(IS_LTDC_ALPHA(pLayerCfg->Alpha));
 800397c:	6973      	ldr	r3, [r6, #20]
 800397e:	2bff      	cmp	r3, #255	; 0xff
 8003980:	d904      	bls.n	800398c <HAL_LTDC_ConfigLayer+0x80>
 8003982:	f240 11f7 	movw	r1, #503	; 0x1f7
 8003986:	482d      	ldr	r0, [pc, #180]	; (8003a3c <HAL_LTDC_ConfigLayer+0x130>)
 8003988:	f7fd f9c3 	bl	8000d12 <assert_failed>
  assert_param(IS_LTDC_ALPHA(pLayerCfg->Alpha0));
 800398c:	69b3      	ldr	r3, [r6, #24]
 800398e:	2bff      	cmp	r3, #255	; 0xff
 8003990:	d904      	bls.n	800399c <HAL_LTDC_ConfigLayer+0x90>
 8003992:	f44f 71fc 	mov.w	r1, #504	; 0x1f8
 8003996:	4829      	ldr	r0, [pc, #164]	; (8003a3c <HAL_LTDC_ConfigLayer+0x130>)
 8003998:	f7fd f9bb 	bl	8000d12 <assert_failed>
  assert_param(IS_LTDC_BLENDING_FACTOR1(pLayerCfg->BlendingFactor1));
 800399c:	69f3      	ldr	r3, [r6, #28]
 800399e:	f423 7300 	bic.w	r3, r3, #512	; 0x200
 80039a2:	f5b3 6f80 	cmp.w	r3, #1024	; 0x400
 80039a6:	d004      	beq.n	80039b2 <HAL_LTDC_ConfigLayer+0xa6>
 80039a8:	f240 11f9 	movw	r1, #505	; 0x1f9
 80039ac:	4823      	ldr	r0, [pc, #140]	; (8003a3c <HAL_LTDC_ConfigLayer+0x130>)
 80039ae:	f7fd f9b0 	bl	8000d12 <assert_failed>
  assert_param(IS_LTDC_BLENDING_FACTOR2(pLayerCfg->BlendingFactor2));
 80039b2:	6a33      	ldr	r3, [r6, #32]
 80039b4:	f023 0302 	bic.w	r3, r3, #2
 80039b8:	2b05      	cmp	r3, #5
 80039ba:	d004      	beq.n	80039c6 <HAL_LTDC_ConfigLayer+0xba>
 80039bc:	f44f 71fd 	mov.w	r1, #506	; 0x1fa
 80039c0:	481e      	ldr	r0, [pc, #120]	; (8003a3c <HAL_LTDC_ConfigLayer+0x130>)
 80039c2:	f7fd f9a6 	bl	8000d12 <assert_failed>
  assert_param(IS_LTDC_CFBLL(pLayerCfg->ImageWidth));	
 80039c6:	6ab3      	ldr	r3, [r6, #40]	; 0x28
 80039c8:	f5b3 5f00 	cmp.w	r3, #8192	; 0x2000
 80039cc:	d304      	bcc.n	80039d8 <HAL_LTDC_ConfigLayer+0xcc>
 80039ce:	f240 11fb 	movw	r1, #507	; 0x1fb
 80039d2:	481a      	ldr	r0, [pc, #104]	; (8003a3c <HAL_LTDC_ConfigLayer+0x130>)
 80039d4:	f7fd f99d 	bl	8000d12 <assert_failed>
  assert_param(IS_LTDC_CFBLNBR(pLayerCfg->ImageHeight));
 80039d8:	6af3      	ldr	r3, [r6, #44]	; 0x2c
 80039da:	f5b3 6f00 	cmp.w	r3, #2048	; 0x800
 80039de:	d304      	bcc.n	80039ea <HAL_LTDC_ConfigLayer+0xde>
 80039e0:	f44f 71fe 	mov.w	r1, #508	; 0x1fc
 80039e4:	4815      	ldr	r0, [pc, #84]	; (8003a3c <HAL_LTDC_ConfigLayer+0x130>)
 80039e6:	f7fd f994 	bl	8000d12 <assert_failed>
  __HAL_LOCK(hltdc);
 80039ea:	f897 30a0 	ldrb.w	r3, [r7, #160]	; 0xa0
 80039ee:	2b01      	cmp	r3, #1
 80039f0:	f04f 0002 	mov.w	r0, #2
 80039f4:	d01f      	beq.n	8003a36 <HAL_LTDC_ConfigLayer+0x12a>
  hltdc->LayerCfg[LayerIdx] = *pLayerCfg;  
 80039f6:	4635      	mov	r5, r6
  hltdc->State = HAL_LTDC_STATE_BUSY;
 80039f8:	f887 00a1 	strb.w	r0, [r7, #161]	; 0xa1
  hltdc->LayerCfg[LayerIdx] = *pLayerCfg;  
 80039fc:	cd0f      	ldmia	r5!, {r0, r1, r2, r3}
 80039fe:	2434      	movs	r4, #52	; 0x34
 8003a00:	fb04 7409 	mla	r4, r4, r9, r7
  __HAL_LOCK(hltdc);
 8003a04:	f04f 0801 	mov.w	r8, #1
  hltdc->LayerCfg[LayerIdx] = *pLayerCfg;  
 8003a08:	3438      	adds	r4, #56	; 0x38
  __HAL_LOCK(hltdc);
 8003a0a:	f887 80a0 	strb.w	r8, [r7, #160]	; 0xa0
  hltdc->LayerCfg[LayerIdx] = *pLayerCfg;  
 8003a0e:	c40f      	stmia	r4!, {r0, r1, r2, r3}
 8003a10:	cd0f      	ldmia	r5!, {r0, r1, r2, r3}
 8003a12:	c40f      	stmia	r4!, {r0, r1, r2, r3}
 8003a14:	cd0f      	ldmia	r5!, {r0, r1, r2, r3}
 8003a16:	c40f      	stmia	r4!, {r0, r1, r2, r3}
 8003a18:	682b      	ldr	r3, [r5, #0]
 8003a1a:	6023      	str	r3, [r4, #0]
  LTDC_SetConfig(hltdc, pLayerCfg, LayerIdx);
 8003a1c:	4638      	mov	r0, r7
 8003a1e:	464a      	mov	r2, r9
 8003a20:	4631      	mov	r1, r6
 8003a22:	f7ff fdb3 	bl	800358c <LTDC_SetConfig>
  hltdc->Instance->SRCR = LTDC_SRCR_IMR;
 8003a26:	683b      	ldr	r3, [r7, #0]
  __HAL_UNLOCK(hltdc);
 8003a28:	2000      	movs	r0, #0
  hltdc->Instance->SRCR = LTDC_SRCR_IMR;
 8003a2a:	f8c3 8024 	str.w	r8, [r3, #36]	; 0x24
  hltdc->State  = HAL_LTDC_STATE_READY;
 8003a2e:	f887 80a1 	strb.w	r8, [r7, #161]	; 0xa1
  __HAL_UNLOCK(hltdc);
 8003a32:	f887 00a0 	strb.w	r0, [r7, #160]	; 0xa0
}
 8003a36:	e8bd 83f8 	ldmia.w	sp!, {r3, r4, r5, r6, r7, r8, r9, pc}
 8003a3a:	bf00      	nop
 8003a3c:	08008394 	.word	0x08008394

08003a40 <HAL_LTDC_ConfigCLUT>:
  assert_param(IS_LTDC_LAYER(LayerIdx));
 8003a40:	2b01      	cmp	r3, #1
{
 8003a42:	e92d 41f0 	stmdb	sp!, {r4, r5, r6, r7, r8, lr}
 8003a46:	4604      	mov	r4, r0
 8003a48:	460d      	mov	r5, r1
 8003a4a:	4616      	mov	r6, r2
 8003a4c:	4698      	mov	r8, r3
  assert_param(IS_LTDC_LAYER(LayerIdx));
 8003a4e:	d904      	bls.n	8003a5a <HAL_LTDC_ConfigCLUT+0x1a>
 8003a50:	f240 214d 	movw	r1, #589	; 0x24d
 8003a54:	481d      	ldr	r0, [pc, #116]	; (8003acc <HAL_LTDC_ConfigCLUT+0x8c>)
 8003a56:	f7fd f95c 	bl	8000d12 <assert_failed>
  __HAL_LOCK(hltdc);
 8003a5a:	f894 30a0 	ldrb.w	r3, [r4, #160]	; 0xa0
 8003a5e:	2b01      	cmp	r3, #1
 8003a60:	f04f 0002 	mov.w	r0, #2
 8003a64:	d014      	beq.n	8003a90 <HAL_LTDC_ConfigCLUT+0x50>
 8003a66:	2301      	movs	r3, #1
 8003a68:	f884 30a0 	strb.w	r3, [r4, #160]	; 0xa0
    if(hltdc->LayerCfg[LayerIdx].PixelFormat == LTDC_PIXEL_FORMAT_AL44)
 8003a6c:	2334      	movs	r3, #52	; 0x34
  hltdc->State = HAL_LTDC_STATE_BUSY;  
 8003a6e:	f884 00a1 	strb.w	r0, [r4, #161]	; 0xa1
    LTDC_LAYER(hltdc, LayerIdx)->CLUTWR  = tmp;
 8003a72:	ea4f 17c8 	mov.w	r7, r8, lsl #7
  for(counter = 0U; (counter < CLUTSize); counter++)
 8003a76:	2200      	movs	r2, #0
    if(hltdc->LayerCfg[LayerIdx].PixelFormat == LTDC_PIXEL_FORMAT_AL44)
 8003a78:	fb03 4308 	mla	r3, r3, r8, r4
      tmp  = (((counter + 16U*counter) << 24U) | ((uint32_t)(*pCLUT) & 0xFFU) | ((uint32_t)(*pCLUT) & 0xFF00U) | ((uint32_t)(*pCLUT) & 0xFF0000U));
 8003a7c:	f04f 5e88 	mov.w	lr, #285212672	; 0x11000000
  for(counter = 0U; (counter < CLUTSize); counter++)
 8003a80:	42b2      	cmp	r2, r6
 8003a82:	d107      	bne.n	8003a94 <HAL_LTDC_ConfigCLUT+0x54>
  hltdc->State = HAL_LTDC_STATE_READY; 
 8003a84:	2301      	movs	r3, #1
  __HAL_UNLOCK(hltdc);  
 8003a86:	2000      	movs	r0, #0
  hltdc->State = HAL_LTDC_STATE_READY; 
 8003a88:	f884 30a1 	strb.w	r3, [r4, #161]	; 0xa1
  __HAL_UNLOCK(hltdc);  
 8003a8c:	f884 00a0 	strb.w	r0, [r4, #160]	; 0xa0
}
 8003a90:	e8bd 81f0 	ldmia.w	sp!, {r4, r5, r6, r7, r8, pc}
    if(hltdc->LayerCfg[LayerIdx].PixelFormat == LTDC_PIXEL_FORMAT_AL44)
 8003a94:	6c99      	ldr	r1, [r3, #72]	; 0x48
 8003a96:	f855 0022 	ldr.w	r0, [r5, r2, lsl #2]
 8003a9a:	2906      	cmp	r1, #6
      tmp  = (((counter + 16U*counter) << 24U) | ((uint32_t)(*pCLUT) & 0xFFU) | ((uint32_t)(*pCLUT) & 0xFF00U) | ((uint32_t)(*pCLUT) & 0xFF0000U));
 8003a9c:	bf03      	ittte	eq
 8003a9e:	b2c1      	uxtbeq	r1, r0
 8003aa0:	fb0e fc02 	muleq.w	ip, lr, r2
 8003aa4:	ea41 010c 	orreq.w	r1, r1, ip
      tmp  = ((counter << 24U) | ((uint32_t)(*pCLUT) & 0xFFU) | ((uint32_t)(*pCLUT) & 0xFF00U) | ((uint32_t)(*pCLUT) & 0xFF0000U));
 8003aa8:	b281      	uxthne	r1, r0
      tmp  = (((counter + 16U*counter) << 24U) | ((uint32_t)(*pCLUT) & 0xFFU) | ((uint32_t)(*pCLUT) & 0xFF00U) | ((uint32_t)(*pCLUT) & 0xFF0000U));
 8003aaa:	bf0c      	ite	eq
 8003aac:	f400 4c7f 	andeq.w	ip, r0, #65280	; 0xff00
      tmp  = ((counter << 24U) | ((uint32_t)(*pCLUT) & 0xFFU) | ((uint32_t)(*pCLUT) & 0xFF00U) | ((uint32_t)(*pCLUT) & 0xFF0000U));
 8003ab0:	ea41 6102 	orrne.w	r1, r1, r2, lsl #24
 8003ab4:	f400 007f 	and.w	r0, r0, #16711680	; 0xff0000
      tmp  = (((counter + 16U*counter) << 24U) | ((uint32_t)(*pCLUT) & 0xFFU) | ((uint32_t)(*pCLUT) & 0xFF00U) | ((uint32_t)(*pCLUT) & 0xFF0000U));
 8003ab8:	bf08      	it	eq
 8003aba:	ea41 010c 	orreq.w	r1, r1, ip
      tmp  = ((counter << 24U) | ((uint32_t)(*pCLUT) & 0xFFU) | ((uint32_t)(*pCLUT) & 0xFF00U) | ((uint32_t)(*pCLUT) & 0xFF0000U));
 8003abe:	4301      	orrs	r1, r0
    LTDC_LAYER(hltdc, LayerIdx)->CLUTWR  = tmp;
 8003ac0:	6820      	ldr	r0, [r4, #0]
 8003ac2:	3084      	adds	r0, #132	; 0x84
 8003ac4:	4438      	add	r0, r7
  for(counter = 0U; (counter < CLUTSize); counter++)
 8003ac6:	3201      	adds	r2, #1
    LTDC_LAYER(hltdc, LayerIdx)->CLUTWR  = tmp;
 8003ac8:	6401      	str	r1, [r0, #64]	; 0x40
 8003aca:	e7d9      	b.n	8003a80 <HAL_LTDC_ConfigCLUT+0x40>
 8003acc:	08008394 	.word	0x08008394

08003ad0 <HAL_LTDC_EnableCLUT>:
  assert_param(IS_LTDC_LAYER(LayerIdx));
 8003ad0:	2901      	cmp	r1, #1
{
 8003ad2:	b538      	push	{r3, r4, r5, lr}
 8003ad4:	4604      	mov	r4, r0
 8003ad6:	460d      	mov	r5, r1
  assert_param(IS_LTDC_LAYER(LayerIdx));
 8003ad8:	d904      	bls.n	8003ae4 <HAL_LTDC_EnableCLUT+0x14>
 8003ada:	f240 21c1 	movw	r1, #705	; 0x2c1
 8003ade:	480d      	ldr	r0, [pc, #52]	; (8003b14 <HAL_LTDC_EnableCLUT+0x44>)
 8003ae0:	f7fd f917 	bl	8000d12 <assert_failed>
  __HAL_LOCK(hltdc);
 8003ae4:	f894 30a0 	ldrb.w	r3, [r4, #160]	; 0xa0
 8003ae8:	2b01      	cmp	r3, #1
 8003aea:	f04f 0002 	mov.w	r0, #2
 8003aee:	d010      	beq.n	8003b12 <HAL_LTDC_EnableCLUT+0x42>
  LTDC_LAYER(hltdc, LayerIdx)->CR |= (uint32_t)LTDC_LxCR_CLUTEN;
 8003af0:	6822      	ldr	r2, [r4, #0]
  hltdc->State = HAL_LTDC_STATE_BUSY;
 8003af2:	f884 00a1 	strb.w	r0, [r4, #161]	; 0xa1
  LTDC_LAYER(hltdc, LayerIdx)->CR |= (uint32_t)LTDC_LxCR_CLUTEN;
 8003af6:	01ed      	lsls	r5, r5, #7
 8003af8:	f102 0184 	add.w	r1, r2, #132	; 0x84
  __HAL_UNLOCK(hltdc);
 8003afc:	2000      	movs	r0, #0
  LTDC_LAYER(hltdc, LayerIdx)->CR |= (uint32_t)LTDC_LxCR_CLUTEN;
 8003afe:	586b      	ldr	r3, [r5, r1]
 8003b00:	f043 0310 	orr.w	r3, r3, #16
 8003b04:	506b      	str	r3, [r5, r1]
  hltdc->Instance->SRCR = LTDC_SRCR_IMR;
 8003b06:	2301      	movs	r3, #1
 8003b08:	6253      	str	r3, [r2, #36]	; 0x24
  hltdc->State = HAL_LTDC_STATE_READY; 
 8003b0a:	f884 30a1 	strb.w	r3, [r4, #161]	; 0xa1
  __HAL_UNLOCK(hltdc);
 8003b0e:	f884 00a0 	strb.w	r0, [r4, #160]	; 0xa0
}
 8003b12:	bd38      	pop	{r3, r4, r5, pc}
 8003b14:	08008394 	.word	0x08008394

08003b18 <HAL_LTDC_SetAddress>:
  assert_param(IS_LTDC_LAYER(LayerIdx));
 8003b18:	2a01      	cmp	r2, #1
{
 8003b1a:	b5f8      	push	{r3, r4, r5, r6, r7, lr}
 8003b1c:	4604      	mov	r4, r0
 8003b1e:	460f      	mov	r7, r1
 8003b20:	4616      	mov	r6, r2
  assert_param(IS_LTDC_LAYER(LayerIdx));
 8003b22:	d904      	bls.n	8003b2e <HAL_LTDC_SetAddress+0x16>
 8003b24:	f240 4105 	movw	r1, #1029	; 0x405
 8003b28:	480f      	ldr	r0, [pc, #60]	; (8003b68 <HAL_LTDC_SetAddress+0x50>)
 8003b2a:	f7fd f8f2 	bl	8000d12 <assert_failed>
  __HAL_LOCK(hltdc);
 8003b2e:	f894 30a0 	ldrb.w	r3, [r4, #160]	; 0xa0
 8003b32:	2b01      	cmp	r3, #1
 8003b34:	f04f 0002 	mov.w	r0, #2
 8003b38:	d015      	beq.n	8003b66 <HAL_LTDC_SetAddress+0x4e>
  pLayerCfg->FBStartAdress = Address;
 8003b3a:	2134      	movs	r1, #52	; 0x34
 8003b3c:	4371      	muls	r1, r6
 8003b3e:	1863      	adds	r3, r4, r1
  __HAL_LOCK(hltdc);
 8003b40:	2501      	movs	r5, #1
  pLayerCfg = &hltdc->LayerCfg[LayerIdx];
 8003b42:	3138      	adds	r1, #56	; 0x38
  hltdc->State = HAL_LTDC_STATE_BUSY;
 8003b44:	f884 00a1 	strb.w	r0, [r4, #161]	; 0xa1
  __HAL_LOCK(hltdc);
 8003b48:	f884 50a0 	strb.w	r5, [r4, #160]	; 0xa0
  LTDC_SetConfig(hltdc, pLayerCfg, LayerIdx);
 8003b4c:	4620      	mov	r0, r4
  pLayerCfg->FBStartAdress = Address;
 8003b4e:	65df      	str	r7, [r3, #92]	; 0x5c
  LTDC_SetConfig(hltdc, pLayerCfg, LayerIdx);
 8003b50:	4632      	mov	r2, r6
 8003b52:	4421      	add	r1, r4
 8003b54:	f7ff fd1a 	bl	800358c <LTDC_SetConfig>
  hltdc->Instance->SRCR = LTDC_SRCR_IMR;
 8003b58:	6823      	ldr	r3, [r4, #0]
  __HAL_UNLOCK(hltdc);
 8003b5a:	2000      	movs	r0, #0
  hltdc->Instance->SRCR = LTDC_SRCR_IMR;
 8003b5c:	625d      	str	r5, [r3, #36]	; 0x24
  hltdc->State = HAL_LTDC_STATE_READY;
 8003b5e:	f884 50a1 	strb.w	r5, [r4, #161]	; 0xa1
  __HAL_UNLOCK(hltdc);
 8003b62:	f884 00a0 	strb.w	r0, [r4, #160]	; 0xa0
}
 8003b66:	bdf8      	pop	{r3, r4, r5, r6, r7, pc}
 8003b68:	08008394 	.word	0x08008394

08003b6c <HAL_RCC_OscConfig>:
__weak HAL_StatusTypeDef HAL_RCC_OscConfig(RCC_OscInitTypeDef  *RCC_OscInitStruct)
{
  uint32_t tickstart = 0U;  
 
  /* Check the parameters */
  assert_param(IS_RCC_OSCILLATORTYPE(RCC_OscInitStruct->OscillatorType));
 8003b6c:	6803      	ldr	r3, [r0, #0]
 8003b6e:	2b0f      	cmp	r3, #15
{
 8003b70:	b5f7      	push	{r0, r1, r2, r4, r5, r6, r7, lr}
 8003b72:	4604      	mov	r4, r0
  assert_param(IS_RCC_OSCILLATORTYPE(RCC_OscInitStruct->OscillatorType));
 8003b74:	d903      	bls.n	8003b7e <HAL_RCC_OscConfig+0x12>
 8003b76:	21f3      	movs	r1, #243	; 0xf3
 8003b78:	48a2      	ldr	r0, [pc, #648]	; (8003e04 <HAL_RCC_OscConfig+0x298>)
 8003b7a:	f7fd f8ca 	bl	8000d12 <assert_failed>
  /*------------------------------- HSE Configuration ------------------------*/ 
  if(((RCC_OscInitStruct->OscillatorType) & RCC_OSCILLATORTYPE_HSE) == RCC_OSCILLATORTYPE_HSE)
 8003b7e:	6823      	ldr	r3, [r4, #0]
 8003b80:	07dd      	lsls	r5, r3, #31
 8003b82:	d418      	bmi.n	8003bb6 <HAL_RCC_OscConfig+0x4a>
        }
      }
    }
  }
  /*----------------------------- HSI Configuration --------------------------*/
  if(((RCC_OscInitStruct->OscillatorType) & RCC_OSCILLATORTYPE_HSI) == RCC_OSCILLATORTYPE_HSI)
 8003b84:	6823      	ldr	r3, [r4, #0]
 8003b86:	0798      	lsls	r0, r3, #30
 8003b88:	d46d      	bmi.n	8003c66 <HAL_RCC_OscConfig+0xfa>
        } 
      }
    }
  }
  /*------------------------------ LSI Configuration -------------------------*/
  if(((RCC_OscInitStruct->OscillatorType) & RCC_OSCILLATORTYPE_LSI) == RCC_OSCILLATORTYPE_LSI)
 8003b8a:	6823      	ldr	r3, [r4, #0]
 8003b8c:	071a      	lsls	r2, r3, #28
 8003b8e:	f100 80c9 	bmi.w	8003d24 <HAL_RCC_OscConfig+0x1b8>
        }       
      } 
    }
  }
  /*------------------------------ LSE Configuration -------------------------*/ 
  if(((RCC_OscInitStruct->OscillatorType) & RCC_OSCILLATORTYPE_LSE) == RCC_OSCILLATORTYPE_LSE)
 8003b92:	6823      	ldr	r3, [r4, #0]
 8003b94:	075b      	lsls	r3, r3, #29
 8003b96:	f100 80ef 	bmi.w	8003d78 <HAL_RCC_OscConfig+0x20c>
      }
    }
  }
  /*-------------------------------- PLL Configuration -----------------------*/
  /* Check the parameters */
  assert_param(IS_RCC_PLL(RCC_OscInitStruct->PLL.PLLState));
 8003b9a:	69a3      	ldr	r3, [r4, #24]
 8003b9c:	2b02      	cmp	r3, #2
 8003b9e:	d904      	bls.n	8003baa <HAL_RCC_OscConfig+0x3e>
 8003ba0:	f44f 71e5 	mov.w	r1, #458	; 0x1ca
 8003ba4:	4897      	ldr	r0, [pc, #604]	; (8003e04 <HAL_RCC_OscConfig+0x298>)
 8003ba6:	f7fd f8b4 	bl	8000d12 <assert_failed>
  if ((RCC_OscInitStruct->PLL.PLLState) != RCC_PLL_NONE)
 8003baa:	69a2      	ldr	r2, [r4, #24]
 8003bac:	2a00      	cmp	r2, #0
 8003bae:	f040 814c 	bne.w	8003e4a <HAL_RCC_OscConfig+0x2de>
    else
    {
      return HAL_ERROR;
    }
  }
  return HAL_OK;
 8003bb2:	2000      	movs	r0, #0
 8003bb4:	e020      	b.n	8003bf8 <HAL_RCC_OscConfig+0x8c>
    assert_param(IS_RCC_HSE(RCC_OscInitStruct->HSEState));
 8003bb6:	6863      	ldr	r3, [r4, #4]
 8003bb8:	f433 3280 	bics.w	r2, r3, #65536	; 0x10000
 8003bbc:	d006      	beq.n	8003bcc <HAL_RCC_OscConfig+0x60>
 8003bbe:	f5b3 2fa0 	cmp.w	r3, #327680	; 0x50000
 8003bc2:	d003      	beq.n	8003bcc <HAL_RCC_OscConfig+0x60>
 8003bc4:	21f8      	movs	r1, #248	; 0xf8
 8003bc6:	488f      	ldr	r0, [pc, #572]	; (8003e04 <HAL_RCC_OscConfig+0x298>)
 8003bc8:	f7fd f8a3 	bl	8000d12 <assert_failed>
    if((__HAL_RCC_GET_SYSCLK_SOURCE() == RCC_CFGR_SWS_HSE) ||\
 8003bcc:	4b8e      	ldr	r3, [pc, #568]	; (8003e08 <HAL_RCC_OscConfig+0x29c>)
 8003bce:	689a      	ldr	r2, [r3, #8]
 8003bd0:	f002 020c 	and.w	r2, r2, #12
 8003bd4:	2a04      	cmp	r2, #4
 8003bd6:	d007      	beq.n	8003be8 <HAL_RCC_OscConfig+0x7c>
      ((__HAL_RCC_GET_SYSCLK_SOURCE() == RCC_CFGR_SWS_PLL) && ((RCC->PLLCFGR & RCC_PLLCFGR_PLLSRC) == RCC_PLLCFGR_PLLSRC_HSE)))
 8003bd8:	689a      	ldr	r2, [r3, #8]
 8003bda:	f002 020c 	and.w	r2, r2, #12
    if((__HAL_RCC_GET_SYSCLK_SOURCE() == RCC_CFGR_SWS_HSE) ||\
 8003bde:	2a08      	cmp	r2, #8
 8003be0:	d10c      	bne.n	8003bfc <HAL_RCC_OscConfig+0x90>
      ((__HAL_RCC_GET_SYSCLK_SOURCE() == RCC_CFGR_SWS_PLL) && ((RCC->PLLCFGR & RCC_PLLCFGR_PLLSRC) == RCC_PLLCFGR_PLLSRC_HSE)))
 8003be2:	685b      	ldr	r3, [r3, #4]
 8003be4:	0259      	lsls	r1, r3, #9
 8003be6:	d509      	bpl.n	8003bfc <HAL_RCC_OscConfig+0x90>
      if((__HAL_RCC_GET_FLAG(RCC_FLAG_HSERDY) != RESET) && (RCC_OscInitStruct->HSEState == RCC_HSE_OFF))
 8003be8:	4b87      	ldr	r3, [pc, #540]	; (8003e08 <HAL_RCC_OscConfig+0x29c>)
 8003bea:	681b      	ldr	r3, [r3, #0]
 8003bec:	039a      	lsls	r2, r3, #14
 8003bee:	d5c9      	bpl.n	8003b84 <HAL_RCC_OscConfig+0x18>
 8003bf0:	6863      	ldr	r3, [r4, #4]
 8003bf2:	2b00      	cmp	r3, #0
 8003bf4:	d1c6      	bne.n	8003b84 <HAL_RCC_OscConfig+0x18>
        return HAL_ERROR;
 8003bf6:	2001      	movs	r0, #1
}
 8003bf8:	b003      	add	sp, #12
 8003bfa:	bdf0      	pop	{r4, r5, r6, r7, pc}
      __HAL_RCC_HSE_CONFIG(RCC_OscInitStruct->HSEState);
 8003bfc:	6863      	ldr	r3, [r4, #4]
 8003bfe:	4d82      	ldr	r5, [pc, #520]	; (8003e08 <HAL_RCC_OscConfig+0x29c>)
 8003c00:	f5b3 3f80 	cmp.w	r3, #65536	; 0x10000
 8003c04:	d111      	bne.n	8003c2a <HAL_RCC_OscConfig+0xbe>
 8003c06:	682b      	ldr	r3, [r5, #0]
 8003c08:	f443 3380 	orr.w	r3, r3, #65536	; 0x10000
 8003c0c:	602b      	str	r3, [r5, #0]
        tickstart = HAL_GetTick();
 8003c0e:	f7fd feff 	bl	8001a10 <HAL_GetTick>
        while(__HAL_RCC_GET_FLAG(RCC_FLAG_HSERDY) == RESET)
 8003c12:	4d7d      	ldr	r5, [pc, #500]	; (8003e08 <HAL_RCC_OscConfig+0x29c>)
        tickstart = HAL_GetTick();
 8003c14:	4606      	mov	r6, r0
        while(__HAL_RCC_GET_FLAG(RCC_FLAG_HSERDY) == RESET)
 8003c16:	682b      	ldr	r3, [r5, #0]
 8003c18:	039b      	lsls	r3, r3, #14
 8003c1a:	d4b3      	bmi.n	8003b84 <HAL_RCC_OscConfig+0x18>
          if((HAL_GetTick() - tickstart ) > HSE_TIMEOUT_VALUE)
 8003c1c:	f7fd fef8 	bl	8001a10 <HAL_GetTick>
 8003c20:	1b80      	subs	r0, r0, r6
 8003c22:	2864      	cmp	r0, #100	; 0x64
 8003c24:	d9f7      	bls.n	8003c16 <HAL_RCC_OscConfig+0xaa>
            return HAL_TIMEOUT;
 8003c26:	2003      	movs	r0, #3
 8003c28:	e7e6      	b.n	8003bf8 <HAL_RCC_OscConfig+0x8c>
      __HAL_RCC_HSE_CONFIG(RCC_OscInitStruct->HSEState);
 8003c2a:	f5b3 2fa0 	cmp.w	r3, #327680	; 0x50000
 8003c2e:	d104      	bne.n	8003c3a <HAL_RCC_OscConfig+0xce>
 8003c30:	682b      	ldr	r3, [r5, #0]
 8003c32:	f443 2380 	orr.w	r3, r3, #262144	; 0x40000
 8003c36:	602b      	str	r3, [r5, #0]
 8003c38:	e7e5      	b.n	8003c06 <HAL_RCC_OscConfig+0x9a>
 8003c3a:	682a      	ldr	r2, [r5, #0]
 8003c3c:	f422 3280 	bic.w	r2, r2, #65536	; 0x10000
 8003c40:	602a      	str	r2, [r5, #0]
 8003c42:	682a      	ldr	r2, [r5, #0]
 8003c44:	f422 2280 	bic.w	r2, r2, #262144	; 0x40000
 8003c48:	602a      	str	r2, [r5, #0]
      if((RCC_OscInitStruct->HSEState) != RCC_HSE_OFF)
 8003c4a:	2b00      	cmp	r3, #0
 8003c4c:	d1df      	bne.n	8003c0e <HAL_RCC_OscConfig+0xa2>
        tickstart = HAL_GetTick();
 8003c4e:	f7fd fedf 	bl	8001a10 <HAL_GetTick>
 8003c52:	4606      	mov	r6, r0
        while(__HAL_RCC_GET_FLAG(RCC_FLAG_HSERDY) != RESET)
 8003c54:	682b      	ldr	r3, [r5, #0]
 8003c56:	039f      	lsls	r7, r3, #14
 8003c58:	d594      	bpl.n	8003b84 <HAL_RCC_OscConfig+0x18>
          if((HAL_GetTick() - tickstart ) > HSE_TIMEOUT_VALUE)
 8003c5a:	f7fd fed9 	bl	8001a10 <HAL_GetTick>
 8003c5e:	1b80      	subs	r0, r0, r6
 8003c60:	2864      	cmp	r0, #100	; 0x64
 8003c62:	d9f7      	bls.n	8003c54 <HAL_RCC_OscConfig+0xe8>
 8003c64:	e7df      	b.n	8003c26 <HAL_RCC_OscConfig+0xba>
    assert_param(IS_RCC_HSI(RCC_OscInitStruct->HSIState));
 8003c66:	68e3      	ldr	r3, [r4, #12]
 8003c68:	2b01      	cmp	r3, #1
 8003c6a:	d904      	bls.n	8003c76 <HAL_RCC_OscConfig+0x10a>
 8003c6c:	f44f 7195 	mov.w	r1, #298	; 0x12a
 8003c70:	4864      	ldr	r0, [pc, #400]	; (8003e04 <HAL_RCC_OscConfig+0x298>)
 8003c72:	f7fd f84e 	bl	8000d12 <assert_failed>
    assert_param(IS_RCC_CALIBRATION_VALUE(RCC_OscInitStruct->HSICalibrationValue));
 8003c76:	6923      	ldr	r3, [r4, #16]
 8003c78:	2b1f      	cmp	r3, #31
 8003c7a:	d904      	bls.n	8003c86 <HAL_RCC_OscConfig+0x11a>
 8003c7c:	f240 112b 	movw	r1, #299	; 0x12b
 8003c80:	4860      	ldr	r0, [pc, #384]	; (8003e04 <HAL_RCC_OscConfig+0x298>)
 8003c82:	f7fd f846 	bl	8000d12 <assert_failed>
    if((__HAL_RCC_GET_SYSCLK_SOURCE() == RCC_CFGR_SWS_HSI) ||\
 8003c86:	4b60      	ldr	r3, [pc, #384]	; (8003e08 <HAL_RCC_OscConfig+0x29c>)
 8003c88:	689a      	ldr	r2, [r3, #8]
 8003c8a:	f012 0f0c 	tst.w	r2, #12
 8003c8e:	d007      	beq.n	8003ca0 <HAL_RCC_OscConfig+0x134>
      ((__HAL_RCC_GET_SYSCLK_SOURCE() == RCC_CFGR_SWS_PLL) && ((RCC->PLLCFGR & RCC_PLLCFGR_PLLSRC) == RCC_PLLCFGR_PLLSRC_HSI)))
 8003c90:	689a      	ldr	r2, [r3, #8]
 8003c92:	f002 020c 	and.w	r2, r2, #12
    if((__HAL_RCC_GET_SYSCLK_SOURCE() == RCC_CFGR_SWS_HSI) ||\
 8003c96:	2a08      	cmp	r2, #8
 8003c98:	d116      	bne.n	8003cc8 <HAL_RCC_OscConfig+0x15c>
      ((__HAL_RCC_GET_SYSCLK_SOURCE() == RCC_CFGR_SWS_PLL) && ((RCC->PLLCFGR & RCC_PLLCFGR_PLLSRC) == RCC_PLLCFGR_PLLSRC_HSI)))
 8003c9a:	685b      	ldr	r3, [r3, #4]
 8003c9c:	025e      	lsls	r6, r3, #9
 8003c9e:	d413      	bmi.n	8003cc8 <HAL_RCC_OscConfig+0x15c>
      if((__HAL_RCC_GET_FLAG(RCC_FLAG_HSIRDY) != RESET) && (RCC_OscInitStruct->HSIState != RCC_HSI_ON))
 8003ca0:	4b59      	ldr	r3, [pc, #356]	; (8003e08 <HAL_RCC_OscConfig+0x29c>)
 8003ca2:	681a      	ldr	r2, [r3, #0]
 8003ca4:	0795      	lsls	r5, r2, #30
 8003ca6:	d502      	bpl.n	8003cae <HAL_RCC_OscConfig+0x142>
 8003ca8:	68e2      	ldr	r2, [r4, #12]
 8003caa:	2a01      	cmp	r2, #1
 8003cac:	d1a3      	bne.n	8003bf6 <HAL_RCC_OscConfig+0x8a>
        __HAL_RCC_HSI_CALIBRATIONVALUE_ADJUST(RCC_OscInitStruct->HSICalibrationValue);
 8003cae:	6818      	ldr	r0, [r3, #0]
 8003cb0:	22f8      	movs	r2, #248	; 0xf8
 8003cb2:	fa92 f2a2 	rbit	r2, r2
 8003cb6:	fab2 f182 	clz	r1, r2
 8003cba:	6922      	ldr	r2, [r4, #16]
 8003cbc:	408a      	lsls	r2, r1
 8003cbe:	f020 01f8 	bic.w	r1, r0, #248	; 0xf8
 8003cc2:	430a      	orrs	r2, r1
 8003cc4:	601a      	str	r2, [r3, #0]
      if((__HAL_RCC_GET_FLAG(RCC_FLAG_HSIRDY) != RESET) && (RCC_OscInitStruct->HSIState != RCC_HSI_ON))
 8003cc6:	e760      	b.n	8003b8a <HAL_RCC_OscConfig+0x1e>
      if((RCC_OscInitStruct->HSIState)!= RCC_HSI_OFF)
 8003cc8:	68e2      	ldr	r2, [r4, #12]
 8003cca:	4b50      	ldr	r3, [pc, #320]	; (8003e0c <HAL_RCC_OscConfig+0x2a0>)
 8003ccc:	b1da      	cbz	r2, 8003d06 <HAL_RCC_OscConfig+0x19a>
        __HAL_RCC_HSI_ENABLE();
 8003cce:	2201      	movs	r2, #1
 8003cd0:	601a      	str	r2, [r3, #0]
        tickstart = HAL_GetTick();
 8003cd2:	f7fd fe9d 	bl	8001a10 <HAL_GetTick>
        while(__HAL_RCC_GET_FLAG(RCC_FLAG_HSIRDY) == RESET)
 8003cd6:	4d4c      	ldr	r5, [pc, #304]	; (8003e08 <HAL_RCC_OscConfig+0x29c>)
        tickstart = HAL_GetTick();
 8003cd8:	4606      	mov	r6, r0
        while(__HAL_RCC_GET_FLAG(RCC_FLAG_HSIRDY) == RESET)
 8003cda:	682b      	ldr	r3, [r5, #0]
 8003cdc:	0798      	lsls	r0, r3, #30
 8003cde:	d50c      	bpl.n	8003cfa <HAL_RCC_OscConfig+0x18e>
        __HAL_RCC_HSI_CALIBRATIONVALUE_ADJUST(RCC_OscInitStruct->HSICalibrationValue);
 8003ce0:	6829      	ldr	r1, [r5, #0]
 8003ce2:	23f8      	movs	r3, #248	; 0xf8
 8003ce4:	fa93 f3a3 	rbit	r3, r3
 8003ce8:	fab3 f283 	clz	r2, r3
 8003cec:	6923      	ldr	r3, [r4, #16]
 8003cee:	4093      	lsls	r3, r2
 8003cf0:	f021 02f8 	bic.w	r2, r1, #248	; 0xf8
 8003cf4:	4313      	orrs	r3, r2
 8003cf6:	602b      	str	r3, [r5, #0]
 8003cf8:	e747      	b.n	8003b8a <HAL_RCC_OscConfig+0x1e>
          if((HAL_GetTick() - tickstart ) > HSI_TIMEOUT_VALUE)
 8003cfa:	f7fd fe89 	bl	8001a10 <HAL_GetTick>
 8003cfe:	1b80      	subs	r0, r0, r6
 8003d00:	2802      	cmp	r0, #2
 8003d02:	d9ea      	bls.n	8003cda <HAL_RCC_OscConfig+0x16e>
 8003d04:	e78f      	b.n	8003c26 <HAL_RCC_OscConfig+0xba>
        __HAL_RCC_HSI_DISABLE();
 8003d06:	601a      	str	r2, [r3, #0]
        tickstart = HAL_GetTick();
 8003d08:	f7fd fe82 	bl	8001a10 <HAL_GetTick>
        while(__HAL_RCC_GET_FLAG(RCC_FLAG_HSIRDY) != RESET)
 8003d0c:	4d3e      	ldr	r5, [pc, #248]	; (8003e08 <HAL_RCC_OscConfig+0x29c>)
        tickstart = HAL_GetTick();
 8003d0e:	4606      	mov	r6, r0
        while(__HAL_RCC_GET_FLAG(RCC_FLAG_HSIRDY) != RESET)
 8003d10:	682b      	ldr	r3, [r5, #0]
 8003d12:	0799      	lsls	r1, r3, #30
 8003d14:	f57f af39 	bpl.w	8003b8a <HAL_RCC_OscConfig+0x1e>
          if((HAL_GetTick() - tickstart ) > HSI_TIMEOUT_VALUE)
 8003d18:	f7fd fe7a 	bl	8001a10 <HAL_GetTick>
 8003d1c:	1b80      	subs	r0, r0, r6
 8003d1e:	2802      	cmp	r0, #2
 8003d20:	d9f6      	bls.n	8003d10 <HAL_RCC_OscConfig+0x1a4>
 8003d22:	e780      	b.n	8003c26 <HAL_RCC_OscConfig+0xba>
    assert_param(IS_RCC_LSI(RCC_OscInitStruct->LSIState));
 8003d24:	6963      	ldr	r3, [r4, #20]
 8003d26:	2b01      	cmp	r3, #1
 8003d28:	d904      	bls.n	8003d34 <HAL_RCC_OscConfig+0x1c8>
 8003d2a:	f240 116b 	movw	r1, #363	; 0x16b
 8003d2e:	4835      	ldr	r0, [pc, #212]	; (8003e04 <HAL_RCC_OscConfig+0x298>)
 8003d30:	f7fc ffef 	bl	8000d12 <assert_failed>
    if((RCC_OscInitStruct->LSIState)!= RCC_LSI_OFF)
 8003d34:	6962      	ldr	r2, [r4, #20]
 8003d36:	4b36      	ldr	r3, [pc, #216]	; (8003e10 <HAL_RCC_OscConfig+0x2a4>)
 8003d38:	b17a      	cbz	r2, 8003d5a <HAL_RCC_OscConfig+0x1ee>
      __HAL_RCC_LSI_ENABLE();
 8003d3a:	2201      	movs	r2, #1
 8003d3c:	601a      	str	r2, [r3, #0]
      tickstart = HAL_GetTick();
 8003d3e:	f7fd fe67 	bl	8001a10 <HAL_GetTick>
      while(__HAL_RCC_GET_FLAG(RCC_FLAG_LSIRDY) == RESET)
 8003d42:	4d31      	ldr	r5, [pc, #196]	; (8003e08 <HAL_RCC_OscConfig+0x29c>)
      tickstart = HAL_GetTick();
 8003d44:	4606      	mov	r6, r0
      while(__HAL_RCC_GET_FLAG(RCC_FLAG_LSIRDY) == RESET)
 8003d46:	6f6b      	ldr	r3, [r5, #116]	; 0x74
 8003d48:	079f      	lsls	r7, r3, #30
 8003d4a:	f53f af22 	bmi.w	8003b92 <HAL_RCC_OscConfig+0x26>
        if((HAL_GetTick() - tickstart ) > LSI_TIMEOUT_VALUE)
 8003d4e:	f7fd fe5f 	bl	8001a10 <HAL_GetTick>
 8003d52:	1b80      	subs	r0, r0, r6
 8003d54:	2802      	cmp	r0, #2
 8003d56:	d9f6      	bls.n	8003d46 <HAL_RCC_OscConfig+0x1da>
 8003d58:	e765      	b.n	8003c26 <HAL_RCC_OscConfig+0xba>
      __HAL_RCC_LSI_DISABLE();
 8003d5a:	601a      	str	r2, [r3, #0]
      tickstart = HAL_GetTick();
 8003d5c:	f7fd fe58 	bl	8001a10 <HAL_GetTick>
      while(__HAL_RCC_GET_FLAG(RCC_FLAG_LSIRDY) != RESET)
 8003d60:	4d29      	ldr	r5, [pc, #164]	; (8003e08 <HAL_RCC_OscConfig+0x29c>)
      tickstart = HAL_GetTick();
 8003d62:	4606      	mov	r6, r0
      while(__HAL_RCC_GET_FLAG(RCC_FLAG_LSIRDY) != RESET)
 8003d64:	6f6b      	ldr	r3, [r5, #116]	; 0x74
 8003d66:	0798      	lsls	r0, r3, #30
 8003d68:	f57f af13 	bpl.w	8003b92 <HAL_RCC_OscConfig+0x26>
        if((HAL_GetTick() - tickstart ) > LSI_TIMEOUT_VALUE)
 8003d6c:	f7fd fe50 	bl	8001a10 <HAL_GetTick>
 8003d70:	1b80      	subs	r0, r0, r6
 8003d72:	2802      	cmp	r0, #2
 8003d74:	d9f6      	bls.n	8003d64 <HAL_RCC_OscConfig+0x1f8>
 8003d76:	e756      	b.n	8003c26 <HAL_RCC_OscConfig+0xba>
    assert_param(IS_RCC_LSE(RCC_OscInitStruct->LSEState));
 8003d78:	68a3      	ldr	r3, [r4, #8]
 8003d7a:	2b01      	cmp	r3, #1
 8003d7c:	d906      	bls.n	8003d8c <HAL_RCC_OscConfig+0x220>
 8003d7e:	2b05      	cmp	r3, #5
 8003d80:	d004      	beq.n	8003d8c <HAL_RCC_OscConfig+0x220>
 8003d82:	f240 1195 	movw	r1, #405	; 0x195
 8003d86:	481f      	ldr	r0, [pc, #124]	; (8003e04 <HAL_RCC_OscConfig+0x298>)
 8003d88:	f7fc ffc3 	bl	8000d12 <assert_failed>
    __HAL_RCC_PWR_CLK_ENABLE();
 8003d8c:	2300      	movs	r3, #0
 8003d8e:	9301      	str	r3, [sp, #4]
 8003d90:	4b1d      	ldr	r3, [pc, #116]	; (8003e08 <HAL_RCC_OscConfig+0x29c>)
    PWR->CR |= PWR_CR_DBP;
 8003d92:	4d20      	ldr	r5, [pc, #128]	; (8003e14 <HAL_RCC_OscConfig+0x2a8>)
    __HAL_RCC_PWR_CLK_ENABLE();
 8003d94:	6c1a      	ldr	r2, [r3, #64]	; 0x40
 8003d96:	f042 5280 	orr.w	r2, r2, #268435456	; 0x10000000
 8003d9a:	641a      	str	r2, [r3, #64]	; 0x40
 8003d9c:	6c1b      	ldr	r3, [r3, #64]	; 0x40
 8003d9e:	f003 5380 	and.w	r3, r3, #268435456	; 0x10000000
 8003da2:	9301      	str	r3, [sp, #4]
 8003da4:	9b01      	ldr	r3, [sp, #4]
    PWR->CR |= PWR_CR_DBP;
 8003da6:	682b      	ldr	r3, [r5, #0]
 8003da8:	f443 7380 	orr.w	r3, r3, #256	; 0x100
 8003dac:	602b      	str	r3, [r5, #0]
    tickstart = HAL_GetTick();
 8003dae:	f7fd fe2f 	bl	8001a10 <HAL_GetTick>
 8003db2:	4606      	mov	r6, r0
    while((PWR->CR & PWR_CR_DBP) == RESET)
 8003db4:	682b      	ldr	r3, [r5, #0]
 8003db6:	05d9      	lsls	r1, r3, #23
 8003db8:	d517      	bpl.n	8003dea <HAL_RCC_OscConfig+0x27e>
    __HAL_RCC_LSE_CONFIG(RCC_OscInitStruct->LSEState);
 8003dba:	68a3      	ldr	r3, [r4, #8]
 8003dbc:	4d12      	ldr	r5, [pc, #72]	; (8003e08 <HAL_RCC_OscConfig+0x29c>)
 8003dbe:	2b01      	cmp	r3, #1
 8003dc0:	d119      	bne.n	8003df6 <HAL_RCC_OscConfig+0x28a>
 8003dc2:	6f2b      	ldr	r3, [r5, #112]	; 0x70
 8003dc4:	f043 0301 	orr.w	r3, r3, #1
 8003dc8:	672b      	str	r3, [r5, #112]	; 0x70
      tickstart = HAL_GetTick();
 8003dca:	f7fd fe21 	bl	8001a10 <HAL_GetTick>
      while(__HAL_RCC_GET_FLAG(RCC_FLAG_LSERDY) == RESET)
 8003dce:	4d0e      	ldr	r5, [pc, #56]	; (8003e08 <HAL_RCC_OscConfig+0x29c>)
      tickstart = HAL_GetTick();
 8003dd0:	4606      	mov	r6, r0
        if((HAL_GetTick() - tickstart ) > RCC_LSE_TIMEOUT_VALUE)
 8003dd2:	f241 3788 	movw	r7, #5000	; 0x1388
      while(__HAL_RCC_GET_FLAG(RCC_FLAG_LSERDY) == RESET)
 8003dd6:	6f2b      	ldr	r3, [r5, #112]	; 0x70
 8003dd8:	079a      	lsls	r2, r3, #30
 8003dda:	f53f aede 	bmi.w	8003b9a <HAL_RCC_OscConfig+0x2e>
        if((HAL_GetTick() - tickstart ) > RCC_LSE_TIMEOUT_VALUE)
 8003dde:	f7fd fe17 	bl	8001a10 <HAL_GetTick>
 8003de2:	1b80      	subs	r0, r0, r6
 8003de4:	42b8      	cmp	r0, r7
 8003de6:	d9f6      	bls.n	8003dd6 <HAL_RCC_OscConfig+0x26a>
 8003de8:	e71d      	b.n	8003c26 <HAL_RCC_OscConfig+0xba>
      if((HAL_GetTick() - tickstart ) > RCC_DBP_TIMEOUT_VALUE)
 8003dea:	f7fd fe11 	bl	8001a10 <HAL_GetTick>
 8003dee:	1b80      	subs	r0, r0, r6
 8003df0:	2802      	cmp	r0, #2
 8003df2:	d9df      	bls.n	8003db4 <HAL_RCC_OscConfig+0x248>
 8003df4:	e717      	b.n	8003c26 <HAL_RCC_OscConfig+0xba>
    __HAL_RCC_LSE_CONFIG(RCC_OscInitStruct->LSEState);
 8003df6:	2b05      	cmp	r3, #5
 8003df8:	d10e      	bne.n	8003e18 <HAL_RCC_OscConfig+0x2ac>
 8003dfa:	6f2b      	ldr	r3, [r5, #112]	; 0x70
 8003dfc:	f043 0304 	orr.w	r3, r3, #4
 8003e00:	672b      	str	r3, [r5, #112]	; 0x70
 8003e02:	e7de      	b.n	8003dc2 <HAL_RCC_OscConfig+0x256>
 8003e04:	080083d3 	.word	0x080083d3
 8003e08:	40023800 	.word	0x40023800
 8003e0c:	42470000 	.word	0x42470000
 8003e10:	42470e80 	.word	0x42470e80
 8003e14:	40007000 	.word	0x40007000
 8003e18:	6f2a      	ldr	r2, [r5, #112]	; 0x70
 8003e1a:	f022 0201 	bic.w	r2, r2, #1
 8003e1e:	672a      	str	r2, [r5, #112]	; 0x70
 8003e20:	6f2a      	ldr	r2, [r5, #112]	; 0x70
 8003e22:	f022 0204 	bic.w	r2, r2, #4
 8003e26:	672a      	str	r2, [r5, #112]	; 0x70
    if((RCC_OscInitStruct->LSEState) != RCC_LSE_OFF)
 8003e28:	2b00      	cmp	r3, #0
 8003e2a:	d1ce      	bne.n	8003dca <HAL_RCC_OscConfig+0x25e>
      tickstart = HAL_GetTick();
 8003e2c:	f7fd fdf0 	bl	8001a10 <HAL_GetTick>
        if((HAL_GetTick() - tickstart ) > RCC_LSE_TIMEOUT_VALUE)
 8003e30:	f241 3788 	movw	r7, #5000	; 0x1388
      tickstart = HAL_GetTick();
 8003e34:	4606      	mov	r6, r0
      while(__HAL_RCC_GET_FLAG(RCC_FLAG_LSERDY) != RESET)
 8003e36:	6f2b      	ldr	r3, [r5, #112]	; 0x70
 8003e38:	079b      	lsls	r3, r3, #30
 8003e3a:	f57f aeae 	bpl.w	8003b9a <HAL_RCC_OscConfig+0x2e>
        if((HAL_GetTick() - tickstart ) > RCC_LSE_TIMEOUT_VALUE)
 8003e3e:	f7fd fde7 	bl	8001a10 <HAL_GetTick>
 8003e42:	1b80      	subs	r0, r0, r6
 8003e44:	42b8      	cmp	r0, r7
 8003e46:	d9f6      	bls.n	8003e36 <HAL_RCC_OscConfig+0x2ca>
 8003e48:	e6ed      	b.n	8003c26 <HAL_RCC_OscConfig+0xba>
    if(__HAL_RCC_GET_SYSCLK_SOURCE() != RCC_CFGR_SWS_PLL)
 8003e4a:	4e46      	ldr	r6, [pc, #280]	; (8003f64 <HAL_RCC_OscConfig+0x3f8>)
 8003e4c:	68b3      	ldr	r3, [r6, #8]
 8003e4e:	f003 030c 	and.w	r3, r3, #12
 8003e52:	2b08      	cmp	r3, #8
 8003e54:	f43f aecf 	beq.w	8003bf6 <HAL_RCC_OscConfig+0x8a>
      if((RCC_OscInitStruct->PLL.PLLState) == RCC_PLL_ON)
 8003e58:	2a02      	cmp	r2, #2
 8003e5a:	4d43      	ldr	r5, [pc, #268]	; (8003f68 <HAL_RCC_OscConfig+0x3fc>)
 8003e5c:	d172      	bne.n	8003f44 <HAL_RCC_OscConfig+0x3d8>
        assert_param(IS_RCC_PLLSOURCE(RCC_OscInitStruct->PLL.PLLSource));
 8003e5e:	69e3      	ldr	r3, [r4, #28]
 8003e60:	f433 0380 	bics.w	r3, r3, #4194304	; 0x400000
 8003e64:	d004      	beq.n	8003e70 <HAL_RCC_OscConfig+0x304>
 8003e66:	f240 11d3 	movw	r1, #467	; 0x1d3
 8003e6a:	4840      	ldr	r0, [pc, #256]	; (8003f6c <HAL_RCC_OscConfig+0x400>)
 8003e6c:	f7fc ff51 	bl	8000d12 <assert_failed>
        assert_param(IS_RCC_PLLM_VALUE(RCC_OscInitStruct->PLL.PLLM));
 8003e70:	6a23      	ldr	r3, [r4, #32]
 8003e72:	2b3f      	cmp	r3, #63	; 0x3f
 8003e74:	d904      	bls.n	8003e80 <HAL_RCC_OscConfig+0x314>
 8003e76:	f44f 71ea 	mov.w	r1, #468	; 0x1d4
 8003e7a:	483c      	ldr	r0, [pc, #240]	; (8003f6c <HAL_RCC_OscConfig+0x400>)
 8003e7c:	f7fc ff49 	bl	8000d12 <assert_failed>
        assert_param(IS_RCC_PLLN_VALUE(RCC_OscInitStruct->PLL.PLLN));
 8003e80:	6a63      	ldr	r3, [r4, #36]	; 0x24
 8003e82:	3b32      	subs	r3, #50	; 0x32
 8003e84:	f5b3 7fbf 	cmp.w	r3, #382	; 0x17e
 8003e88:	d904      	bls.n	8003e94 <HAL_RCC_OscConfig+0x328>
 8003e8a:	f240 11d5 	movw	r1, #469	; 0x1d5
 8003e8e:	4837      	ldr	r0, [pc, #220]	; (8003f6c <HAL_RCC_OscConfig+0x400>)
 8003e90:	f7fc ff3f 	bl	8000d12 <assert_failed>
        assert_param(IS_RCC_PLLP_VALUE(RCC_OscInitStruct->PLL.PLLP));
 8003e94:	6aa2      	ldr	r2, [r4, #40]	; 0x28
 8003e96:	2a08      	cmp	r2, #8
 8003e98:	d804      	bhi.n	8003ea4 <HAL_RCC_OscConfig+0x338>
 8003e9a:	f44f 73aa 	mov.w	r3, #340	; 0x154
 8003e9e:	40d3      	lsrs	r3, r2
 8003ea0:	07d8      	lsls	r0, r3, #31
 8003ea2:	d404      	bmi.n	8003eae <HAL_RCC_OscConfig+0x342>
 8003ea4:	f44f 71eb 	mov.w	r1, #470	; 0x1d6
 8003ea8:	4830      	ldr	r0, [pc, #192]	; (8003f6c <HAL_RCC_OscConfig+0x400>)
 8003eaa:	f7fc ff32 	bl	8000d12 <assert_failed>
        assert_param(IS_RCC_PLLQ_VALUE(RCC_OscInitStruct->PLL.PLLQ));
 8003eae:	6ae3      	ldr	r3, [r4, #44]	; 0x2c
 8003eb0:	3b02      	subs	r3, #2
 8003eb2:	2b0d      	cmp	r3, #13
 8003eb4:	d904      	bls.n	8003ec0 <HAL_RCC_OscConfig+0x354>
 8003eb6:	f240 11d7 	movw	r1, #471	; 0x1d7
 8003eba:	482c      	ldr	r0, [pc, #176]	; (8003f6c <HAL_RCC_OscConfig+0x400>)
 8003ebc:	f7fc ff29 	bl	8000d12 <assert_failed>
        __HAL_RCC_PLL_DISABLE();
 8003ec0:	2300      	movs	r3, #0
 8003ec2:	602b      	str	r3, [r5, #0]
        tickstart = HAL_GetTick();
 8003ec4:	f7fd fda4 	bl	8001a10 <HAL_GetTick>
        while(__HAL_RCC_GET_FLAG(RCC_FLAG_PLLRDY) != RESET)
 8003ec8:	4e26      	ldr	r6, [pc, #152]	; (8003f64 <HAL_RCC_OscConfig+0x3f8>)
        tickstart = HAL_GetTick();
 8003eca:	4607      	mov	r7, r0
        while(__HAL_RCC_GET_FLAG(RCC_FLAG_PLLRDY) != RESET)
 8003ecc:	6833      	ldr	r3, [r6, #0]
 8003ece:	0199      	lsls	r1, r3, #6
 8003ed0:	d432      	bmi.n	8003f38 <HAL_RCC_OscConfig+0x3cc>
 8003ed2:	f647 77c0 	movw	r7, #32704	; 0x7fc0
 8003ed6:	fa97 f7a7 	rbit	r7, r7
 8003eda:	f44f 3240 	mov.w	r2, #196608	; 0x30000
        WRITE_REG(RCC->PLLCFGR, (RCC_OscInitStruct->PLL.PLLSource                                            | \
 8003ede:	fab7 f787 	clz	r7, r7
 8003ee2:	fa92 f2a2 	rbit	r2, r2
 8003ee6:	f04f 6170 	mov.w	r1, #251658240	; 0xf000000
 8003eea:	fab2 f082 	clz	r0, r2
 8003eee:	fa91 f1a1 	rbit	r1, r1
 8003ef2:	6a22      	ldr	r2, [r4, #32]
 8003ef4:	69e3      	ldr	r3, [r4, #28]
 8003ef6:	4313      	orrs	r3, r2
 8003ef8:	6a62      	ldr	r2, [r4, #36]	; 0x24
 8003efa:	fa02 f707 	lsl.w	r7, r2, r7
 8003efe:	6aa2      	ldr	r2, [r4, #40]	; 0x28
 8003f00:	0852      	lsrs	r2, r2, #1
 8003f02:	3a01      	subs	r2, #1
 8003f04:	4082      	lsls	r2, r0
 8003f06:	433b      	orrs	r3, r7
 8003f08:	4313      	orrs	r3, r2
 8003f0a:	6ae2      	ldr	r2, [r4, #44]	; 0x2c
        while(__HAL_RCC_GET_FLAG(RCC_FLAG_PLLRDY) == RESET)
 8003f0c:	4c15      	ldr	r4, [pc, #84]	; (8003f64 <HAL_RCC_OscConfig+0x3f8>)
        WRITE_REG(RCC->PLLCFGR, (RCC_OscInitStruct->PLL.PLLSource                                            | \
 8003f0e:	fab1 f181 	clz	r1, r1
 8003f12:	fa02 f101 	lsl.w	r1, r2, r1
 8003f16:	430b      	orrs	r3, r1
 8003f18:	6073      	str	r3, [r6, #4]
        __HAL_RCC_PLL_ENABLE();
 8003f1a:	2301      	movs	r3, #1
 8003f1c:	602b      	str	r3, [r5, #0]
        tickstart = HAL_GetTick();
 8003f1e:	f7fd fd77 	bl	8001a10 <HAL_GetTick>
 8003f22:	4605      	mov	r5, r0
        while(__HAL_RCC_GET_FLAG(RCC_FLAG_PLLRDY) == RESET)
 8003f24:	6823      	ldr	r3, [r4, #0]
 8003f26:	019a      	lsls	r2, r3, #6
 8003f28:	f53f ae43 	bmi.w	8003bb2 <HAL_RCC_OscConfig+0x46>
          if((HAL_GetTick() - tickstart ) > PLL_TIMEOUT_VALUE)
 8003f2c:	f7fd fd70 	bl	8001a10 <HAL_GetTick>
 8003f30:	1b40      	subs	r0, r0, r5
 8003f32:	2802      	cmp	r0, #2
 8003f34:	d9f6      	bls.n	8003f24 <HAL_RCC_OscConfig+0x3b8>
 8003f36:	e676      	b.n	8003c26 <HAL_RCC_OscConfig+0xba>
          if((HAL_GetTick() - tickstart ) > PLL_TIMEOUT_VALUE)
 8003f38:	f7fd fd6a 	bl	8001a10 <HAL_GetTick>
 8003f3c:	1bc0      	subs	r0, r0, r7
 8003f3e:	2802      	cmp	r0, #2
 8003f40:	d9c4      	bls.n	8003ecc <HAL_RCC_OscConfig+0x360>
 8003f42:	e670      	b.n	8003c26 <HAL_RCC_OscConfig+0xba>
        __HAL_RCC_PLL_DISABLE();
 8003f44:	2300      	movs	r3, #0
 8003f46:	602b      	str	r3, [r5, #0]
        tickstart = HAL_GetTick();
 8003f48:	f7fd fd62 	bl	8001a10 <HAL_GetTick>
 8003f4c:	4604      	mov	r4, r0
        while(__HAL_RCC_GET_FLAG(RCC_FLAG_PLLRDY) != RESET)
 8003f4e:	6833      	ldr	r3, [r6, #0]
 8003f50:	019b      	lsls	r3, r3, #6
 8003f52:	f57f ae2e 	bpl.w	8003bb2 <HAL_RCC_OscConfig+0x46>
          if((HAL_GetTick() - tickstart ) > PLL_TIMEOUT_VALUE)
 8003f56:	f7fd fd5b 	bl	8001a10 <HAL_GetTick>
 8003f5a:	1b00      	subs	r0, r0, r4
 8003f5c:	2802      	cmp	r0, #2
 8003f5e:	d9f6      	bls.n	8003f4e <HAL_RCC_OscConfig+0x3e2>
 8003f60:	e661      	b.n	8003c26 <HAL_RCC_OscConfig+0xba>
 8003f62:	bf00      	nop
 8003f64:	40023800 	.word	0x40023800
 8003f68:	42470060 	.word	0x42470060
 8003f6c:	080083d3 	.word	0x080083d3

08003f70 <HAL_RCC_GetSysClockFreq>:
{
  uint32_t pllm = 0U, pllvco = 0U, pllp = 0U;
  uint32_t sysclockfreq = 0U;

  /* Get SYSCLK source -------------------------------------------------------*/
  switch (RCC->CFGR & RCC_CFGR_SWS)
 8003f70:	4a19      	ldr	r2, [pc, #100]	; (8003fd8 <HAL_RCC_GetSysClockFreq+0x68>)
 8003f72:	6893      	ldr	r3, [r2, #8]
 8003f74:	f003 030c 	and.w	r3, r3, #12
 8003f78:	2b04      	cmp	r3, #4
{
 8003f7a:	b510      	push	{r4, lr}
  switch (RCC->CFGR & RCC_CFGR_SWS)
 8003f7c:	d003      	beq.n	8003f86 <HAL_RCC_GetSysClockFreq+0x16>
 8003f7e:	2b08      	cmp	r3, #8
 8003f80:	d003      	beq.n	8003f8a <HAL_RCC_GetSysClockFreq+0x1a>
  {
    case RCC_CFGR_SWS_HSI:  /* HSI used as system clock source */
    {
      sysclockfreq = HSI_VALUE;
 8003f82:	4816      	ldr	r0, [pc, #88]	; (8003fdc <HAL_RCC_GetSysClockFreq+0x6c>)
      sysclockfreq = HSI_VALUE;
      break;
    }
  }
  return sysclockfreq;
}
 8003f84:	bd10      	pop	{r4, pc}
      sysclockfreq = HSE_VALUE;
 8003f86:	4816      	ldr	r0, [pc, #88]	; (8003fe0 <HAL_RCC_GetSysClockFreq+0x70>)
 8003f88:	bd10      	pop	{r4, pc}
      pllm = RCC->PLLCFGR & RCC_PLLCFGR_PLLM;
 8003f8a:	6851      	ldr	r1, [r2, #4]
      if(__HAL_RCC_GET_PLL_OSCSOURCE() != RCC_PLLSOURCE_HSI)
 8003f8c:	6853      	ldr	r3, [r2, #4]
      pllm = RCC->PLLCFGR & RCC_PLLCFGR_PLLM;
 8003f8e:	f001 013f 	and.w	r1, r1, #63	; 0x3f
      if(__HAL_RCC_GET_PLL_OSCSOURCE() != RCC_PLLSOURCE_HSI)
 8003f92:	f413 0f80 	tst.w	r3, #4194304	; 0x400000
 8003f96:	f647 74c0 	movw	r4, #32704	; 0x7fc0
        pllvco = ((HSE_VALUE / pllm) * ((RCC->PLLCFGR & RCC_PLLCFGR_PLLN) >> POSITION_VAL(RCC_PLLCFGR_PLLN)));
 8003f9a:	6853      	ldr	r3, [r2, #4]
 8003f9c:	fa94 f0a4 	rbit	r0, r4
 8003fa0:	fab0 f080 	clz	r0, r0
 8003fa4:	ea03 0304 	and.w	r3, r3, r4
 8003fa8:	fa23 f300 	lsr.w	r3, r3, r0
 8003fac:	bf14      	ite	ne
 8003fae:	480c      	ldrne	r0, [pc, #48]	; (8003fe0 <HAL_RCC_GetSysClockFreq+0x70>)
        pllvco = ((HSI_VALUE / pllm) * ((RCC->PLLCFGR & RCC_PLLCFGR_PLLN) >> POSITION_VAL(RCC_PLLCFGR_PLLN)));    
 8003fb0:	480a      	ldreq	r0, [pc, #40]	; (8003fdc <HAL_RCC_GetSysClockFreq+0x6c>)
 8003fb2:	fbb0 f0f1 	udiv	r0, r0, r1
 8003fb6:	4358      	muls	r0, r3
      pllp = ((((RCC->PLLCFGR & RCC_PLLCFGR_PLLP) >> POSITION_VAL(RCC_PLLCFGR_PLLP)) + 1U) *2U);
 8003fb8:	4b07      	ldr	r3, [pc, #28]	; (8003fd8 <HAL_RCC_GetSysClockFreq+0x68>)
 8003fba:	f44f 3240 	mov.w	r2, #196608	; 0x30000
 8003fbe:	685b      	ldr	r3, [r3, #4]
 8003fc0:	fa92 f2a2 	rbit	r2, r2
 8003fc4:	fab2 f282 	clz	r2, r2
 8003fc8:	f403 3340 	and.w	r3, r3, #196608	; 0x30000
 8003fcc:	40d3      	lsrs	r3, r2
 8003fce:	3301      	adds	r3, #1
 8003fd0:	005b      	lsls	r3, r3, #1
      sysclockfreq = pllvco/pllp;
 8003fd2:	fbb0 f0f3 	udiv	r0, r0, r3
 8003fd6:	bd10      	pop	{r4, pc}
 8003fd8:	40023800 	.word	0x40023800
 8003fdc:	00f42400 	.word	0x00f42400
 8003fe0:	007a1200 	.word	0x007a1200

08003fe4 <HAL_RCC_ClockConfig>:
  assert_param(IS_RCC_CLOCKTYPE(RCC_ClkInitStruct->ClockType));
 8003fe4:	6803      	ldr	r3, [r0, #0]
 8003fe6:	3b01      	subs	r3, #1
 8003fe8:	2b0e      	cmp	r3, #14
{
 8003fea:	e92d 41f0 	stmdb	sp!, {r4, r5, r6, r7, r8, lr}
 8003fee:	4604      	mov	r4, r0
 8003ff0:	460e      	mov	r6, r1
  assert_param(IS_RCC_CLOCKTYPE(RCC_ClkInitStruct->ClockType));
 8003ff2:	d904      	bls.n	8003ffe <HAL_RCC_ClockConfig+0x1a>
 8003ff4:	f240 2135 	movw	r1, #565	; 0x235
 8003ff8:	487d      	ldr	r0, [pc, #500]	; (80041f0 <HAL_RCC_ClockConfig+0x20c>)
 8003ffa:	f7fc fe8a 	bl	8000d12 <assert_failed>
  assert_param(IS_FLASH_LATENCY(FLatency));
 8003ffe:	2e0f      	cmp	r6, #15
 8004000:	d904      	bls.n	800400c <HAL_RCC_ClockConfig+0x28>
 8004002:	f240 2136 	movw	r1, #566	; 0x236
 8004006:	487a      	ldr	r0, [pc, #488]	; (80041f0 <HAL_RCC_ClockConfig+0x20c>)
 8004008:	f7fc fe83 	bl	8000d12 <assert_failed>
  if(FLatency > (FLASH->ACR & FLASH_ACR_LATENCY))
 800400c:	4b79      	ldr	r3, [pc, #484]	; (80041f4 <HAL_RCC_ClockConfig+0x210>)
 800400e:	681a      	ldr	r2, [r3, #0]
 8004010:	f002 020f 	and.w	r2, r2, #15
 8004014:	4296      	cmp	r6, r2
 8004016:	d843      	bhi.n	80040a0 <HAL_RCC_ClockConfig+0xbc>
  if(((RCC_ClkInitStruct->ClockType) & RCC_CLOCKTYPE_HCLK) == RCC_CLOCKTYPE_HCLK)
 8004018:	6823      	ldr	r3, [r4, #0]
 800401a:	0798      	lsls	r0, r3, #30
 800401c:	d44a      	bmi.n	80040b4 <HAL_RCC_ClockConfig+0xd0>
  if(((RCC_ClkInitStruct->ClockType) & RCC_CLOCKTYPE_SYSCLK) == RCC_CLOCKTYPE_SYSCLK)
 800401e:	6823      	ldr	r3, [r4, #0]
 8004020:	07d9      	lsls	r1, r3, #31
 8004022:	d466      	bmi.n	80040f2 <HAL_RCC_ClockConfig+0x10e>
  if(FLatency < (FLASH->ACR & FLASH_ACR_LATENCY))
 8004024:	4b73      	ldr	r3, [pc, #460]	; (80041f4 <HAL_RCC_ClockConfig+0x210>)
 8004026:	681a      	ldr	r2, [r3, #0]
 8004028:	f002 020f 	and.w	r2, r2, #15
 800402c:	4296      	cmp	r6, r2
 800402e:	f0c0 80bc 	bcc.w	80041aa <HAL_RCC_ClockConfig+0x1c6>
  if(((RCC_ClkInitStruct->ClockType) & RCC_CLOCKTYPE_PCLK1) == RCC_CLOCKTYPE_PCLK1)
 8004032:	6823      	ldr	r3, [r4, #0]
 8004034:	075a      	lsls	r2, r3, #29
 8004036:	f100 80c1 	bmi.w	80041bc <HAL_RCC_ClockConfig+0x1d8>
  if(((RCC_ClkInitStruct->ClockType) & RCC_CLOCKTYPE_PCLK2) == RCC_CLOCKTYPE_PCLK2)
 800403a:	6823      	ldr	r3, [r4, #0]
 800403c:	071b      	lsls	r3, r3, #28
 800403e:	d518      	bpl.n	8004072 <HAL_RCC_ClockConfig+0x8e>
    assert_param(IS_RCC_PCLK(RCC_ClkInitStruct->APB2CLKDivider));
 8004040:	6923      	ldr	r3, [r4, #16]
 8004042:	f433 5280 	bics.w	r2, r3, #4096	; 0x1000
 8004046:	d00c      	beq.n	8004062 <HAL_RCC_ClockConfig+0x7e>
 8004048:	f423 6200 	bic.w	r2, r3, #2048	; 0x800
 800404c:	f5b2 5fa0 	cmp.w	r2, #5120	; 0x1400
 8004050:	d007      	beq.n	8004062 <HAL_RCC_ClockConfig+0x7e>
 8004052:	f5b3 5fc0 	cmp.w	r3, #6144	; 0x1800
 8004056:	d004      	beq.n	8004062 <HAL_RCC_ClockConfig+0x7e>
 8004058:	f240 21b9 	movw	r1, #697	; 0x2b9
 800405c:	4864      	ldr	r0, [pc, #400]	; (80041f0 <HAL_RCC_ClockConfig+0x20c>)
 800405e:	f7fc fe58 	bl	8000d12 <assert_failed>
    MODIFY_REG(RCC->CFGR, RCC_CFGR_PPRE2, ((RCC_ClkInitStruct->APB2CLKDivider) << 3U));
 8004062:	4a65      	ldr	r2, [pc, #404]	; (80041f8 <HAL_RCC_ClockConfig+0x214>)
 8004064:	6921      	ldr	r1, [r4, #16]
 8004066:	6893      	ldr	r3, [r2, #8]
 8004068:	f423 4360 	bic.w	r3, r3, #57344	; 0xe000
 800406c:	ea43 03c1 	orr.w	r3, r3, r1, lsl #3
 8004070:	6093      	str	r3, [r2, #8]
  SystemCoreClock = HAL_RCC_GetSysClockFreq() >> AHBPrescTable[(RCC->CFGR & RCC_CFGR_HPRE)>> POSITION_VAL(RCC_CFGR_HPRE)];
 8004072:	f7ff ff7d 	bl	8003f70 <HAL_RCC_GetSysClockFreq>
 8004076:	4b60      	ldr	r3, [pc, #384]	; (80041f8 <HAL_RCC_ClockConfig+0x214>)
 8004078:	22f0      	movs	r2, #240	; 0xf0
 800407a:	689b      	ldr	r3, [r3, #8]
 800407c:	fa92 f2a2 	rbit	r2, r2
 8004080:	fab2 f282 	clz	r2, r2
 8004084:	f003 03f0 	and.w	r3, r3, #240	; 0xf0
 8004088:	40d3      	lsrs	r3, r2
 800408a:	4a5c      	ldr	r2, [pc, #368]	; (80041fc <HAL_RCC_ClockConfig+0x218>)
 800408c:	5cd3      	ldrb	r3, [r2, r3]
 800408e:	40d8      	lsrs	r0, r3
 8004090:	4b5b      	ldr	r3, [pc, #364]	; (8004200 <HAL_RCC_ClockConfig+0x21c>)
 8004092:	6018      	str	r0, [r3, #0]
  HAL_InitTick (TICK_INT_PRIORITY);
 8004094:	2000      	movs	r0, #0
 8004096:	f7fc fee5 	bl	8000e64 <HAL_InitTick>
  return HAL_OK;
 800409a:	2000      	movs	r0, #0
}
 800409c:	e8bd 81f0 	ldmia.w	sp!, {r4, r5, r6, r7, r8, pc}
    __HAL_FLASH_SET_LATENCY(FLatency);
 80040a0:	b2f2      	uxtb	r2, r6
 80040a2:	701a      	strb	r2, [r3, #0]
    if((FLASH->ACR & FLASH_ACR_LATENCY) != FLatency)
 80040a4:	681b      	ldr	r3, [r3, #0]
 80040a6:	f003 030f 	and.w	r3, r3, #15
 80040aa:	429e      	cmp	r6, r3
 80040ac:	d0b4      	beq.n	8004018 <HAL_RCC_ClockConfig+0x34>
      return HAL_ERROR;
 80040ae:	2001      	movs	r0, #1
 80040b0:	e8bd 81f0 	ldmia.w	sp!, {r4, r5, r6, r7, r8, pc}
    assert_param(IS_RCC_HCLK(RCC_ClkInitStruct->AHBCLKDivider));
 80040b4:	68a3      	ldr	r3, [r4, #8]
 80040b6:	f033 0280 	bics.w	r2, r3, #128	; 0x80
 80040ba:	d012      	beq.n	80040e2 <HAL_RCC_ClockConfig+0xfe>
 80040bc:	f023 0220 	bic.w	r2, r3, #32
 80040c0:	2a90      	cmp	r2, #144	; 0x90
 80040c2:	d00e      	beq.n	80040e2 <HAL_RCC_ClockConfig+0xfe>
 80040c4:	f023 0240 	bic.w	r2, r3, #64	; 0x40
 80040c8:	2aa0      	cmp	r2, #160	; 0xa0
 80040ca:	d00a      	beq.n	80040e2 <HAL_RCC_ClockConfig+0xfe>
 80040cc:	f023 0210 	bic.w	r2, r3, #16
 80040d0:	2ac0      	cmp	r2, #192	; 0xc0
 80040d2:	d006      	beq.n	80040e2 <HAL_RCC_ClockConfig+0xfe>
 80040d4:	2bf0      	cmp	r3, #240	; 0xf0
 80040d6:	d004      	beq.n	80040e2 <HAL_RCC_ClockConfig+0xfe>
 80040d8:	f240 214d 	movw	r1, #589	; 0x24d
 80040dc:	4844      	ldr	r0, [pc, #272]	; (80041f0 <HAL_RCC_ClockConfig+0x20c>)
 80040de:	f7fc fe18 	bl	8000d12 <assert_failed>
    MODIFY_REG(RCC->CFGR, RCC_CFGR_HPRE, RCC_ClkInitStruct->AHBCLKDivider);
 80040e2:	4a45      	ldr	r2, [pc, #276]	; (80041f8 <HAL_RCC_ClockConfig+0x214>)
 80040e4:	68a1      	ldr	r1, [r4, #8]
 80040e6:	6893      	ldr	r3, [r2, #8]
 80040e8:	f023 03f0 	bic.w	r3, r3, #240	; 0xf0
 80040ec:	430b      	orrs	r3, r1
 80040ee:	6093      	str	r3, [r2, #8]
 80040f0:	e795      	b.n	800401e <HAL_RCC_ClockConfig+0x3a>
    assert_param(IS_RCC_SYSCLKSOURCE(RCC_ClkInitStruct->SYSCLKSource));
 80040f2:	6863      	ldr	r3, [r4, #4]
 80040f4:	2b03      	cmp	r3, #3
 80040f6:	d904      	bls.n	8004102 <HAL_RCC_ClockConfig+0x11e>
 80040f8:	f44f 7115 	mov.w	r1, #596	; 0x254
 80040fc:	483c      	ldr	r0, [pc, #240]	; (80041f0 <HAL_RCC_ClockConfig+0x20c>)
 80040fe:	f7fc fe08 	bl	8000d12 <assert_failed>
    if(RCC_ClkInitStruct->SYSCLKSource == RCC_SYSCLKSOURCE_HSE)
 8004102:	6862      	ldr	r2, [r4, #4]
 8004104:	4b3c      	ldr	r3, [pc, #240]	; (80041f8 <HAL_RCC_ClockConfig+0x214>)
 8004106:	2a01      	cmp	r2, #1
 8004108:	d11f      	bne.n	800414a <HAL_RCC_ClockConfig+0x166>
      if(__HAL_RCC_GET_FLAG(RCC_FLAG_HSERDY) == RESET)
 800410a:	681b      	ldr	r3, [r3, #0]
 800410c:	f413 3f00 	tst.w	r3, #131072	; 0x20000
      if(__HAL_RCC_GET_FLAG(RCC_FLAG_HSIRDY) == RESET)
 8004110:	d0cd      	beq.n	80040ae <HAL_RCC_ClockConfig+0xca>
    __HAL_RCC_SYSCLK_CONFIG(RCC_ClkInitStruct->SYSCLKSource);
 8004112:	4d39      	ldr	r5, [pc, #228]	; (80041f8 <HAL_RCC_ClockConfig+0x214>)
 8004114:	68ab      	ldr	r3, [r5, #8]
 8004116:	f023 0303 	bic.w	r3, r3, #3
 800411a:	4313      	orrs	r3, r2
 800411c:	60ab      	str	r3, [r5, #8]
    tickstart = HAL_GetTick();
 800411e:	f7fd fc77 	bl	8001a10 <HAL_GetTick>
    if(RCC_ClkInitStruct->SYSCLKSource == RCC_SYSCLKSOURCE_HSE)
 8004122:	6863      	ldr	r3, [r4, #4]
 8004124:	2b01      	cmp	r3, #1
    tickstart = HAL_GetTick();
 8004126:	4607      	mov	r7, r0
        if((HAL_GetTick() - tickstart ) > CLOCKSWITCH_TIMEOUT_VALUE)
 8004128:	f241 3888 	movw	r8, #5000	; 0x1388
    if(RCC_ClkInitStruct->SYSCLKSource == RCC_SYSCLKSOURCE_HSE)
 800412c:	d117      	bne.n	800415e <HAL_RCC_ClockConfig+0x17a>
      while (__HAL_RCC_GET_SYSCLK_SOURCE() != RCC_SYSCLKSOURCE_STATUS_HSE)
 800412e:	68ab      	ldr	r3, [r5, #8]
 8004130:	f003 030c 	and.w	r3, r3, #12
 8004134:	2b04      	cmp	r3, #4
 8004136:	f43f af75 	beq.w	8004024 <HAL_RCC_ClockConfig+0x40>
        if((HAL_GetTick() - tickstart ) > CLOCKSWITCH_TIMEOUT_VALUE)
 800413a:	f7fd fc69 	bl	8001a10 <HAL_GetTick>
 800413e:	1bc0      	subs	r0, r0, r7
 8004140:	4540      	cmp	r0, r8
 8004142:	d9f4      	bls.n	800412e <HAL_RCC_ClockConfig+0x14a>
          return HAL_TIMEOUT;
 8004144:	2003      	movs	r0, #3
 8004146:	e8bd 81f0 	ldmia.w	sp!, {r4, r5, r6, r7, r8, pc}
    else if((RCC_ClkInitStruct->SYSCLKSource == RCC_SYSCLKSOURCE_PLLCLK)   || 
 800414a:	1e91      	subs	r1, r2, #2
 800414c:	2901      	cmp	r1, #1
      if(__HAL_RCC_GET_FLAG(RCC_FLAG_PLLRDY) == RESET)
 800414e:	681b      	ldr	r3, [r3, #0]
    else if((RCC_ClkInitStruct->SYSCLKSource == RCC_SYSCLKSOURCE_PLLCLK)   || 
 8004150:	d802      	bhi.n	8004158 <HAL_RCC_ClockConfig+0x174>
      if(__HAL_RCC_GET_FLAG(RCC_FLAG_PLLRDY) == RESET)
 8004152:	f013 7f00 	tst.w	r3, #33554432	; 0x2000000
 8004156:	e7db      	b.n	8004110 <HAL_RCC_ClockConfig+0x12c>
      if(__HAL_RCC_GET_FLAG(RCC_FLAG_HSIRDY) == RESET)
 8004158:	f013 0f02 	tst.w	r3, #2
 800415c:	e7d8      	b.n	8004110 <HAL_RCC_ClockConfig+0x12c>
    else if(RCC_ClkInitStruct->SYSCLKSource == RCC_SYSCLKSOURCE_PLLCLK)
 800415e:	2b02      	cmp	r3, #2
 8004160:	d10b      	bne.n	800417a <HAL_RCC_ClockConfig+0x196>
      while (__HAL_RCC_GET_SYSCLK_SOURCE() != RCC_SYSCLKSOURCE_STATUS_PLLCLK)
 8004162:	68ab      	ldr	r3, [r5, #8]
 8004164:	f003 030c 	and.w	r3, r3, #12
 8004168:	2b08      	cmp	r3, #8
 800416a:	f43f af5b 	beq.w	8004024 <HAL_RCC_ClockConfig+0x40>
        if((HAL_GetTick() - tickstart ) > CLOCKSWITCH_TIMEOUT_VALUE)
 800416e:	f7fd fc4f 	bl	8001a10 <HAL_GetTick>
 8004172:	1bc0      	subs	r0, r0, r7
 8004174:	4540      	cmp	r0, r8
 8004176:	d9f4      	bls.n	8004162 <HAL_RCC_ClockConfig+0x17e>
 8004178:	e7e4      	b.n	8004144 <HAL_RCC_ClockConfig+0x160>
    else if(RCC_ClkInitStruct->SYSCLKSource == RCC_SYSCLKSOURCE_PLLRCLK)
 800417a:	2b03      	cmp	r3, #3
 800417c:	d110      	bne.n	80041a0 <HAL_RCC_ClockConfig+0x1bc>
      while (__HAL_RCC_GET_SYSCLK_SOURCE() != RCC_SYSCLKSOURCE_STATUS_PLLRCLK)
 800417e:	68ab      	ldr	r3, [r5, #8]
 8004180:	f003 030c 	and.w	r3, r3, #12
 8004184:	2b0c      	cmp	r3, #12
 8004186:	f43f af4d 	beq.w	8004024 <HAL_RCC_ClockConfig+0x40>
        if((HAL_GetTick() - tickstart ) > CLOCKSWITCH_TIMEOUT_VALUE)
 800418a:	f7fd fc41 	bl	8001a10 <HAL_GetTick>
 800418e:	1bc0      	subs	r0, r0, r7
 8004190:	4540      	cmp	r0, r8
 8004192:	d9f4      	bls.n	800417e <HAL_RCC_ClockConfig+0x19a>
 8004194:	e7d6      	b.n	8004144 <HAL_RCC_ClockConfig+0x160>
        if((HAL_GetTick() - tickstart ) > CLOCKSWITCH_TIMEOUT_VALUE)
 8004196:	f7fd fc3b 	bl	8001a10 <HAL_GetTick>
 800419a:	1bc0      	subs	r0, r0, r7
 800419c:	4540      	cmp	r0, r8
 800419e:	d8d1      	bhi.n	8004144 <HAL_RCC_ClockConfig+0x160>
      while(__HAL_RCC_GET_SYSCLK_SOURCE() != RCC_SYSCLKSOURCE_STATUS_HSI)
 80041a0:	68ab      	ldr	r3, [r5, #8]
 80041a2:	f013 0f0c 	tst.w	r3, #12
 80041a6:	d1f6      	bne.n	8004196 <HAL_RCC_ClockConfig+0x1b2>
 80041a8:	e73c      	b.n	8004024 <HAL_RCC_ClockConfig+0x40>
    __HAL_FLASH_SET_LATENCY(FLatency);
 80041aa:	b2f2      	uxtb	r2, r6
 80041ac:	701a      	strb	r2, [r3, #0]
    if((FLASH->ACR & FLASH_ACR_LATENCY) != FLatency)
 80041ae:	681b      	ldr	r3, [r3, #0]
 80041b0:	f003 030f 	and.w	r3, r3, #15
 80041b4:	429e      	cmp	r6, r3
 80041b6:	f47f af7a 	bne.w	80040ae <HAL_RCC_ClockConfig+0xca>
 80041ba:	e73a      	b.n	8004032 <HAL_RCC_ClockConfig+0x4e>
    assert_param(IS_RCC_PCLK(RCC_ClkInitStruct->APB1CLKDivider));
 80041bc:	68e3      	ldr	r3, [r4, #12]
 80041be:	f433 5280 	bics.w	r2, r3, #4096	; 0x1000
 80041c2:	d00c      	beq.n	80041de <HAL_RCC_ClockConfig+0x1fa>
 80041c4:	f423 6200 	bic.w	r2, r3, #2048	; 0x800
 80041c8:	f5b2 5fa0 	cmp.w	r2, #5120	; 0x1400
 80041cc:	d007      	beq.n	80041de <HAL_RCC_ClockConfig+0x1fa>
 80041ce:	f5b3 5fc0 	cmp.w	r3, #6144	; 0x1800
 80041d2:	d004      	beq.n	80041de <HAL_RCC_ClockConfig+0x1fa>
 80041d4:	f240 21b2 	movw	r1, #690	; 0x2b2
 80041d8:	4805      	ldr	r0, [pc, #20]	; (80041f0 <HAL_RCC_ClockConfig+0x20c>)
 80041da:	f7fc fd9a 	bl	8000d12 <assert_failed>
    MODIFY_REG(RCC->CFGR, RCC_CFGR_PPRE1, RCC_ClkInitStruct->APB1CLKDivider);
 80041de:	4a06      	ldr	r2, [pc, #24]	; (80041f8 <HAL_RCC_ClockConfig+0x214>)
 80041e0:	68e1      	ldr	r1, [r4, #12]
 80041e2:	6893      	ldr	r3, [r2, #8]
 80041e4:	f423 53e0 	bic.w	r3, r3, #7168	; 0x1c00
 80041e8:	430b      	orrs	r3, r1
 80041ea:	6093      	str	r3, [r2, #8]
 80041ec:	e725      	b.n	800403a <HAL_RCC_ClockConfig+0x56>
 80041ee:	bf00      	nop
 80041f0:	080083d3 	.word	0x080083d3
 80041f4:	40023c00 	.word	0x40023c00
 80041f8:	40023800 	.word	0x40023800
 80041fc:	080081fc 	.word	0x080081fc
 8004200:	20000408 	.word	0x20000408

08004204 <HAL_RCC_GetHCLKFreq>:
  * @retval HCLK frequency
  */
uint32_t HAL_RCC_GetHCLKFreq(void)
{
  return SystemCoreClock;
}
 8004204:	4b01      	ldr	r3, [pc, #4]	; (800420c <HAL_RCC_GetHCLKFreq+0x8>)
 8004206:	6818      	ldr	r0, [r3, #0]
 8004208:	4770      	bx	lr
 800420a:	bf00      	nop
 800420c:	20000408 	.word	0x20000408

08004210 <HAL_RCC_GetPCLK1Freq>:
  * @retval PCLK1 frequency
  */
uint32_t HAL_RCC_GetPCLK1Freq(void)
{  
  /* Get HCLK source and Compute PCLK1 frequency ---------------------------*/
  return (HAL_RCC_GetHCLKFreq() >> APBPrescTable[(RCC->CFGR & RCC_CFGR_PPRE1)>> POSITION_VAL(RCC_CFGR_PPRE1)]);
 8004210:	4b08      	ldr	r3, [pc, #32]	; (8004234 <HAL_RCC_GetPCLK1Freq+0x24>)
 8004212:	f44f 52e0 	mov.w	r2, #7168	; 0x1c00
 8004216:	689b      	ldr	r3, [r3, #8]
 8004218:	fa92 f2a2 	rbit	r2, r2
 800421c:	fab2 f282 	clz	r2, r2
 8004220:	f403 53e0 	and.w	r3, r3, #7168	; 0x1c00
 8004224:	40d3      	lsrs	r3, r2
 8004226:	4a04      	ldr	r2, [pc, #16]	; (8004238 <HAL_RCC_GetPCLK1Freq+0x28>)
 8004228:	5cd3      	ldrb	r3, [r2, r3]
 800422a:	4a04      	ldr	r2, [pc, #16]	; (800423c <HAL_RCC_GetPCLK1Freq+0x2c>)
 800422c:	6810      	ldr	r0, [r2, #0]
}
 800422e:	40d8      	lsrs	r0, r3
 8004230:	4770      	bx	lr
 8004232:	bf00      	nop
 8004234:	40023800 	.word	0x40023800
 8004238:	0800820c 	.word	0x0800820c
 800423c:	20000408 	.word	0x20000408

08004240 <HAL_RCC_GetPCLK2Freq>:
  * @retval PCLK2 frequency
  */
uint32_t HAL_RCC_GetPCLK2Freq(void)
{
  /* Get HCLK source and Compute PCLK2 frequency ---------------------------*/
  return (HAL_RCC_GetHCLKFreq()>> APBPrescTable[(RCC->CFGR & RCC_CFGR_PPRE2)>> POSITION_VAL(RCC_CFGR_PPRE2)]);
 8004240:	4b08      	ldr	r3, [pc, #32]	; (8004264 <HAL_RCC_GetPCLK2Freq+0x24>)
 8004242:	f44f 4260 	mov.w	r2, #57344	; 0xe000
 8004246:	689b      	ldr	r3, [r3, #8]
 8004248:	fa92 f2a2 	rbit	r2, r2
 800424c:	fab2 f282 	clz	r2, r2
 8004250:	f403 4360 	and.w	r3, r3, #57344	; 0xe000
 8004254:	40d3      	lsrs	r3, r2
 8004256:	4a04      	ldr	r2, [pc, #16]	; (8004268 <HAL_RCC_GetPCLK2Freq+0x28>)
 8004258:	5cd3      	ldrb	r3, [r2, r3]
 800425a:	4a04      	ldr	r2, [pc, #16]	; (800426c <HAL_RCC_GetPCLK2Freq+0x2c>)
 800425c:	6810      	ldr	r0, [r2, #0]
} 
 800425e:	40d8      	lsrs	r0, r3
 8004260:	4770      	bx	lr
 8004262:	bf00      	nop
 8004264:	40023800 	.word	0x40023800
 8004268:	0800820c 	.word	0x0800820c
 800426c:	20000408 	.word	0x20000408

08004270 <HAL_RCC_GetClockConfig>:
  * @retval None
  */
void HAL_RCC_GetClockConfig(RCC_ClkInitTypeDef  *RCC_ClkInitStruct, uint32_t *pFLatency)
{
  /* Set all possible values for the Clock type parameter --------------------*/
  RCC_ClkInitStruct->ClockType = RCC_CLOCKTYPE_SYSCLK | RCC_CLOCKTYPE_HCLK | RCC_CLOCKTYPE_PCLK1 | RCC_CLOCKTYPE_PCLK2;
 8004270:	230f      	movs	r3, #15
 8004272:	6003      	str	r3, [r0, #0]
   
  /* Get the SYSCLK configuration --------------------------------------------*/ 
  RCC_ClkInitStruct->SYSCLKSource = (uint32_t)(RCC->CFGR & RCC_CFGR_SW);
 8004274:	4b0b      	ldr	r3, [pc, #44]	; (80042a4 <HAL_RCC_GetClockConfig+0x34>)
 8004276:	689a      	ldr	r2, [r3, #8]
 8004278:	f002 0203 	and.w	r2, r2, #3
 800427c:	6042      	str	r2, [r0, #4]
  
  /* Get the HCLK configuration ----------------------------------------------*/ 
  RCC_ClkInitStruct->AHBCLKDivider = (uint32_t)(RCC->CFGR & RCC_CFGR_HPRE); 
 800427e:	689a      	ldr	r2, [r3, #8]
 8004280:	f002 02f0 	and.w	r2, r2, #240	; 0xf0
 8004284:	6082      	str	r2, [r0, #8]
  
  /* Get the APB1 configuration ----------------------------------------------*/ 
  RCC_ClkInitStruct->APB1CLKDivider = (uint32_t)(RCC->CFGR & RCC_CFGR_PPRE1);   
 8004286:	689a      	ldr	r2, [r3, #8]
 8004288:	f402 52e0 	and.w	r2, r2, #7168	; 0x1c00
 800428c:	60c2      	str	r2, [r0, #12]
  
  /* Get the APB2 configuration ----------------------------------------------*/ 
  RCC_ClkInitStruct->APB2CLKDivider = (uint32_t)((RCC->CFGR & RCC_CFGR_PPRE2) >> 3U);
 800428e:	689b      	ldr	r3, [r3, #8]
 8004290:	08db      	lsrs	r3, r3, #3
 8004292:	f403 53e0 	and.w	r3, r3, #7168	; 0x1c00
 8004296:	6103      	str	r3, [r0, #16]
  
  /* Get the Flash Wait State (Latency) configuration ------------------------*/   
  *pFLatency = (uint32_t)(FLASH->ACR & FLASH_ACR_LATENCY); 
 8004298:	4b03      	ldr	r3, [pc, #12]	; (80042a8 <HAL_RCC_GetClockConfig+0x38>)
 800429a:	681b      	ldr	r3, [r3, #0]
 800429c:	f003 030f 	and.w	r3, r3, #15
 80042a0:	600b      	str	r3, [r1, #0]
 80042a2:	4770      	bx	lr
 80042a4:	40023800 	.word	0x40023800
 80042a8:	40023c00 	.word	0x40023c00

080042ac <HAL_RCCEx_PeriphCLKConfig>:
{
  uint32_t tickstart = 0U;
  uint32_t tmpreg1 = 0U;
    
  /* Check the parameters */
  assert_param(IS_RCC_PERIPHCLOCK(PeriphClkInit->PeriphClockSelection));
 80042ac:	6803      	ldr	r3, [r0, #0]
 80042ae:	3b01      	subs	r3, #1
 80042b0:	2b7e      	cmp	r3, #126	; 0x7e
{
 80042b2:	b5f7      	push	{r0, r1, r2, r4, r5, r6, r7, lr}
 80042b4:	4604      	mov	r4, r0
  assert_param(IS_RCC_PERIPHCLOCK(PeriphClkInit->PeriphClockSelection));
 80042b6:	d904      	bls.n	80042c2 <HAL_RCCEx_PeriphCLKConfig+0x16>
 80042b8:	f640 018d 	movw	r1, #2189	; 0x88d
 80042bc:	48a7      	ldr	r0, [pc, #668]	; (800455c <HAL_RCCEx_PeriphCLKConfig+0x2b0>)
 80042be:	f7fc fd28 	bl	8000d12 <assert_failed>
  
  /*----------------------- SAI/I2S Configuration (PLLI2S) -------------------*/
  /*----------------------- Common configuration SAI/I2S ---------------------*/
  /* In Case of SAI or I2S Clock Configuration through PLLI2S, PLLI2SN division   
     factor is common parameters for both peripherals */ 
  if((((PeriphClkInit->PeriphClockSelection) & RCC_PERIPHCLK_I2S) == RCC_PERIPHCLK_I2S) || 
 80042c2:	6823      	ldr	r3, [r4, #0]
 80042c4:	079a      	lsls	r2, r3, #30
 80042c6:	d112      	bne.n	80042ee <HAL_RCCEx_PeriphCLKConfig+0x42>
    
  /*----------------------- SAI/LTDC Configuration (PLLSAI) ------------------*/
  /*----------------------- Common configuration SAI/LTDC --------------------*/
  /* In Case of SAI or LTDC Clock Configuration through PLLSAI, PLLSAIN division
     factor is common parameters for both peripherals */ 
  if((((PeriphClkInit->PeriphClockSelection) & RCC_PERIPHCLK_SAI_PLLSAI) == RCC_PERIPHCLK_SAI_PLLSAI) || 
 80042c8:	6823      	ldr	r3, [r4, #0]
 80042ca:	f013 0f0c 	tst.w	r3, #12
 80042ce:	f040 808e 	bne.w	80043ee <HAL_RCCEx_PeriphCLKConfig+0x142>
    }  
  }
  /*--------------------------------------------------------------------------*/
    
  /*---------------------------- RTC configuration ---------------------------*/
  if(((PeriphClkInit->PeriphClockSelection) & RCC_PERIPHCLK_RTC) == (RCC_PERIPHCLK_RTC))
 80042d2:	6823      	ldr	r3, [r4, #0]
 80042d4:	069a      	lsls	r2, r3, #26
 80042d6:	f100 814b 	bmi.w	8004570 <HAL_RCCEx_PeriphCLKConfig+0x2c4>
    __HAL_RCC_RTC_CONFIG(PeriphClkInit->RTCClockSelection);
  }
  /*--------------------------------------------------------------------------*/

  /*---------------------------- TIM configuration ---------------------------*/
  if(((PeriphClkInit->PeriphClockSelection) & RCC_PERIPHCLK_TIM) == (RCC_PERIPHCLK_TIM))
 80042da:	6820      	ldr	r0, [r4, #0]
 80042dc:	f010 0010 	ands.w	r0, r0, #16
  {
    __HAL_RCC_TIMCLKPRESCALER(PeriphClkInit->TIMPresSelection);
 80042e0:	bf1f      	itttt	ne
 80042e2:	4b9f      	ldrne	r3, [pc, #636]	; (8004560 <HAL_RCCEx_PeriphCLKConfig+0x2b4>)
 80042e4:	f894 202c 	ldrbne.w	r2, [r4, #44]	; 0x2c
 80042e8:	601a      	strne	r2, [r3, #0]
  }
  return HAL_OK;
 80042ea:	2000      	movne	r0, #0
 80042ec:	e07d      	b.n	80043ea <HAL_RCCEx_PeriphCLKConfig+0x13e>
    assert_param(IS_RCC_PLLI2SN_VALUE(PeriphClkInit->PLLI2S.PLLI2SN));
 80042ee:	6863      	ldr	r3, [r4, #4]
 80042f0:	3b32      	subs	r3, #50	; 0x32
 80042f2:	f5b3 7fbf 	cmp.w	r3, #382	; 0x17e
 80042f6:	d904      	bls.n	8004302 <HAL_RCCEx_PeriphCLKConfig+0x56>
 80042f8:	f640 0197 	movw	r1, #2199	; 0x897
 80042fc:	4897      	ldr	r0, [pc, #604]	; (800455c <HAL_RCCEx_PeriphCLKConfig+0x2b0>)
 80042fe:	f7fc fd08 	bl	8000d12 <assert_failed>
    __HAL_RCC_PLLI2S_DISABLE();    
 8004302:	4d98      	ldr	r5, [pc, #608]	; (8004564 <HAL_RCCEx_PeriphCLKConfig+0x2b8>)
    while(__HAL_RCC_GET_FLAG(RCC_FLAG_PLLI2SRDY)  != RESET)
 8004304:	4e98      	ldr	r6, [pc, #608]	; (8004568 <HAL_RCCEx_PeriphCLKConfig+0x2bc>)
    __HAL_RCC_PLLI2S_DISABLE();    
 8004306:	2300      	movs	r3, #0
 8004308:	602b      	str	r3, [r5, #0]
    tickstart = HAL_GetTick();
 800430a:	f7fd fb81 	bl	8001a10 <HAL_GetTick>
 800430e:	4607      	mov	r7, r0
    while(__HAL_RCC_GET_FLAG(RCC_FLAG_PLLI2SRDY)  != RESET)
 8004310:	6833      	ldr	r3, [r6, #0]
 8004312:	011b      	lsls	r3, r3, #4
 8004314:	d463      	bmi.n	80043de <HAL_RCCEx_PeriphCLKConfig+0x132>
    if(((PeriphClkInit->PeriphClockSelection) & RCC_PERIPHCLK_I2S) == (RCC_PERIPHCLK_I2S))
 8004316:	6823      	ldr	r3, [r4, #0]
 8004318:	07de      	lsls	r6, r3, #31
 800431a:	d51d      	bpl.n	8004358 <HAL_RCCEx_PeriphCLKConfig+0xac>
      assert_param(IS_RCC_PLLI2SR_VALUE(PeriphClkInit->PLLI2S.PLLI2SR));
 800431c:	68a3      	ldr	r3, [r4, #8]
 800431e:	3b02      	subs	r3, #2
 8004320:	2b05      	cmp	r3, #5
 8004322:	d904      	bls.n	800432e <HAL_RCCEx_PeriphCLKConfig+0x82>
 8004324:	f640 01ad 	movw	r1, #2221	; 0x8ad
 8004328:	488c      	ldr	r0, [pc, #560]	; (800455c <HAL_RCCEx_PeriphCLKConfig+0x2b0>)
 800432a:	f7fc fcf2 	bl	8000d12 <assert_failed>
 800432e:	f647 73c0 	movw	r3, #32704	; 0x7fc0
 8004332:	fa93 f3a3 	rbit	r3, r3
 8004336:	f04f 42e0 	mov.w	r2, #1879048192	; 0x70000000
      __HAL_RCC_PLLI2S_CONFIG(PeriphClkInit->PLLI2S.PLLI2SN , PeriphClkInit->PLLI2S.PLLI2SR);
 800433a:	fab3 f183 	clz	r1, r3
 800433e:	fa92 f2a2 	rbit	r2, r2
 8004342:	6863      	ldr	r3, [r4, #4]
 8004344:	408b      	lsls	r3, r1
 8004346:	68a1      	ldr	r1, [r4, #8]
 8004348:	fab2 f282 	clz	r2, r2
 800434c:	fa01 f202 	lsl.w	r2, r1, r2
 8004350:	4313      	orrs	r3, r2
 8004352:	4a85      	ldr	r2, [pc, #532]	; (8004568 <HAL_RCCEx_PeriphCLKConfig+0x2bc>)
 8004354:	f8c2 3084 	str.w	r3, [r2, #132]	; 0x84
    if(((PeriphClkInit->PeriphClockSelection) & RCC_PERIPHCLK_SAI_PLLI2S) == (RCC_PERIPHCLK_SAI_PLLI2S))
 8004358:	6823      	ldr	r3, [r4, #0]
 800435a:	0798      	lsls	r0, r3, #30
 800435c:	d52f      	bpl.n	80043be <HAL_RCCEx_PeriphCLKConfig+0x112>
      assert_param(IS_RCC_PLLI2SQ_VALUE(PeriphClkInit->PLLI2S.PLLI2SQ));
 800435e:	68e3      	ldr	r3, [r4, #12]
 8004360:	3b02      	subs	r3, #2
 8004362:	2b0d      	cmp	r3, #13
 8004364:	d904      	bls.n	8004370 <HAL_RCCEx_PeriphCLKConfig+0xc4>
 8004366:	f640 01ba 	movw	r1, #2234	; 0x8ba
 800436a:	487c      	ldr	r0, [pc, #496]	; (800455c <HAL_RCCEx_PeriphCLKConfig+0x2b0>)
 800436c:	f7fc fcd1 	bl	8000d12 <assert_failed>
      assert_param(IS_RCC_PLLI2S_DIVQ_VALUE(PeriphClkInit->PLLI2SDivQ));
 8004370:	69e3      	ldr	r3, [r4, #28]
 8004372:	3b01      	subs	r3, #1
 8004374:	2b1f      	cmp	r3, #31
 8004376:	d904      	bls.n	8004382 <HAL_RCCEx_PeriphCLKConfig+0xd6>
 8004378:	f640 01bb 	movw	r1, #2235	; 0x8bb
 800437c:	4877      	ldr	r0, [pc, #476]	; (800455c <HAL_RCCEx_PeriphCLKConfig+0x2b0>)
 800437e:	f7fc fcc8 	bl	8000d12 <assert_failed>
      tmpreg1 = ((RCC->PLLI2SCFGR & RCC_PLLI2SCFGR_PLLI2SR) >> POSITION_VAL(RCC_PLLI2SCFGR_PLLI2SR));
 8004382:	4879      	ldr	r0, [pc, #484]	; (8004568 <HAL_RCCEx_PeriphCLKConfig+0x2bc>)
 8004384:	f04f 41e0 	mov.w	r1, #1879048192	; 0x70000000
 8004388:	f8d0 2084 	ldr.w	r2, [r0, #132]	; 0x84
 800438c:	fa91 f1a1 	rbit	r1, r1
      __HAL_RCC_PLLI2S_SAICLK_CONFIG(PeriphClkInit->PLLI2S.PLLI2SN , PeriphClkInit->PLLI2S.PLLI2SQ , tmpreg1);
 8004390:	68e3      	ldr	r3, [r4, #12]
 8004392:	6866      	ldr	r6, [r4, #4]
      tmpreg1 = ((RCC->PLLI2SCFGR & RCC_PLLI2SCFGR_PLLI2SR) >> POSITION_VAL(RCC_PLLI2SCFGR_PLLI2SR));
 8004394:	fab1 f181 	clz	r1, r1
      __HAL_RCC_PLLI2S_SAICLK_CONFIG(PeriphClkInit->PLLI2S.PLLI2SN , PeriphClkInit->PLLI2S.PLLI2SQ , tmpreg1);
 8004398:	061b      	lsls	r3, r3, #24
      tmpreg1 = ((RCC->PLLI2SCFGR & RCC_PLLI2SCFGR_PLLI2SR) >> POSITION_VAL(RCC_PLLI2SCFGR_PLLI2SR));
 800439a:	f002 42e0 	and.w	r2, r2, #1879048192	; 0x70000000
 800439e:	40ca      	lsrs	r2, r1
      __HAL_RCC_PLLI2S_SAICLK_CONFIG(PeriphClkInit->PLLI2S.PLLI2SN , PeriphClkInit->PLLI2S.PLLI2SQ , tmpreg1);
 80043a0:	ea43 1386 	orr.w	r3, r3, r6, lsl #6
 80043a4:	ea43 7302 	orr.w	r3, r3, r2, lsl #28
 80043a8:	f8c0 3084 	str.w	r3, [r0, #132]	; 0x84
      __HAL_RCC_PLLI2S_PLLSAICLKDIVQ_CONFIG(PeriphClkInit->PLLI2SDivQ);
 80043ac:	f8d0 208c 	ldr.w	r2, [r0, #140]	; 0x8c
 80043b0:	69e3      	ldr	r3, [r4, #28]
 80043b2:	f022 021f 	bic.w	r2, r2, #31
 80043b6:	3b01      	subs	r3, #1
 80043b8:	4313      	orrs	r3, r2
 80043ba:	f8c0 308c 	str.w	r3, [r0, #140]	; 0x8c
    __HAL_RCC_PLLI2S_ENABLE();
 80043be:	2301      	movs	r3, #1
 80043c0:	602b      	str	r3, [r5, #0]
    tickstart = HAL_GetTick();
 80043c2:	f7fd fb25 	bl	8001a10 <HAL_GetTick>
    while(__HAL_RCC_GET_FLAG(RCC_FLAG_PLLI2SRDY)  == RESET)
 80043c6:	4d68      	ldr	r5, [pc, #416]	; (8004568 <HAL_RCCEx_PeriphCLKConfig+0x2bc>)
    tickstart = HAL_GetTick();
 80043c8:	4606      	mov	r6, r0
    while(__HAL_RCC_GET_FLAG(RCC_FLAG_PLLI2SRDY)  == RESET)
 80043ca:	682b      	ldr	r3, [r5, #0]
 80043cc:	0119      	lsls	r1, r3, #4
 80043ce:	f53f af7b 	bmi.w	80042c8 <HAL_RCCEx_PeriphCLKConfig+0x1c>
      if((HAL_GetTick() - tickstart ) > PLLI2S_TIMEOUT_VALUE)
 80043d2:	f7fd fb1d 	bl	8001a10 <HAL_GetTick>
 80043d6:	1b80      	subs	r0, r0, r6
 80043d8:	2802      	cmp	r0, #2
 80043da:	d9f6      	bls.n	80043ca <HAL_RCCEx_PeriphCLKConfig+0x11e>
 80043dc:	e004      	b.n	80043e8 <HAL_RCCEx_PeriphCLKConfig+0x13c>
      if((HAL_GetTick() - tickstart ) > PLLI2S_TIMEOUT_VALUE)
 80043de:	f7fd fb17 	bl	8001a10 <HAL_GetTick>
 80043e2:	1bc0      	subs	r0, r0, r7
 80043e4:	2802      	cmp	r0, #2
 80043e6:	d993      	bls.n	8004310 <HAL_RCCEx_PeriphCLKConfig+0x64>
        return HAL_TIMEOUT;
 80043e8:	2003      	movs	r0, #3
}
 80043ea:	b003      	add	sp, #12
 80043ec:	bdf0      	pop	{r4, r5, r6, r7, pc}
    assert_param(IS_RCC_PLLSAIN_VALUE(PeriphClkInit->PLLSAI.PLLSAIN));
 80043ee:	6923      	ldr	r3, [r4, #16]
 80043f0:	3b32      	subs	r3, #50	; 0x32
 80043f2:	f5b3 7fbf 	cmp.w	r3, #382	; 0x17e
 80043f6:	d904      	bls.n	8004402 <HAL_RCCEx_PeriphCLKConfig+0x156>
 80043f8:	f44f 610e 	mov.w	r1, #2272	; 0x8e0
 80043fc:	4857      	ldr	r0, [pc, #348]	; (800455c <HAL_RCCEx_PeriphCLKConfig+0x2b0>)
 80043fe:	f7fc fc88 	bl	8000d12 <assert_failed>
    __HAL_RCC_PLLSAI_DISABLE(); 
 8004402:	4d5a      	ldr	r5, [pc, #360]	; (800456c <HAL_RCCEx_PeriphCLKConfig+0x2c0>)
    while(__HAL_RCC_PLLSAI_GET_FLAG() != RESET)
 8004404:	4e58      	ldr	r6, [pc, #352]	; (8004568 <HAL_RCCEx_PeriphCLKConfig+0x2bc>)
    __HAL_RCC_PLLSAI_DISABLE(); 
 8004406:	2300      	movs	r3, #0
 8004408:	602b      	str	r3, [r5, #0]
    tickstart = HAL_GetTick();
 800440a:	f7fd fb01 	bl	8001a10 <HAL_GetTick>
 800440e:	4607      	mov	r7, r0
    while(__HAL_RCC_PLLSAI_GET_FLAG() != RESET)
 8004410:	6833      	ldr	r3, [r6, #0]
 8004412:	009b      	lsls	r3, r3, #2
 8004414:	f100 809a 	bmi.w	800454c <HAL_RCCEx_PeriphCLKConfig+0x2a0>
    if(((PeriphClkInit->PeriphClockSelection) & RCC_PERIPHCLK_SAI_PLLSAI) == (RCC_PERIPHCLK_SAI_PLLSAI))
 8004418:	6823      	ldr	r3, [r4, #0]
 800441a:	075f      	lsls	r7, r3, #29
 800441c:	d542      	bpl.n	80044a4 <HAL_RCCEx_PeriphCLKConfig+0x1f8>
      assert_param(IS_RCC_PLLSAIQ_VALUE(PeriphClkInit->PLLSAI.PLLSAIQ));
 800441e:	6963      	ldr	r3, [r4, #20]
 8004420:	3b02      	subs	r3, #2
 8004422:	2b0d      	cmp	r3, #13
 8004424:	d904      	bls.n	8004430 <HAL_RCCEx_PeriphCLKConfig+0x184>
 8004426:	f640 01f5 	movw	r1, #2293	; 0x8f5
 800442a:	484c      	ldr	r0, [pc, #304]	; (800455c <HAL_RCCEx_PeriphCLKConfig+0x2b0>)
 800442c:	f7fc fc71 	bl	8000d12 <assert_failed>
      assert_param(IS_RCC_PLLSAI_DIVQ_VALUE(PeriphClkInit->PLLSAIDivQ));
 8004430:	6a23      	ldr	r3, [r4, #32]
 8004432:	3b01      	subs	r3, #1
 8004434:	2b1f      	cmp	r3, #31
 8004436:	d904      	bls.n	8004442 <HAL_RCCEx_PeriphCLKConfig+0x196>
 8004438:	f640 01f6 	movw	r1, #2294	; 0x8f6
 800443c:	4847      	ldr	r0, [pc, #284]	; (800455c <HAL_RCCEx_PeriphCLKConfig+0x2b0>)
 800443e:	f7fc fc68 	bl	8000d12 <assert_failed>
      tmpreg1 = ((RCC->PLLSAICFGR & RCC_PLLSAICFGR_PLLSAIR) >> POSITION_VAL(RCC_PLLSAICFGR_PLLSAIR));
 8004442:	4949      	ldr	r1, [pc, #292]	; (8004568 <HAL_RCCEx_PeriphCLKConfig+0x2bc>)
 8004444:	f04f 4ee0 	mov.w	lr, #1879048192	; 0x70000000
 8004448:	f8d1 2088 	ldr.w	r2, [r1, #136]	; 0x88
 800444c:	fa9e f7ae 	rbit	r7, lr
 8004450:	f647 73c0 	movw	r3, #32704	; 0x7fc0
 8004454:	fab7 f787 	clz	r7, r7
 8004458:	fa93 f3a3 	rbit	r3, r3
 800445c:	f04f 6070 	mov.w	r0, #251658240	; 0xf000000
      __HAL_RCC_PLLSAI_CONFIG(PeriphClkInit->PLLSAI.PLLSAIN , PeriphClkInit->PLLSAI.PLLSAIQ, tmpreg1);
 8004460:	fab3 f683 	clz	r6, r3
 8004464:	fa90 f0a0 	rbit	r0, r0
 8004468:	fab0 f080 	clz	r0, r0
 800446c:	fa9e feae 	rbit	lr, lr
 8004470:	6923      	ldr	r3, [r4, #16]
 8004472:	40b3      	lsls	r3, r6
 8004474:	6966      	ldr	r6, [r4, #20]
      tmpreg1 = ((RCC->PLLSAICFGR & RCC_PLLSAICFGR_PLLSAIR) >> POSITION_VAL(RCC_PLLSAICFGR_PLLSAIR));
 8004476:	f002 42e0 	and.w	r2, r2, #1879048192	; 0x70000000
      __HAL_RCC_PLLSAI_CONFIG(PeriphClkInit->PLLSAI.PLLSAIN , PeriphClkInit->PLLSAI.PLLSAIQ, tmpreg1);
 800447a:	fabe fe8e 	clz	lr, lr
 800447e:	fa06 f000 	lsl.w	r0, r6, r0
      tmpreg1 = ((RCC->PLLSAICFGR & RCC_PLLSAICFGR_PLLSAIR) >> POSITION_VAL(RCC_PLLSAICFGR_PLLSAIR));
 8004482:	40fa      	lsrs	r2, r7
      __HAL_RCC_PLLSAI_CONFIG(PeriphClkInit->PLLSAI.PLLSAIN , PeriphClkInit->PLLSAI.PLLSAIQ, tmpreg1);
 8004484:	fa02 f20e 	lsl.w	r2, r2, lr
 8004488:	4303      	orrs	r3, r0
 800448a:	4313      	orrs	r3, r2
 800448c:	f8c1 3088 	str.w	r3, [r1, #136]	; 0x88
      __HAL_RCC_PLLSAI_PLLSAICLKDIVQ_CONFIG(PeriphClkInit->PLLSAIDivQ);
 8004490:	f8d1 308c 	ldr.w	r3, [r1, #140]	; 0x8c
 8004494:	6a22      	ldr	r2, [r4, #32]
 8004496:	f423 53f8 	bic.w	r3, r3, #7936	; 0x1f00
 800449a:	3a01      	subs	r2, #1
 800449c:	ea43 2302 	orr.w	r3, r3, r2, lsl #8
 80044a0:	f8c1 308c 	str.w	r3, [r1, #140]	; 0x8c
    if(((PeriphClkInit->PeriphClockSelection) & RCC_PERIPHCLK_LTDC) == (RCC_PERIPHCLK_LTDC))
 80044a4:	6823      	ldr	r3, [r4, #0]
 80044a6:	071e      	lsls	r6, r3, #28
 80044a8:	d540      	bpl.n	800452c <HAL_RCCEx_PeriphCLKConfig+0x280>
      assert_param(IS_RCC_PLLSAIR_VALUE(PeriphClkInit->PLLSAI.PLLSAIR));
 80044aa:	69a3      	ldr	r3, [r4, #24]
 80044ac:	3b02      	subs	r3, #2
 80044ae:	2b05      	cmp	r3, #5
 80044b0:	d904      	bls.n	80044bc <HAL_RCCEx_PeriphCLKConfig+0x210>
 80044b2:	f640 1105 	movw	r1, #2309	; 0x905
 80044b6:	4829      	ldr	r0, [pc, #164]	; (800455c <HAL_RCCEx_PeriphCLKConfig+0x2b0>)
 80044b8:	f7fc fc2b 	bl	8000d12 <assert_failed>
      assert_param(IS_RCC_PLLSAI_DIVR_VALUE(PeriphClkInit->PLLSAIDivR));
 80044bc:	6a63      	ldr	r3, [r4, #36]	; 0x24
 80044be:	f433 3340 	bics.w	r3, r3, #196608	; 0x30000
 80044c2:	d004      	beq.n	80044ce <HAL_RCCEx_PeriphCLKConfig+0x222>
 80044c4:	f640 1106 	movw	r1, #2310	; 0x906
 80044c8:	4824      	ldr	r0, [pc, #144]	; (800455c <HAL_RCCEx_PeriphCLKConfig+0x2b0>)
 80044ca:	f7fc fc22 	bl	8000d12 <assert_failed>
      tmpreg1 = ((RCC->PLLSAICFGR & RCC_PLLSAICFGR_PLLSAIQ) >> POSITION_VAL(RCC_PLLSAICFGR_PLLSAIQ));
 80044ce:	4826      	ldr	r0, [pc, #152]	; (8004568 <HAL_RCCEx_PeriphCLKConfig+0x2bc>)
 80044d0:	f04f 6170 	mov.w	r1, #251658240	; 0xf000000
 80044d4:	f8d0 2088 	ldr.w	r2, [r0, #136]	; 0x88
 80044d8:	fa91 fea1 	rbit	lr, r1
 80044dc:	f647 73c0 	movw	r3, #32704	; 0x7fc0
 80044e0:	fabe fe8e 	clz	lr, lr
 80044e4:	fa93 f3a3 	rbit	r3, r3
      __HAL_RCC_PLLSAI_CONFIG(PeriphClkInit->PLLSAI.PLLSAIN , tmpreg1, PeriphClkInit->PLLSAI.PLLSAIR);
 80044e8:	fab3 f783 	clz	r7, r3
 80044ec:	fa91 f1a1 	rbit	r1, r1
 80044f0:	f04f 46e0 	mov.w	r6, #1879048192	; 0x70000000
 80044f4:	fab1 f181 	clz	r1, r1
 80044f8:	fa96 f6a6 	rbit	r6, r6
 80044fc:	6923      	ldr	r3, [r4, #16]
 80044fe:	40bb      	lsls	r3, r7
 8004500:	69a7      	ldr	r7, [r4, #24]
 8004502:	fab6 f686 	clz	r6, r6
      tmpreg1 = ((RCC->PLLSAICFGR & RCC_PLLSAICFGR_PLLSAIQ) >> POSITION_VAL(RCC_PLLSAICFGR_PLLSAIQ));
 8004506:	f002 6270 	and.w	r2, r2, #251658240	; 0xf000000
      __HAL_RCC_PLLSAI_CONFIG(PeriphClkInit->PLLSAI.PLLSAIN , tmpreg1, PeriphClkInit->PLLSAI.PLLSAIR);
 800450a:	fa07 f606 	lsl.w	r6, r7, r6
      tmpreg1 = ((RCC->PLLSAICFGR & RCC_PLLSAICFGR_PLLSAIQ) >> POSITION_VAL(RCC_PLLSAICFGR_PLLSAIQ));
 800450e:	fa22 f20e 	lsr.w	r2, r2, lr
      __HAL_RCC_PLLSAI_CONFIG(PeriphClkInit->PLLSAI.PLLSAIN , tmpreg1, PeriphClkInit->PLLSAI.PLLSAIR);
 8004512:	408a      	lsls	r2, r1
 8004514:	4333      	orrs	r3, r6
 8004516:	4313      	orrs	r3, r2
 8004518:	f8c0 3088 	str.w	r3, [r0, #136]	; 0x88
      __HAL_RCC_PLLSAI_PLLSAICLKDIVR_CONFIG(PeriphClkInit->PLLSAIDivR);
 800451c:	f8d0 308c 	ldr.w	r3, [r0, #140]	; 0x8c
 8004520:	6a62      	ldr	r2, [r4, #36]	; 0x24
 8004522:	f423 3340 	bic.w	r3, r3, #196608	; 0x30000
 8004526:	4313      	orrs	r3, r2
 8004528:	f8c0 308c 	str.w	r3, [r0, #140]	; 0x8c
    __HAL_RCC_PLLSAI_ENABLE();
 800452c:	2301      	movs	r3, #1
 800452e:	602b      	str	r3, [r5, #0]
    tickstart = HAL_GetTick();
 8004530:	f7fd fa6e 	bl	8001a10 <HAL_GetTick>
    while(__HAL_RCC_PLLSAI_GET_FLAG() == RESET)
 8004534:	4d0c      	ldr	r5, [pc, #48]	; (8004568 <HAL_RCCEx_PeriphCLKConfig+0x2bc>)
    tickstart = HAL_GetTick();
 8004536:	4606      	mov	r6, r0
    while(__HAL_RCC_PLLSAI_GET_FLAG() == RESET)
 8004538:	682b      	ldr	r3, [r5, #0]
 800453a:	0098      	lsls	r0, r3, #2
 800453c:	f53f aec9 	bmi.w	80042d2 <HAL_RCCEx_PeriphCLKConfig+0x26>
      if((HAL_GetTick() - tickstart ) > PLLSAI_TIMEOUT_VALUE)
 8004540:	f7fd fa66 	bl	8001a10 <HAL_GetTick>
 8004544:	1b80      	subs	r0, r0, r6
 8004546:	2802      	cmp	r0, #2
 8004548:	d9f6      	bls.n	8004538 <HAL_RCCEx_PeriphCLKConfig+0x28c>
 800454a:	e74d      	b.n	80043e8 <HAL_RCCEx_PeriphCLKConfig+0x13c>
      if((HAL_GetTick() - tickstart ) > PLLSAI_TIMEOUT_VALUE)
 800454c:	f7fd fa60 	bl	8001a10 <HAL_GetTick>
 8004550:	1bc0      	subs	r0, r0, r7
 8004552:	2802      	cmp	r0, #2
 8004554:	f67f af5c 	bls.w	8004410 <HAL_RCCEx_PeriphCLKConfig+0x164>
 8004558:	e746      	b.n	80043e8 <HAL_RCCEx_PeriphCLKConfig+0x13c>
 800455a:	bf00      	nop
 800455c:	08008411 	.word	0x08008411
 8004560:	424711e0 	.word	0x424711e0
 8004564:	42470068 	.word	0x42470068
 8004568:	40023800 	.word	0x40023800
 800456c:	42470070 	.word	0x42470070
    assert_param(IS_RCC_RTCCLKSOURCE(PeriphClkInit->RTCClockSelection));
 8004570:	6aa3      	ldr	r3, [r4, #40]	; 0x28
 8004572:	f5b3 7f80 	cmp.w	r3, #256	; 0x100
 8004576:	d02e      	beq.n	80045d6 <HAL_RCCEx_PeriphCLKConfig+0x32a>
 8004578:	f5b3 7f00 	cmp.w	r3, #512	; 0x200
 800457c:	d02b      	beq.n	80045d6 <HAL_RCCEx_PeriphCLKConfig+0x32a>
 800457e:	4a43      	ldr	r2, [pc, #268]	; (800468c <HAL_RCCEx_PeriphCLKConfig+0x3e0>)
 8004580:	f423 20a0 	bic.w	r0, r3, #327680	; 0x50000
 8004584:	4290      	cmp	r0, r2
 8004586:	f423 3180 	bic.w	r1, r3, #65536	; 0x10000
 800458a:	d024      	beq.n	80045d6 <HAL_RCCEx_PeriphCLKConfig+0x32a>
 800458c:	f423 2010 	bic.w	r0, r3, #589824	; 0x90000
 8004590:	f502 3200 	add.w	r2, r2, #131072	; 0x20000
 8004594:	4290      	cmp	r0, r2
 8004596:	d01e      	beq.n	80045d6 <HAL_RCCEx_PeriphCLKConfig+0x32a>
 8004598:	483d      	ldr	r0, [pc, #244]	; (8004690 <HAL_RCCEx_PeriphCLKConfig+0x3e4>)
 800459a:	f423 3240 	bic.w	r2, r3, #196608	; 0x30000
 800459e:	4282      	cmp	r2, r0
 80045a0:	d019      	beq.n	80045d6 <HAL_RCCEx_PeriphCLKConfig+0x32a>
 80045a2:	f423 1388 	bic.w	r3, r3, #1114112	; 0x110000
 80045a6:	f500 20c0 	add.w	r0, r0, #393216	; 0x60000
 80045aa:	4283      	cmp	r3, r0
 80045ac:	d013      	beq.n	80045d6 <HAL_RCCEx_PeriphCLKConfig+0x32a>
 80045ae:	4b39      	ldr	r3, [pc, #228]	; (8004694 <HAL_RCCEx_PeriphCLKConfig+0x3e8>)
 80045b0:	429a      	cmp	r2, r3
 80045b2:	d010      	beq.n	80045d6 <HAL_RCCEx_PeriphCLKConfig+0x32a>
 80045b4:	f503 2380 	add.w	r3, r3, #262144	; 0x40000
 80045b8:	429a      	cmp	r2, r3
 80045ba:	d00c      	beq.n	80045d6 <HAL_RCCEx_PeriphCLKConfig+0x32a>
 80045bc:	f503 2380 	add.w	r3, r3, #262144	; 0x40000
 80045c0:	429a      	cmp	r2, r3
 80045c2:	d008      	beq.n	80045d6 <HAL_RCCEx_PeriphCLKConfig+0x32a>
 80045c4:	f503 2380 	add.w	r3, r3, #262144	; 0x40000
 80045c8:	4299      	cmp	r1, r3
 80045ca:	d004      	beq.n	80045d6 <HAL_RCCEx_PeriphCLKConfig+0x32a>
 80045cc:	f640 1125 	movw	r1, #2341	; 0x925
 80045d0:	4831      	ldr	r0, [pc, #196]	; (8004698 <HAL_RCCEx_PeriphCLKConfig+0x3ec>)
 80045d2:	f7fc fb9e 	bl	8000d12 <assert_failed>
    __HAL_RCC_PWR_CLK_ENABLE();
 80045d6:	2300      	movs	r3, #0
 80045d8:	9301      	str	r3, [sp, #4]
 80045da:	4b30      	ldr	r3, [pc, #192]	; (800469c <HAL_RCCEx_PeriphCLKConfig+0x3f0>)
    PWR->CR |= PWR_CR_DBP;
 80045dc:	4d30      	ldr	r5, [pc, #192]	; (80046a0 <HAL_RCCEx_PeriphCLKConfig+0x3f4>)
    __HAL_RCC_PWR_CLK_ENABLE();
 80045de:	6c1a      	ldr	r2, [r3, #64]	; 0x40
 80045e0:	f042 5280 	orr.w	r2, r2, #268435456	; 0x10000000
 80045e4:	641a      	str	r2, [r3, #64]	; 0x40
 80045e6:	6c1b      	ldr	r3, [r3, #64]	; 0x40
 80045e8:	f003 5380 	and.w	r3, r3, #268435456	; 0x10000000
 80045ec:	9301      	str	r3, [sp, #4]
 80045ee:	9b01      	ldr	r3, [sp, #4]
    PWR->CR |= PWR_CR_DBP;
 80045f0:	682b      	ldr	r3, [r5, #0]
 80045f2:	f443 7380 	orr.w	r3, r3, #256	; 0x100
 80045f6:	602b      	str	r3, [r5, #0]
    tickstart = HAL_GetTick();
 80045f8:	f7fd fa0a 	bl	8001a10 <HAL_GetTick>
 80045fc:	4606      	mov	r6, r0
    while((PWR->CR & PWR_CR_DBP) == RESET)
 80045fe:	682b      	ldr	r3, [r5, #0]
 8004600:	05d9      	lsls	r1, r3, #23
 8004602:	d51a      	bpl.n	800463a <HAL_RCCEx_PeriphCLKConfig+0x38e>
    tmpreg1 = (RCC->BDCR & RCC_BDCR_RTCSEL);
 8004604:	4d25      	ldr	r5, [pc, #148]	; (800469c <HAL_RCCEx_PeriphCLKConfig+0x3f0>)
 8004606:	6f2b      	ldr	r3, [r5, #112]	; 0x70
    if((tmpreg1 != 0x00000000U) && ((tmpreg1) != (PeriphClkInit->RTCClockSelection & RCC_BDCR_RTCSEL)))
 8004608:	f413 7340 	ands.w	r3, r3, #768	; 0x300
 800460c:	d11b      	bne.n	8004646 <HAL_RCCEx_PeriphCLKConfig+0x39a>
    __HAL_RCC_RTC_CONFIG(PeriphClkInit->RTCClockSelection);
 800460e:	6aa3      	ldr	r3, [r4, #40]	; 0x28
 8004610:	f403 7240 	and.w	r2, r3, #768	; 0x300
 8004614:	f5b2 7f40 	cmp.w	r2, #768	; 0x300
 8004618:	4a20      	ldr	r2, [pc, #128]	; (800469c <HAL_RCCEx_PeriphCLKConfig+0x3f0>)
 800461a:	d133      	bne.n	8004684 <HAL_RCCEx_PeriphCLKConfig+0x3d8>
 800461c:	6891      	ldr	r1, [r2, #8]
 800461e:	f023 4070 	bic.w	r0, r3, #4026531840	; 0xf0000000
 8004622:	f421 11f8 	bic.w	r1, r1, #2031616	; 0x1f0000
 8004626:	f420 7040 	bic.w	r0, r0, #768	; 0x300
 800462a:	4301      	orrs	r1, r0
 800462c:	6091      	str	r1, [r2, #8]
 800462e:	6f11      	ldr	r1, [r2, #112]	; 0x70
 8004630:	f3c3 030b 	ubfx	r3, r3, #0, #12
 8004634:	430b      	orrs	r3, r1
 8004636:	6713      	str	r3, [r2, #112]	; 0x70
 8004638:	e64f      	b.n	80042da <HAL_RCCEx_PeriphCLKConfig+0x2e>
      if((HAL_GetTick() - tickstart ) > RCC_DBP_TIMEOUT_VALUE)
 800463a:	f7fd f9e9 	bl	8001a10 <HAL_GetTick>
 800463e:	1b80      	subs	r0, r0, r6
 8004640:	2802      	cmp	r0, #2
 8004642:	d9dc      	bls.n	80045fe <HAL_RCCEx_PeriphCLKConfig+0x352>
 8004644:	e6d0      	b.n	80043e8 <HAL_RCCEx_PeriphCLKConfig+0x13c>
    if((tmpreg1 != 0x00000000U) && ((tmpreg1) != (PeriphClkInit->RTCClockSelection & RCC_BDCR_RTCSEL)))
 8004646:	6aa2      	ldr	r2, [r4, #40]	; 0x28
 8004648:	f402 7240 	and.w	r2, r2, #768	; 0x300
 800464c:	4293      	cmp	r3, r2
 800464e:	d0de      	beq.n	800460e <HAL_RCCEx_PeriphCLKConfig+0x362>
      tmpreg1 = (RCC->BDCR & ~(RCC_BDCR_RTCSEL));
 8004650:	6f2b      	ldr	r3, [r5, #112]	; 0x70
      __HAL_RCC_BACKUPRESET_FORCE();
 8004652:	4a14      	ldr	r2, [pc, #80]	; (80046a4 <HAL_RCCEx_PeriphCLKConfig+0x3f8>)
 8004654:	2101      	movs	r1, #1
 8004656:	6011      	str	r1, [r2, #0]
      tmpreg1 = (RCC->BDCR & ~(RCC_BDCR_RTCSEL));
 8004658:	f423 7340 	bic.w	r3, r3, #768	; 0x300
      __HAL_RCC_BACKUPRESET_RELEASE();
 800465c:	2100      	movs	r1, #0
 800465e:	6011      	str	r1, [r2, #0]
      RCC->BDCR = tmpreg1;
 8004660:	672b      	str	r3, [r5, #112]	; 0x70
      if(HAL_IS_BIT_SET(RCC->BDCR, RCC_BDCR_LSEON))
 8004662:	6f2b      	ldr	r3, [r5, #112]	; 0x70
 8004664:	07da      	lsls	r2, r3, #31
 8004666:	d5d2      	bpl.n	800460e <HAL_RCCEx_PeriphCLKConfig+0x362>
        tickstart = HAL_GetTick();
 8004668:	f7fd f9d2 	bl	8001a10 <HAL_GetTick>
          if((HAL_GetTick() - tickstart ) > RCC_LSE_TIMEOUT_VALUE)
 800466c:	f241 3788 	movw	r7, #5000	; 0x1388
        tickstart = HAL_GetTick();
 8004670:	4606      	mov	r6, r0
        while(__HAL_RCC_GET_FLAG(RCC_FLAG_LSERDY) == RESET)
 8004672:	6f2b      	ldr	r3, [r5, #112]	; 0x70
 8004674:	079b      	lsls	r3, r3, #30
 8004676:	d4ca      	bmi.n	800460e <HAL_RCCEx_PeriphCLKConfig+0x362>
          if((HAL_GetTick() - tickstart ) > RCC_LSE_TIMEOUT_VALUE)
 8004678:	f7fd f9ca 	bl	8001a10 <HAL_GetTick>
 800467c:	1b80      	subs	r0, r0, r6
 800467e:	42b8      	cmp	r0, r7
 8004680:	d9f7      	bls.n	8004672 <HAL_RCCEx_PeriphCLKConfig+0x3c6>
 8004682:	e6b1      	b.n	80043e8 <HAL_RCCEx_PeriphCLKConfig+0x13c>
    __HAL_RCC_RTC_CONFIG(PeriphClkInit->RTCClockSelection);
 8004684:	6891      	ldr	r1, [r2, #8]
 8004686:	f421 11f8 	bic.w	r1, r1, #2031616	; 0x1f0000
 800468a:	e7cf      	b.n	800462c <HAL_RCCEx_PeriphCLKConfig+0x380>
 800468c:	00020300 	.word	0x00020300
 8004690:	00080300 	.word	0x00080300
 8004694:	00100300 	.word	0x00100300
 8004698:	08008411 	.word	0x08008411
 800469c:	40023800 	.word	0x40023800
 80046a0:	40007000 	.word	0x40007000
 80046a4:	42470e40 	.word	0x42470e40

080046a8 <HAL_SDRAM_Init>:
  *                the configuration information for SDRAM module.
  * @param  Timing: Pointer to SDRAM control timing structure 
  * @retval HAL status
  */
HAL_StatusTypeDef HAL_SDRAM_Init(SDRAM_HandleTypeDef *hsdram, FMC_SDRAM_TimingTypeDef *Timing)
{   
 80046a8:	b538      	push	{r3, r4, r5, lr}
 80046aa:	460d      	mov	r5, r1
  /* Check the SDRAM handle parameter */
  if(hsdram == NULL)
 80046ac:	4604      	mov	r4, r0
 80046ae:	b1c8      	cbz	r0, 80046e4 <HAL_SDRAM_Init+0x3c>
  {
    return HAL_ERROR;
  }
  
  if(hsdram->State == HAL_SDRAM_STATE_RESET)
 80046b0:	f890 302c 	ldrb.w	r3, [r0, #44]	; 0x2c
 80046b4:	f003 02ff 	and.w	r2, r3, #255	; 0xff
 80046b8:	b91b      	cbnz	r3, 80046c2 <HAL_SDRAM_Init+0x1a>
  {  
    /* Allocate lock resource and initialize it */
    hsdram->Lock = HAL_UNLOCKED;
 80046ba:	f880 202d 	strb.w	r2, [r0, #45]	; 0x2d
    /* Initialize the low level hardware (MSP) */
    HAL_SDRAM_MspInit(hsdram);
 80046be:	f7fb ff39 	bl	8000534 <HAL_SDRAM_MspInit>
  }
  
  /* Initialize the SDRAM controller state */
  hsdram->State = HAL_SDRAM_STATE_BUSY;
 80046c2:	2302      	movs	r3, #2
 80046c4:	f884 302c 	strb.w	r3, [r4, #44]	; 0x2c
  
  /* Initialize SDRAM control Interface */
  FMC_SDRAM_Init(hsdram->Instance, &(hsdram->Init));
 80046c8:	1d21      	adds	r1, r4, #4
 80046ca:	6820      	ldr	r0, [r4, #0]
 80046cc:	f001 fa28 	bl	8005b20 <FMC_SDRAM_Init>
  
  /* Initialize SDRAM timing Interface */
  FMC_SDRAM_Timing_Init(hsdram->Instance, Timing, hsdram->Init.SDBank); 
 80046d0:	6862      	ldr	r2, [r4, #4]
 80046d2:	6820      	ldr	r0, [r4, #0]
 80046d4:	4629      	mov	r1, r5
 80046d6:	f001 fad1 	bl	8005c7c <FMC_SDRAM_Timing_Init>
  
  /* Update the SDRAM controller state */
  hsdram->State = HAL_SDRAM_STATE_READY;
 80046da:	2301      	movs	r3, #1
 80046dc:	f884 302c 	strb.w	r3, [r4, #44]	; 0x2c
  
  return HAL_OK;
 80046e0:	2000      	movs	r0, #0
 80046e2:	bd38      	pop	{r3, r4, r5, pc}
    return HAL_ERROR;
 80046e4:	2001      	movs	r0, #1
}
 80046e6:	bd38      	pop	{r3, r4, r5, pc}

080046e8 <HAL_SDRAM_RefreshErrorCallback>:
 80046e8:	4770      	bx	lr

080046ea <HAL_SDRAM_IRQHandler>:
  * @retval HAL status
*/
void HAL_SDRAM_IRQHandler(SDRAM_HandleTypeDef *hsdram)
{
  /* Check SDRAM interrupt Rising edge flag */
  if(__FMC_SDRAM_GET_FLAG(hsdram->Instance, FMC_SDRAM_FLAG_REFRESH_IT))
 80046ea:	6803      	ldr	r3, [r0, #0]
 80046ec:	699b      	ldr	r3, [r3, #24]
 80046ee:	07db      	lsls	r3, r3, #31
{
 80046f0:	b510      	push	{r4, lr}
 80046f2:	4604      	mov	r4, r0
  if(__FMC_SDRAM_GET_FLAG(hsdram->Instance, FMC_SDRAM_FLAG_REFRESH_IT))
 80046f4:	d506      	bpl.n	8004704 <HAL_SDRAM_IRQHandler+0x1a>
  {
    /* SDRAM refresh error interrupt callback */
    HAL_SDRAM_RefreshErrorCallback(hsdram);
 80046f6:	f7ff fff7 	bl	80046e8 <HAL_SDRAM_RefreshErrorCallback>
    
    /* Clear SDRAM refresh error interrupt pending bit */
    __FMC_SDRAM_CLEAR_FLAG(hsdram->Instance, FMC_SDRAM_FLAG_REFRESH_ERROR);
 80046fa:	6822      	ldr	r2, [r4, #0]
 80046fc:	6953      	ldr	r3, [r2, #20]
 80046fe:	f043 0301 	orr.w	r3, r3, #1
 8004702:	6153      	str	r3, [r2, #20]
 8004704:	bd10      	pop	{r4, pc}

08004706 <HAL_SDRAM_SendCommand>:
  * @param  Command: SDRAM command structure
  * @param  Timeout: Timeout duration
  * @retval HAL status
  */  
HAL_StatusTypeDef HAL_SDRAM_SendCommand(SDRAM_HandleTypeDef *hsdram, FMC_SDRAM_CommandTypeDef *Command, uint32_t Timeout)
{
 8004706:	b538      	push	{r3, r4, r5, lr}
 8004708:	4604      	mov	r4, r0
  /* Check the SDRAM controller state */
  if(hsdram->State == HAL_SDRAM_STATE_BUSY)
 800470a:	f890 002c 	ldrb.w	r0, [r0, #44]	; 0x2c
 800470e:	b2c0      	uxtb	r0, r0
 8004710:	2802      	cmp	r0, #2
{
 8004712:	460d      	mov	r5, r1
  if(hsdram->State == HAL_SDRAM_STATE_BUSY)
 8004714:	d00d      	beq.n	8004732 <HAL_SDRAM_SendCommand+0x2c>
  {
    return HAL_BUSY;
  }
  
  /* Update the SDRAM state */
  hsdram->State = HAL_SDRAM_STATE_BUSY;
 8004716:	2302      	movs	r3, #2
 8004718:	f884 302c 	strb.w	r3, [r4, #44]	; 0x2c
  
  /* Send SDRAM command */
  FMC_SDRAM_SendCommand(hsdram->Instance, Command, Timeout);
 800471c:	6820      	ldr	r0, [r4, #0]
 800471e:	f001 fb4b 	bl	8005db8 <FMC_SDRAM_SendCommand>
  
  /* Update the SDRAM controller state */
  if(Command->CommandMode == FMC_SDRAM_CMD_PALL)
 8004722:	682b      	ldr	r3, [r5, #0]
 8004724:	2b02      	cmp	r3, #2
  {
    hsdram->State = HAL_SDRAM_STATE_PRECHARGED;
 8004726:	bf0c      	ite	eq
 8004728:	2305      	moveq	r3, #5
  }
  else
  {
    hsdram->State = HAL_SDRAM_STATE_READY;
 800472a:	2301      	movne	r3, #1
 800472c:	f884 302c 	strb.w	r3, [r4, #44]	; 0x2c
  }
  
  return HAL_OK;  
 8004730:	2000      	movs	r0, #0
}
 8004732:	bd38      	pop	{r3, r4, r5, pc}

08004734 <HAL_SDRAM_ProgramRefreshRate>:
  *                the configuration information for SDRAM module.  
  * @param  RefreshRate: The SDRAM refresh rate value       
  * @retval HAL status
  */
HAL_StatusTypeDef HAL_SDRAM_ProgramRefreshRate(SDRAM_HandleTypeDef *hsdram, uint32_t RefreshRate)
{
 8004734:	b510      	push	{r4, lr}
 8004736:	4604      	mov	r4, r0
  /* Check the SDRAM controller state */
  if(hsdram->State == HAL_SDRAM_STATE_BUSY)
 8004738:	f890 002c 	ldrb.w	r0, [r0, #44]	; 0x2c
 800473c:	b2c0      	uxtb	r0, r0
 800473e:	2802      	cmp	r0, #2
 8004740:	d009      	beq.n	8004756 <HAL_SDRAM_ProgramRefreshRate+0x22>
  {
    return HAL_BUSY;
  } 
  
  /* Update the SDRAM state */
  hsdram->State = HAL_SDRAM_STATE_BUSY;
 8004742:	2302      	movs	r3, #2
 8004744:	f884 302c 	strb.w	r3, [r4, #44]	; 0x2c
  
  /* Program the refresh rate */
  FMC_SDRAM_ProgramRefreshRate(hsdram->Instance ,RefreshRate);
 8004748:	6820      	ldr	r0, [r4, #0]
 800474a:	f001 fb8d 	bl	8005e68 <FMC_SDRAM_ProgramRefreshRate>
  
  /* Update the SDRAM state */
  hsdram->State = HAL_SDRAM_STATE_READY;
 800474e:	2301      	movs	r3, #1
 8004750:	f884 302c 	strb.w	r3, [r4, #44]	; 0x2c
  
  return HAL_OK;   
 8004754:	2000      	movs	r0, #0
}
 8004756:	bd10      	pop	{r4, pc}

08004758 <SPI_WaitFlagStateUntilTimeout>:
  * @param Timeout: Timeout duration
  * @param Tickstart: tick start value
  * @retval HAL status
  */
static HAL_StatusTypeDef SPI_WaitFlagStateUntilTimeout(SPI_HandleTypeDef *hspi, uint32_t Flag, uint32_t State, uint32_t Timeout, uint32_t Tickstart)
{
 8004758:	e92d 41f0 	stmdb	sp!, {r4, r5, r6, r7, r8, lr}
 800475c:	9e06      	ldr	r6, [sp, #24]
 800475e:	4604      	mov	r4, r0
 8004760:	4688      	mov	r8, r1
 8004762:	4617      	mov	r7, r2
 8004764:	461d      	mov	r5, r3
  while((((hspi->Instance->SR & Flag) == (Flag)) ? SET : RESET) != State)
 8004766:	6822      	ldr	r2, [r4, #0]
 8004768:	6893      	ldr	r3, [r2, #8]
 800476a:	ea38 0303 	bics.w	r3, r8, r3
 800476e:	bf0c      	ite	eq
 8004770:	2301      	moveq	r3, #1
 8004772:	2300      	movne	r3, #0
 8004774:	429f      	cmp	r7, r3
 8004776:	d102      	bne.n	800477e <SPI_WaitFlagStateUntilTimeout+0x26>
        return HAL_TIMEOUT;
      }
    }
  }

  return HAL_OK;
 8004778:	2000      	movs	r0, #0
}
 800477a:	e8bd 81f0 	ldmia.w	sp!, {r4, r5, r6, r7, r8, pc}
    if(Timeout != HAL_MAX_DELAY)
 800477e:	1c6b      	adds	r3, r5, #1
 8004780:	d0f2      	beq.n	8004768 <SPI_WaitFlagStateUntilTimeout+0x10>
      if((Timeout == 0U) || ((HAL_GetTick()-Tickstart) >= Timeout))
 8004782:	bb55      	cbnz	r5, 80047da <SPI_WaitFlagStateUntilTimeout+0x82>
        __HAL_SPI_DISABLE_IT(hspi, (SPI_IT_TXE | SPI_IT_RXNE | SPI_IT_ERR));
 8004784:	6823      	ldr	r3, [r4, #0]
 8004786:	685a      	ldr	r2, [r3, #4]
 8004788:	f022 02e0 	bic.w	r2, r2, #224	; 0xe0
 800478c:	605a      	str	r2, [r3, #4]
        if((hspi->Init.Mode == SPI_MODE_MASTER)&&((hspi->Init.Direction == SPI_DIRECTION_1LINE)||(hspi->Init.Direction == SPI_DIRECTION_2LINES_RXONLY)))
 800478e:	6862      	ldr	r2, [r4, #4]
 8004790:	f5b2 7f82 	cmp.w	r2, #260	; 0x104
 8004794:	d10a      	bne.n	80047ac <SPI_WaitFlagStateUntilTimeout+0x54>
 8004796:	68a2      	ldr	r2, [r4, #8]
 8004798:	f5b2 4f00 	cmp.w	r2, #32768	; 0x8000
 800479c:	d002      	beq.n	80047a4 <SPI_WaitFlagStateUntilTimeout+0x4c>
 800479e:	f5b2 6f80 	cmp.w	r2, #1024	; 0x400
 80047a2:	d103      	bne.n	80047ac <SPI_WaitFlagStateUntilTimeout+0x54>
          __HAL_SPI_DISABLE(hspi);
 80047a4:	681a      	ldr	r2, [r3, #0]
 80047a6:	f022 0240 	bic.w	r2, r2, #64	; 0x40
 80047aa:	601a      	str	r2, [r3, #0]
        if(hspi->Init.CRCCalculation == SPI_CRCCALCULATION_ENABLE)
 80047ac:	6aa2      	ldr	r2, [r4, #40]	; 0x28
 80047ae:	f5b2 5f00 	cmp.w	r2, #8192	; 0x2000
 80047b2:	d109      	bne.n	80047c8 <SPI_WaitFlagStateUntilTimeout+0x70>
          SPI_RESET_CRC(hspi);
 80047b4:	681a      	ldr	r2, [r3, #0]
 80047b6:	f422 5200 	bic.w	r2, r2, #8192	; 0x2000
 80047ba:	0412      	lsls	r2, r2, #16
 80047bc:	0c12      	lsrs	r2, r2, #16
 80047be:	601a      	str	r2, [r3, #0]
 80047c0:	681a      	ldr	r2, [r3, #0]
 80047c2:	f442 5200 	orr.w	r2, r2, #8192	; 0x2000
 80047c6:	601a      	str	r2, [r3, #0]
        hspi->State= HAL_SPI_STATE_READY;
 80047c8:	2301      	movs	r3, #1
 80047ca:	f884 3051 	strb.w	r3, [r4, #81]	; 0x51
        __HAL_UNLOCK(hspi);
 80047ce:	2300      	movs	r3, #0
 80047d0:	f884 3050 	strb.w	r3, [r4, #80]	; 0x50
 80047d4:	2003      	movs	r0, #3
 80047d6:	e8bd 81f0 	ldmia.w	sp!, {r4, r5, r6, r7, r8, pc}
      if((Timeout == 0U) || ((HAL_GetTick()-Tickstart) >= Timeout))
 80047da:	f7fd f919 	bl	8001a10 <HAL_GetTick>
 80047de:	1b80      	subs	r0, r0, r6
 80047e0:	4285      	cmp	r5, r0
 80047e2:	d8c0      	bhi.n	8004766 <SPI_WaitFlagStateUntilTimeout+0xe>
 80047e4:	e7ce      	b.n	8004784 <SPI_WaitFlagStateUntilTimeout+0x2c>

080047e6 <SPI_CheckFlag_BSY>:
  * @param Timeout: Timeout duration
  * @param Tickstart: tick start value
  * @retval HAL status
  */
static HAL_StatusTypeDef SPI_CheckFlag_BSY(SPI_HandleTypeDef *hspi, uint32_t Timeout, uint32_t Tickstart)
{
 80047e6:	b513      	push	{r0, r1, r4, lr}
  /* Control the BSY flag */
  if(SPI_WaitFlagStateUntilTimeout(hspi, SPI_FLAG_BSY, RESET, Timeout, Tickstart) != HAL_OK)
 80047e8:	460b      	mov	r3, r1
 80047ea:	9200      	str	r2, [sp, #0]
 80047ec:	2180      	movs	r1, #128	; 0x80
 80047ee:	2200      	movs	r2, #0
{
 80047f0:	4604      	mov	r4, r0
  if(SPI_WaitFlagStateUntilTimeout(hspi, SPI_FLAG_BSY, RESET, Timeout, Tickstart) != HAL_OK)
 80047f2:	f7ff ffb1 	bl	8004758 <SPI_WaitFlagStateUntilTimeout>
 80047f6:	b120      	cbz	r0, 8004802 <SPI_CheckFlag_BSY+0x1c>
  {
    SET_BIT(hspi->ErrorCode, HAL_SPI_ERROR_FLAG);
 80047f8:	6d63      	ldr	r3, [r4, #84]	; 0x54
 80047fa:	f043 0320 	orr.w	r3, r3, #32
 80047fe:	6563      	str	r3, [r4, #84]	; 0x54
    return HAL_TIMEOUT;
 8004800:	2003      	movs	r0, #3
  }
  return HAL_OK;
}
 8004802:	b002      	add	sp, #8
 8004804:	bd10      	pop	{r4, pc}
	...

08004808 <HAL_SPI_Init>:
{
 8004808:	b510      	push	{r4, lr}
  if(hspi == NULL)
 800480a:	4604      	mov	r4, r0
 800480c:	2800      	cmp	r0, #0
 800480e:	f000 80b0 	beq.w	8004972 <HAL_SPI_Init+0x16a>
  assert_param(IS_SPI_ALL_INSTANCE(hspi->Instance));
 8004812:	6803      	ldr	r3, [r0, #0]
 8004814:	4a58      	ldr	r2, [pc, #352]	; (8004978 <HAL_SPI_Init+0x170>)
 8004816:	4293      	cmp	r3, r2
 8004818:	d018      	beq.n	800484c <HAL_SPI_Init+0x44>
 800481a:	f5a2 4278 	sub.w	r2, r2, #63488	; 0xf800
 800481e:	4293      	cmp	r3, r2
 8004820:	d014      	beq.n	800484c <HAL_SPI_Init+0x44>
 8004822:	f502 6280 	add.w	r2, r2, #1024	; 0x400
 8004826:	4293      	cmp	r3, r2
 8004828:	d010      	beq.n	800484c <HAL_SPI_Init+0x44>
 800482a:	f502 4278 	add.w	r2, r2, #63488	; 0xf800
 800482e:	4293      	cmp	r3, r2
 8004830:	d00c      	beq.n	800484c <HAL_SPI_Init+0x44>
 8004832:	f502 52e0 	add.w	r2, r2, #7168	; 0x1c00
 8004836:	4293      	cmp	r3, r2
 8004838:	d008      	beq.n	800484c <HAL_SPI_Init+0x44>
 800483a:	f502 6280 	add.w	r2, r2, #1024	; 0x400
 800483e:	4293      	cmp	r3, r2
 8004840:	d004      	beq.n	800484c <HAL_SPI_Init+0x44>
 8004842:	f44f 7188 	mov.w	r1, #272	; 0x110
 8004846:	484d      	ldr	r0, [pc, #308]	; (800497c <HAL_SPI_Init+0x174>)
 8004848:	f7fc fa63 	bl	8000d12 <assert_failed>
  assert_param(IS_SPI_MODE(hspi->Init.Mode));
 800484c:	6863      	ldr	r3, [r4, #4]
 800484e:	b13b      	cbz	r3, 8004860 <HAL_SPI_Init+0x58>
 8004850:	f5b3 7f82 	cmp.w	r3, #260	; 0x104
 8004854:	d004      	beq.n	8004860 <HAL_SPI_Init+0x58>
 8004856:	f240 1111 	movw	r1, #273	; 0x111
 800485a:	4848      	ldr	r0, [pc, #288]	; (800497c <HAL_SPI_Init+0x174>)
 800485c:	f7fc fa59 	bl	8000d12 <assert_failed>
  assert_param(IS_SPI_DIRECTION(hspi->Init.Direction));
 8004860:	68a3      	ldr	r3, [r4, #8]
 8004862:	f433 6280 	bics.w	r2, r3, #1024	; 0x400
 8004866:	d007      	beq.n	8004878 <HAL_SPI_Init+0x70>
 8004868:	f5b3 4f00 	cmp.w	r3, #32768	; 0x8000
 800486c:	d004      	beq.n	8004878 <HAL_SPI_Init+0x70>
 800486e:	f44f 7189 	mov.w	r1, #274	; 0x112
 8004872:	4842      	ldr	r0, [pc, #264]	; (800497c <HAL_SPI_Init+0x174>)
 8004874:	f7fc fa4d 	bl	8000d12 <assert_failed>
  assert_param(IS_SPI_DATASIZE(hspi->Init.DataSize));
 8004878:	68e3      	ldr	r3, [r4, #12]
 800487a:	f433 6300 	bics.w	r3, r3, #2048	; 0x800
 800487e:	d004      	beq.n	800488a <HAL_SPI_Init+0x82>
 8004880:	f240 1113 	movw	r1, #275	; 0x113
 8004884:	483d      	ldr	r0, [pc, #244]	; (800497c <HAL_SPI_Init+0x174>)
 8004886:	f7fc fa44 	bl	8000d12 <assert_failed>
  assert_param(IS_SPI_NSS(hspi->Init.NSS));
 800488a:	69a3      	ldr	r3, [r4, #24]
 800488c:	f433 7200 	bics.w	r2, r3, #512	; 0x200
 8004890:	d007      	beq.n	80048a2 <HAL_SPI_Init+0x9a>
 8004892:	f5b3 2f80 	cmp.w	r3, #262144	; 0x40000
 8004896:	d004      	beq.n	80048a2 <HAL_SPI_Init+0x9a>
 8004898:	f44f 718a 	mov.w	r1, #276	; 0x114
 800489c:	4837      	ldr	r0, [pc, #220]	; (800497c <HAL_SPI_Init+0x174>)
 800489e:	f7fc fa38 	bl	8000d12 <assert_failed>
  assert_param(IS_SPI_BAUDRATE_PRESCALER(hspi->Init.BaudRatePrescaler));
 80048a2:	69e3      	ldr	r3, [r4, #28]
 80048a4:	f033 0318 	bics.w	r3, r3, #24
 80048a8:	d006      	beq.n	80048b8 <HAL_SPI_Init+0xb0>
 80048aa:	2b20      	cmp	r3, #32
 80048ac:	d004      	beq.n	80048b8 <HAL_SPI_Init+0xb0>
 80048ae:	f240 1115 	movw	r1, #277	; 0x115
 80048b2:	4832      	ldr	r0, [pc, #200]	; (800497c <HAL_SPI_Init+0x174>)
 80048b4:	f7fc fa2d 	bl	8000d12 <assert_failed>
  assert_param(IS_SPI_FIRST_BIT(hspi->Init.FirstBit));
 80048b8:	6a23      	ldr	r3, [r4, #32]
 80048ba:	f033 0380 	bics.w	r3, r3, #128	; 0x80
 80048be:	d004      	beq.n	80048ca <HAL_SPI_Init+0xc2>
 80048c0:	f44f 718b 	mov.w	r1, #278	; 0x116
 80048c4:	482d      	ldr	r0, [pc, #180]	; (800497c <HAL_SPI_Init+0x174>)
 80048c6:	f7fc fa24 	bl	8000d12 <assert_failed>
  assert_param(IS_SPI_TIMODE(hspi->Init.TIMode));
 80048ca:	6a63      	ldr	r3, [r4, #36]	; 0x24
 80048cc:	f033 0310 	bics.w	r3, r3, #16
 80048d0:	d004      	beq.n	80048dc <HAL_SPI_Init+0xd4>
 80048d2:	f240 1117 	movw	r1, #279	; 0x117
 80048d6:	4829      	ldr	r0, [pc, #164]	; (800497c <HAL_SPI_Init+0x174>)
 80048d8:	f7fc fa1b 	bl	8000d12 <assert_failed>
  if(hspi->Init.TIMode == SPI_TIMODE_DISABLE)
 80048dc:	6a63      	ldr	r3, [r4, #36]	; 0x24
 80048de:	b983      	cbnz	r3, 8004902 <HAL_SPI_Init+0xfa>
    assert_param(IS_SPI_CPOL(hspi->Init.CLKPolarity));
 80048e0:	6923      	ldr	r3, [r4, #16]
 80048e2:	f033 0302 	bics.w	r3, r3, #2
 80048e6:	d004      	beq.n	80048f2 <HAL_SPI_Init+0xea>
 80048e8:	f44f 718d 	mov.w	r1, #282	; 0x11a
 80048ec:	4823      	ldr	r0, [pc, #140]	; (800497c <HAL_SPI_Init+0x174>)
 80048ee:	f7fc fa10 	bl	8000d12 <assert_failed>
    assert_param(IS_SPI_CPHA(hspi->Init.CLKPhase));
 80048f2:	6963      	ldr	r3, [r4, #20]
 80048f4:	2b01      	cmp	r3, #1
 80048f6:	d904      	bls.n	8004902 <HAL_SPI_Init+0xfa>
 80048f8:	f240 111b 	movw	r1, #283	; 0x11b
 80048fc:	481f      	ldr	r0, [pc, #124]	; (800497c <HAL_SPI_Init+0x174>)
 80048fe:	f7fc fa08 	bl	8000d12 <assert_failed>
  hspi->Init.CRCCalculation = SPI_CRCCALCULATION_DISABLE;
 8004902:	2300      	movs	r3, #0
 8004904:	62a3      	str	r3, [r4, #40]	; 0x28
  if(hspi->State == HAL_SPI_STATE_RESET)
 8004906:	f894 3051 	ldrb.w	r3, [r4, #81]	; 0x51
 800490a:	f003 02ff 	and.w	r2, r3, #255	; 0xff
 800490e:	b923      	cbnz	r3, 800491a <HAL_SPI_Init+0x112>
    hspi->Lock = HAL_UNLOCKED;
 8004910:	f884 2050 	strb.w	r2, [r4, #80]	; 0x50
    HAL_SPI_MspInit(hspi);
 8004914:	4620      	mov	r0, r4
 8004916:	f7fc fa23 	bl	8000d60 <HAL_SPI_MspInit>
  __HAL_SPI_DISABLE(hspi);
 800491a:	6821      	ldr	r1, [r4, #0]
  WRITE_REG(hspi->Instance->CR1, (hspi->Init.Mode | hspi->Init.Direction | hspi->Init.DataSize |
 800491c:	68a0      	ldr	r0, [r4, #8]
 800491e:	69a2      	ldr	r2, [r4, #24]
  hspi->State = HAL_SPI_STATE_BUSY;
 8004920:	2302      	movs	r3, #2
 8004922:	f884 3051 	strb.w	r3, [r4, #81]	; 0x51
  __HAL_SPI_DISABLE(hspi);
 8004926:	680b      	ldr	r3, [r1, #0]
 8004928:	f023 0340 	bic.w	r3, r3, #64	; 0x40
 800492c:	600b      	str	r3, [r1, #0]
  WRITE_REG(hspi->Instance->CR1, (hspi->Init.Mode | hspi->Init.Direction | hspi->Init.DataSize |
 800492e:	6863      	ldr	r3, [r4, #4]
 8004930:	4303      	orrs	r3, r0
 8004932:	68e0      	ldr	r0, [r4, #12]
 8004934:	4303      	orrs	r3, r0
 8004936:	6920      	ldr	r0, [r4, #16]
 8004938:	4303      	orrs	r3, r0
 800493a:	6960      	ldr	r0, [r4, #20]
 800493c:	4303      	orrs	r3, r0
 800493e:	69e0      	ldr	r0, [r4, #28]
 8004940:	4303      	orrs	r3, r0
 8004942:	6a20      	ldr	r0, [r4, #32]
 8004944:	4303      	orrs	r3, r0
 8004946:	6aa0      	ldr	r0, [r4, #40]	; 0x28
 8004948:	4303      	orrs	r3, r0
 800494a:	f402 7000 	and.w	r0, r2, #512	; 0x200
 800494e:	4303      	orrs	r3, r0
 8004950:	600b      	str	r3, [r1, #0]
  WRITE_REG(hspi->Instance->CR2, (((hspi->Init.NSS >> 16U) & SPI_CR2_SSOE) | hspi->Init.TIMode));
 8004952:	0c12      	lsrs	r2, r2, #16
 8004954:	6a63      	ldr	r3, [r4, #36]	; 0x24
 8004956:	f002 0204 	and.w	r2, r2, #4
 800495a:	431a      	orrs	r2, r3
 800495c:	604a      	str	r2, [r1, #4]
  CLEAR_BIT(hspi->Instance->I2SCFGR, SPI_I2SCFGR_I2SMOD);
 800495e:	69cb      	ldr	r3, [r1, #28]
 8004960:	f423 6300 	bic.w	r3, r3, #2048	; 0x800
 8004964:	61cb      	str	r3, [r1, #28]
  hspi->ErrorCode = HAL_SPI_ERROR_NONE;
 8004966:	2000      	movs	r0, #0
  hspi->State     = HAL_SPI_STATE_READY;
 8004968:	2301      	movs	r3, #1
  hspi->ErrorCode = HAL_SPI_ERROR_NONE;
 800496a:	6560      	str	r0, [r4, #84]	; 0x54
  hspi->State     = HAL_SPI_STATE_READY;
 800496c:	f884 3051 	strb.w	r3, [r4, #81]	; 0x51
  return HAL_OK;
 8004970:	bd10      	pop	{r4, pc}
    return HAL_ERROR;
 8004972:	2001      	movs	r0, #1
}
 8004974:	bd10      	pop	{r4, pc}
 8004976:	bf00      	nop
 8004978:	40013000 	.word	0x40013000
 800497c:	08008452 	.word	0x08008452

08004980 <HAL_SPI_DeInit>:
{
 8004980:	b510      	push	{r4, lr}
  if(hspi == NULL)
 8004982:	4604      	mov	r4, r0
 8004984:	b370      	cbz	r0, 80049e4 <HAL_SPI_DeInit+0x64>
  assert_param(IS_SPI_ALL_INSTANCE(hspi->Instance));
 8004986:	6803      	ldr	r3, [r0, #0]
 8004988:	4a17      	ldr	r2, [pc, #92]	; (80049e8 <HAL_SPI_DeInit+0x68>)
 800498a:	4293      	cmp	r3, r2
 800498c:	d018      	beq.n	80049c0 <HAL_SPI_DeInit+0x40>
 800498e:	f5a2 4278 	sub.w	r2, r2, #63488	; 0xf800
 8004992:	4293      	cmp	r3, r2
 8004994:	d014      	beq.n	80049c0 <HAL_SPI_DeInit+0x40>
 8004996:	f502 6280 	add.w	r2, r2, #1024	; 0x400
 800499a:	4293      	cmp	r3, r2
 800499c:	d010      	beq.n	80049c0 <HAL_SPI_DeInit+0x40>
 800499e:	f502 4278 	add.w	r2, r2, #63488	; 0xf800
 80049a2:	4293      	cmp	r3, r2
 80049a4:	d00c      	beq.n	80049c0 <HAL_SPI_DeInit+0x40>
 80049a6:	f502 52e0 	add.w	r2, r2, #7168	; 0x1c00
 80049aa:	4293      	cmp	r3, r2
 80049ac:	d008      	beq.n	80049c0 <HAL_SPI_DeInit+0x40>
 80049ae:	f502 6280 	add.w	r2, r2, #1024	; 0x400
 80049b2:	4293      	cmp	r3, r2
 80049b4:	d004      	beq.n	80049c0 <HAL_SPI_DeInit+0x40>
 80049b6:	f44f 71b1 	mov.w	r1, #354	; 0x162
 80049ba:	480c      	ldr	r0, [pc, #48]	; (80049ec <HAL_SPI_DeInit+0x6c>)
 80049bc:	f7fc f9a9 	bl	8000d12 <assert_failed>
  __HAL_SPI_DISABLE(hspi);
 80049c0:	6822      	ldr	r2, [r4, #0]
  hspi->State = HAL_SPI_STATE_BUSY;
 80049c2:	2302      	movs	r3, #2
 80049c4:	f884 3051 	strb.w	r3, [r4, #81]	; 0x51
  __HAL_SPI_DISABLE(hspi);
 80049c8:	6813      	ldr	r3, [r2, #0]
 80049ca:	f023 0340 	bic.w	r3, r3, #64	; 0x40
  HAL_SPI_MspDeInit(hspi);
 80049ce:	4620      	mov	r0, r4
  __HAL_SPI_DISABLE(hspi);
 80049d0:	6013      	str	r3, [r2, #0]
  HAL_SPI_MspDeInit(hspi);
 80049d2:	f7fc f9f9 	bl	8000dc8 <HAL_SPI_MspDeInit>
  hspi->ErrorCode = HAL_SPI_ERROR_NONE;
 80049d6:	2000      	movs	r0, #0
 80049d8:	6560      	str	r0, [r4, #84]	; 0x54
  __HAL_UNLOCK(hspi);
 80049da:	f884 0050 	strb.w	r0, [r4, #80]	; 0x50
  hspi->State = HAL_SPI_STATE_RESET;
 80049de:	f884 0051 	strb.w	r0, [r4, #81]	; 0x51
  return HAL_OK;
 80049e2:	bd10      	pop	{r4, pc}
    return HAL_ERROR;
 80049e4:	2001      	movs	r0, #1
}
 80049e6:	bd10      	pop	{r4, pc}
 80049e8:	40013000 	.word	0x40013000
 80049ec:	08008452 	.word	0x08008452

080049f0 <HAL_SPI_Transmit>:
{
 80049f0:	e92d 41ff 	stmdb	sp!, {r0, r1, r2, r3, r4, r5, r6, r7, r8, lr}
 80049f4:	461e      	mov	r6, r3
  assert_param(IS_SPI_DIRECTION_2LINES_OR_1LINE(hspi->Init.Direction));
 80049f6:	6883      	ldr	r3, [r0, #8]
 80049f8:	f433 4300 	bics.w	r3, r3, #32768	; 0x8000
{
 80049fc:	4604      	mov	r4, r0
 80049fe:	460d      	mov	r5, r1
 8004a00:	4690      	mov	r8, r2
  assert_param(IS_SPI_DIRECTION_2LINES_OR_1LINE(hspi->Init.Direction));
 8004a02:	d004      	beq.n	8004a0e <HAL_SPI_Transmit+0x1e>
 8004a04:	f240 11c7 	movw	r1, #455	; 0x1c7
 8004a08:	4852      	ldr	r0, [pc, #328]	; (8004b54 <HAL_SPI_Transmit+0x164>)
 8004a0a:	f7fc f982 	bl	8000d12 <assert_failed>
  __HAL_LOCK(hspi);
 8004a0e:	f894 3050 	ldrb.w	r3, [r4, #80]	; 0x50
 8004a12:	2b01      	cmp	r3, #1
 8004a14:	f000 809c 	beq.w	8004b50 <HAL_SPI_Transmit+0x160>
 8004a18:	2301      	movs	r3, #1
 8004a1a:	f884 3050 	strb.w	r3, [r4, #80]	; 0x50
  tickstart = HAL_GetTick();
 8004a1e:	f7fc fff7 	bl	8001a10 <HAL_GetTick>
 8004a22:	4607      	mov	r7, r0
  if(hspi->State != HAL_SPI_STATE_READY)
 8004a24:	f894 0051 	ldrb.w	r0, [r4, #81]	; 0x51
 8004a28:	b2c0      	uxtb	r0, r0
 8004a2a:	2801      	cmp	r0, #1
 8004a2c:	f040 808e 	bne.w	8004b4c <HAL_SPI_Transmit+0x15c>
  if((pData == NULL ) || (Size == 0))
 8004a30:	2d00      	cmp	r5, #0
 8004a32:	d04e      	beq.n	8004ad2 <HAL_SPI_Transmit+0xe2>
 8004a34:	f1b8 0f00 	cmp.w	r8, #0
 8004a38:	d04b      	beq.n	8004ad2 <HAL_SPI_Transmit+0xe2>
  hspi->State       = HAL_SPI_STATE_BUSY_TX;
 8004a3a:	2303      	movs	r3, #3
 8004a3c:	f884 3051 	strb.w	r3, [r4, #81]	; 0x51
  hspi->ErrorCode   = HAL_SPI_ERROR_NONE;
 8004a40:	2300      	movs	r3, #0
 8004a42:	6563      	str	r3, [r4, #84]	; 0x54
  hspi->pRxBuffPtr  = (uint8_t *)NULL;
 8004a44:	63a3      	str	r3, [r4, #56]	; 0x38
  hspi->TxXferCount = Size;
 8004a46:	f8a4 8036 	strh.w	r8, [r4, #54]	; 0x36
  hspi->RxXferSize  = 0U;
 8004a4a:	87a3      	strh	r3, [r4, #60]	; 0x3c
  hspi->RxXferCount = 0U;
 8004a4c:	87e3      	strh	r3, [r4, #62]	; 0x3e
  hspi->TxISR       = NULL;
 8004a4e:	6463      	str	r3, [r4, #68]	; 0x44
  hspi->RxISR       = NULL;
 8004a50:	6423      	str	r3, [r4, #64]	; 0x40
  if(hspi->Init.Direction == SPI_DIRECTION_1LINE)
 8004a52:	68a3      	ldr	r3, [r4, #8]
  hspi->pTxBuffPtr  = (uint8_t *)pData;
 8004a54:	6325      	str	r5, [r4, #48]	; 0x30
  if(hspi->Init.Direction == SPI_DIRECTION_1LINE)
 8004a56:	f5b3 4f00 	cmp.w	r3, #32768	; 0x8000
 8004a5a:	6823      	ldr	r3, [r4, #0]
  hspi->TxXferSize  = Size;
 8004a5c:	f8a4 8034 	strh.w	r8, [r4, #52]	; 0x34
    SPI_1LINE_TX(hspi);
 8004a60:	bf02      	ittt	eq
 8004a62:	681a      	ldreq	r2, [r3, #0]
 8004a64:	f442 4280 	orreq.w	r2, r2, #16384	; 0x4000
 8004a68:	601a      	streq	r2, [r3, #0]
  if((hspi->Instance->CR1 & SPI_CR1_SPE) != SPI_CR1_SPE)
 8004a6a:	681a      	ldr	r2, [r3, #0]
 8004a6c:	0652      	lsls	r2, r2, #25
    __HAL_SPI_ENABLE(hspi);
 8004a6e:	bf5e      	ittt	pl
 8004a70:	681a      	ldrpl	r2, [r3, #0]
 8004a72:	f042 0240 	orrpl.w	r2, r2, #64	; 0x40
 8004a76:	601a      	strpl	r2, [r3, #0]
  if(hspi->Init.DataSize == SPI_DATASIZE_16BIT)
 8004a78:	68e2      	ldr	r2, [r4, #12]
 8004a7a:	f5b2 6f00 	cmp.w	r2, #2048	; 0x800
 8004a7e:	6862      	ldr	r2, [r4, #4]
 8004a80:	d138      	bne.n	8004af4 <HAL_SPI_Transmit+0x104>
    if((hspi->Init.Mode == SPI_MODE_SLAVE) || (hspi->TxXferCount == 0x01))
 8004a82:	b11a      	cbz	r2, 8004a8c <HAL_SPI_Transmit+0x9c>
 8004a84:	8ee2      	ldrh	r2, [r4, #54]	; 0x36
 8004a86:	b292      	uxth	r2, r2
 8004a88:	2a01      	cmp	r2, #1
 8004a8a:	d106      	bne.n	8004a9a <HAL_SPI_Transmit+0xaa>
          hspi->Instance->DR = *((uint16_t *)pData);
 8004a8c:	f835 2b02 	ldrh.w	r2, [r5], #2
 8004a90:	60da      	str	r2, [r3, #12]
          hspi->TxXferCount--;
 8004a92:	8ee3      	ldrh	r3, [r4, #54]	; 0x36
 8004a94:	3b01      	subs	r3, #1
 8004a96:	b29b      	uxth	r3, r3
 8004a98:	86e3      	strh	r3, [r4, #54]	; 0x36
    while (hspi->TxXferCount > 0U)
 8004a9a:	8ee3      	ldrh	r3, [r4, #54]	; 0x36
 8004a9c:	b29b      	uxth	r3, r3
 8004a9e:	b993      	cbnz	r3, 8004ac6 <HAL_SPI_Transmit+0xd6>
  if(SPI_WaitFlagStateUntilTimeout(hspi, SPI_FLAG_TXE, SET, Timeout, tickstart) != HAL_OK)
 8004aa0:	9700      	str	r7, [sp, #0]
 8004aa2:	4633      	mov	r3, r6
 8004aa4:	2201      	movs	r2, #1
 8004aa6:	2102      	movs	r1, #2
 8004aa8:	4620      	mov	r0, r4
 8004aaa:	f7ff fe55 	bl	8004758 <SPI_WaitFlagStateUntilTimeout>
 8004aae:	b978      	cbnz	r0, 8004ad0 <HAL_SPI_Transmit+0xe0>
  if(SPI_CheckFlag_BSY(hspi, Timeout, tickstart) != HAL_OK)
 8004ab0:	463a      	mov	r2, r7
 8004ab2:	4631      	mov	r1, r6
 8004ab4:	4620      	mov	r0, r4
 8004ab6:	f7ff fe96 	bl	80047e6 <SPI_CheckFlag_BSY>
 8004aba:	2800      	cmp	r0, #0
 8004abc:	d038      	beq.n	8004b30 <HAL_SPI_Transmit+0x140>
    hspi->ErrorCode = HAL_SPI_ERROR_FLAG;
 8004abe:	2320      	movs	r3, #32
 8004ac0:	6563      	str	r3, [r4, #84]	; 0x54
    errorcode = HAL_ERROR;
 8004ac2:	2001      	movs	r0, #1
    goto error;
 8004ac4:	e005      	b.n	8004ad2 <HAL_SPI_Transmit+0xe2>
      if(__HAL_SPI_GET_FLAG(hspi, SPI_FLAG_TXE))
 8004ac6:	6823      	ldr	r3, [r4, #0]
 8004ac8:	689a      	ldr	r2, [r3, #8]
 8004aca:	0790      	lsls	r0, r2, #30
 8004acc:	d4de      	bmi.n	8004a8c <HAL_SPI_Transmit+0x9c>
        if((Timeout == 0U) || ((Timeout != HAL_MAX_DELAY) && ((HAL_GetTick()-tickstart) >=  Timeout)))
 8004ace:	b94e      	cbnz	r6, 8004ae4 <HAL_SPI_Transmit+0xf4>
          errorcode = HAL_TIMEOUT;
 8004ad0:	2003      	movs	r0, #3
  hspi->State = HAL_SPI_STATE_READY;
 8004ad2:	2301      	movs	r3, #1
 8004ad4:	f884 3051 	strb.w	r3, [r4, #81]	; 0x51
  __HAL_UNLOCK(hspi);
 8004ad8:	2300      	movs	r3, #0
 8004ada:	f884 3050 	strb.w	r3, [r4, #80]	; 0x50
}
 8004ade:	b004      	add	sp, #16
 8004ae0:	e8bd 81f0 	ldmia.w	sp!, {r4, r5, r6, r7, r8, pc}
        if((Timeout == 0U) || ((Timeout != HAL_MAX_DELAY) && ((HAL_GetTick()-tickstart) >=  Timeout)))
 8004ae4:	1c71      	adds	r1, r6, #1
 8004ae6:	d0d8      	beq.n	8004a9a <HAL_SPI_Transmit+0xaa>
 8004ae8:	f7fc ff92 	bl	8001a10 <HAL_GetTick>
 8004aec:	1bc0      	subs	r0, r0, r7
 8004aee:	4286      	cmp	r6, r0
 8004af0:	d8d3      	bhi.n	8004a9a <HAL_SPI_Transmit+0xaa>
 8004af2:	e7ed      	b.n	8004ad0 <HAL_SPI_Transmit+0xe0>
    if((hspi->Init.Mode == SPI_MODE_SLAVE)|| (hspi->TxXferCount == 0x01))
 8004af4:	b11a      	cbz	r2, 8004afe <HAL_SPI_Transmit+0x10e>
 8004af6:	8ee2      	ldrh	r2, [r4, #54]	; 0x36
 8004af8:	b292      	uxth	r2, r2
 8004afa:	2a01      	cmp	r2, #1
 8004afc:	d106      	bne.n	8004b0c <HAL_SPI_Transmit+0x11c>
        *((__IO uint8_t*)&hspi->Instance->DR) = (*pData);
 8004afe:	f815 2b01 	ldrb.w	r2, [r5], #1
 8004b02:	731a      	strb	r2, [r3, #12]
        hspi->TxXferCount--;
 8004b04:	8ee3      	ldrh	r3, [r4, #54]	; 0x36
 8004b06:	3b01      	subs	r3, #1
 8004b08:	b29b      	uxth	r3, r3
 8004b0a:	86e3      	strh	r3, [r4, #54]	; 0x36
    while (hspi->TxXferCount > 0U)
 8004b0c:	8ee3      	ldrh	r3, [r4, #54]	; 0x36
 8004b0e:	b29b      	uxth	r3, r3
 8004b10:	2b00      	cmp	r3, #0
 8004b12:	d0c5      	beq.n	8004aa0 <HAL_SPI_Transmit+0xb0>
      if(__HAL_SPI_GET_FLAG(hspi, SPI_FLAG_TXE))
 8004b14:	6823      	ldr	r3, [r4, #0]
 8004b16:	689a      	ldr	r2, [r3, #8]
 8004b18:	0792      	lsls	r2, r2, #30
 8004b1a:	d4f0      	bmi.n	8004afe <HAL_SPI_Transmit+0x10e>
        if((Timeout == 0U) || ((Timeout != HAL_MAX_DELAY) && ((HAL_GetTick()-tickstart) >=  Timeout)))
 8004b1c:	2e00      	cmp	r6, #0
 8004b1e:	d0d7      	beq.n	8004ad0 <HAL_SPI_Transmit+0xe0>
 8004b20:	1c73      	adds	r3, r6, #1
 8004b22:	d0f3      	beq.n	8004b0c <HAL_SPI_Transmit+0x11c>
 8004b24:	f7fc ff74 	bl	8001a10 <HAL_GetTick>
 8004b28:	1bc0      	subs	r0, r0, r7
 8004b2a:	4286      	cmp	r6, r0
 8004b2c:	d8ee      	bhi.n	8004b0c <HAL_SPI_Transmit+0x11c>
 8004b2e:	e7cf      	b.n	8004ad0 <HAL_SPI_Transmit+0xe0>
  if(hspi->Init.Direction == SPI_DIRECTION_2LINES)
 8004b30:	68a3      	ldr	r3, [r4, #8]
 8004b32:	b933      	cbnz	r3, 8004b42 <HAL_SPI_Transmit+0x152>
    __HAL_SPI_CLEAR_OVRFLAG(hspi);
 8004b34:	9303      	str	r3, [sp, #12]
 8004b36:	6823      	ldr	r3, [r4, #0]
 8004b38:	68da      	ldr	r2, [r3, #12]
 8004b3a:	9203      	str	r2, [sp, #12]
 8004b3c:	689b      	ldr	r3, [r3, #8]
 8004b3e:	9303      	str	r3, [sp, #12]
 8004b40:	9b03      	ldr	r3, [sp, #12]
  if(hspi->ErrorCode != HAL_SPI_ERROR_NONE)
 8004b42:	6d60      	ldr	r0, [r4, #84]	; 0x54
    errorcode = HAL_BUSY;
 8004b44:	3000      	adds	r0, #0
 8004b46:	bf18      	it	ne
 8004b48:	2001      	movne	r0, #1
 8004b4a:	e7c2      	b.n	8004ad2 <HAL_SPI_Transmit+0xe2>
 8004b4c:	2002      	movs	r0, #2
 8004b4e:	e7c0      	b.n	8004ad2 <HAL_SPI_Transmit+0xe2>
  __HAL_LOCK(hspi);
 8004b50:	2002      	movs	r0, #2
 8004b52:	e7c4      	b.n	8004ade <HAL_SPI_Transmit+0xee>
 8004b54:	08008452 	.word	0x08008452

08004b58 <HAL_SPI_GetState>:
  return hspi->State;
 8004b58:	f890 0051 	ldrb.w	r0, [r0, #81]	; 0x51
}
 8004b5c:	4770      	bx	lr
	...

08004b60 <TIM_OC1_SetConfig>:
  uint32_t tmpccmrx = 0U;
  uint32_t tmpccer = 0U;
  uint32_t tmpcr2 = 0U;  

  /* Disable the Channel 1: Reset the CC1E Bit */
  TIMx->CCER &= ~TIM_CCER_CC1E;
 8004b60:	6a03      	ldr	r3, [r0, #32]
 8004b62:	f023 0301 	bic.w	r3, r3, #1
 8004b66:	6203      	str	r3, [r0, #32]
  
  /* Get the TIMx CCER register value */
  tmpccer = TIMx->CCER;
 8004b68:	6a03      	ldr	r3, [r0, #32]
  /* Get the TIMx CR2 register value */
  tmpcr2 = TIMx->CR2;
 8004b6a:	6842      	ldr	r2, [r0, #4]
{
 8004b6c:	b570      	push	{r4, r5, r6, lr}
  
  /* Get the TIMx CCMR1 register value */
  tmpccmrx = TIMx->CCMR1;
 8004b6e:	6984      	ldr	r4, [r0, #24]
    
  /* Reset the Output Compare Mode Bits */
  tmpccmrx &= ~TIM_CCMR1_OC1M;
  tmpccmrx &= ~TIM_CCMR1_CC1S;
  /* Select the Output Compare Mode */
  tmpccmrx |= OC_Config->OCMode;
 8004b70:	680d      	ldr	r5, [r1, #0]
  tmpccmrx &= ~TIM_CCMR1_CC1S;
 8004b72:	f024 0473 	bic.w	r4, r4, #115	; 0x73
  tmpccmrx |= OC_Config->OCMode;
 8004b76:	4325      	orrs	r5, r4
  
  /* Reset the Output Polarity level */
  tmpccer &= ~TIM_CCER_CC1P;
  /* Set the Output Compare Polarity */
  tmpccer |= OC_Config->OCPolarity;
 8004b78:	688c      	ldr	r4, [r1, #8]
  tmpccer &= ~TIM_CCER_CC1P;
 8004b7a:	f023 0302 	bic.w	r3, r3, #2
  tmpccer |= OC_Config->OCPolarity;
 8004b7e:	4323      	orrs	r3, r4

    
  if(IS_TIM_ADVANCED_INSTANCE(TIMx) != RESET)
 8004b80:	4c0c      	ldr	r4, [pc, #48]	; (8004bb4 <TIM_OC1_SetConfig+0x54>)
 8004b82:	42a0      	cmp	r0, r4
 8004b84:	d009      	beq.n	8004b9a <TIM_OC1_SetConfig+0x3a>
 8004b86:	f504 6480 	add.w	r4, r4, #1024	; 0x400
 8004b8a:	42a0      	cmp	r0, r4
 8004b8c:	d005      	beq.n	8004b9a <TIM_OC1_SetConfig+0x3a>
    tmpcr2 |= OC_Config->OCIdleState;
    /* Set the Output N Idle state */
    tmpcr2 |= OC_Config->OCNIdleState;
  }
  /* Write to TIMx CR2 */
  TIMx->CR2 = tmpcr2;
 8004b8e:	6042      	str	r2, [r0, #4]
  
  /* Write to TIMx CCMR1 */
  TIMx->CCMR1 = tmpccmrx;
  
  /* Set the Capture Compare Register value */
  TIMx->CCR1 = OC_Config->Pulse;
 8004b90:	684a      	ldr	r2, [r1, #4]
  TIMx->CCMR1 = tmpccmrx;
 8004b92:	6185      	str	r5, [r0, #24]
  TIMx->CCR1 = OC_Config->Pulse;
 8004b94:	6342      	str	r2, [r0, #52]	; 0x34
  
  /* Write to TIMx CCER */
  TIMx->CCER = tmpccer;  
 8004b96:	6203      	str	r3, [r0, #32]
} 
 8004b98:	bd70      	pop	{r4, r5, r6, pc}
    tmpccer |= OC_Config->OCNPolarity;
 8004b9a:	68cc      	ldr	r4, [r1, #12]
    tmpcr2 |= OC_Config->OCNIdleState;
 8004b9c:	698e      	ldr	r6, [r1, #24]
    tmpccer &= ~TIM_CCER_CC1NP;
 8004b9e:	f023 0308 	bic.w	r3, r3, #8
    tmpccer |= OC_Config->OCNPolarity;
 8004ba2:	4323      	orrs	r3, r4
    tmpcr2 |= OC_Config->OCNIdleState;
 8004ba4:	694c      	ldr	r4, [r1, #20]
    tmpcr2 &= ~TIM_CR2_OIS1N;
 8004ba6:	f422 7240 	bic.w	r2, r2, #768	; 0x300
    tmpcr2 |= OC_Config->OCNIdleState;
 8004baa:	4334      	orrs	r4, r6
    tmpccer &= ~TIM_CCER_CC1NE;
 8004bac:	f023 0304 	bic.w	r3, r3, #4
    tmpcr2 |= OC_Config->OCNIdleState;
 8004bb0:	4322      	orrs	r2, r4
 8004bb2:	e7ec      	b.n	8004b8e <TIM_OC1_SetConfig+0x2e>
 8004bb4:	40010000 	.word	0x40010000

08004bb8 <TIM_OC3_SetConfig>:
  uint32_t tmpccmrx = 0U;
  uint32_t tmpccer = 0U;
  uint32_t tmpcr2 = 0U;   

  /* Disable the Channel 3: Reset the CC2E Bit */
  TIMx->CCER &= ~TIM_CCER_CC3E;
 8004bb8:	6a03      	ldr	r3, [r0, #32]
 8004bba:	f423 7380 	bic.w	r3, r3, #256	; 0x100
{
 8004bbe:	e92d 41f0 	stmdb	sp!, {r4, r5, r6, r7, r8, lr}
  TIMx->CCER &= ~TIM_CCER_CC3E;
 8004bc2:	6203      	str	r3, [r0, #32]
  
  /* Get the TIMx CCER register value */
  tmpccer = TIMx->CCER;
 8004bc4:	6a04      	ldr	r4, [r0, #32]
  /* Get the TIMx CR2 register value */
  tmpcr2 = TIMx->CR2;
 8004bc6:	f8d0 8004 	ldr.w	r8, [r0, #4]
  
  /* Get the TIMx CCMR2 register value */
  tmpccmrx = TIMx->CCMR2;
 8004bca:	69c6      	ldr	r6, [r0, #28]
    
  /* Reset the Output Compare mode and Capture/Compare selection Bits */
  tmpccmrx &= ~TIM_CCMR2_OC3M;
  tmpccmrx &= ~TIM_CCMR2_CC3S;  
  /* Select the Output Compare Mode */
  tmpccmrx |= OC_Config->OCMode;
 8004bcc:	680b      	ldr	r3, [r1, #0]
  tmpccmrx &= ~TIM_CCMR2_CC3S;  
 8004bce:	f026 0673 	bic.w	r6, r6, #115	; 0x73
  tmpccmrx |= OC_Config->OCMode;
 8004bd2:	431e      	orrs	r6, r3
  
  /* Reset the Output Polarity level */
  tmpccer &= ~TIM_CCER_CC3P;
  /* Set the Output Compare Polarity */
  tmpccer |= (OC_Config->OCPolarity << 8U);
 8004bd4:	688b      	ldr	r3, [r1, #8]
  tmpccer &= ~TIM_CCER_CC3P;
 8004bd6:	f424 7400 	bic.w	r4, r4, #512	; 0x200
  tmpccer |= (OC_Config->OCPolarity << 8U);
 8004bda:	ea44 2403 	orr.w	r4, r4, r3, lsl #8
    
  if(IS_TIM_ADVANCED_INSTANCE(TIMx) != RESET)
 8004bde:	4b1d      	ldr	r3, [pc, #116]	; (8004c54 <TIM_OC3_SetConfig+0x9c>)
 8004be0:	4298      	cmp	r0, r3
{
 8004be2:	4605      	mov	r5, r0
 8004be4:	460f      	mov	r7, r1
  if(IS_TIM_ADVANCED_INSTANCE(TIMx) != RESET)
 8004be6:	d003      	beq.n	8004bf0 <TIM_OC3_SetConfig+0x38>
 8004be8:	f503 6380 	add.w	r3, r3, #1024	; 0x400
 8004bec:	4298      	cmp	r0, r3
 8004bee:	d128      	bne.n	8004c42 <TIM_OC3_SetConfig+0x8a>
  {
    assert_param(IS_TIM_OCN_POLARITY(OC_Config->OCNPolarity));
 8004bf0:	68fb      	ldr	r3, [r7, #12]
 8004bf2:	f033 0308 	bics.w	r3, r3, #8
 8004bf6:	d004      	beq.n	8004c02 <TIM_OC3_SetConfig+0x4a>
 8004bf8:	f241 3119 	movw	r1, #4889	; 0x1319
 8004bfc:	4816      	ldr	r0, [pc, #88]	; (8004c58 <TIM_OC3_SetConfig+0xa0>)
 8004bfe:	f7fc f888 	bl	8000d12 <assert_failed>
    assert_param(IS_TIM_OCNIDLE_STATE(OC_Config->OCNIdleState));
 8004c02:	69bb      	ldr	r3, [r7, #24]
 8004c04:	f433 7300 	bics.w	r3, r3, #512	; 0x200
 8004c08:	d004      	beq.n	8004c14 <TIM_OC3_SetConfig+0x5c>
 8004c0a:	f241 311a 	movw	r1, #4890	; 0x131a
 8004c0e:	4812      	ldr	r0, [pc, #72]	; (8004c58 <TIM_OC3_SetConfig+0xa0>)
 8004c10:	f7fc f87f 	bl	8000d12 <assert_failed>
    assert_param(IS_TIM_OCIDLE_STATE(OC_Config->OCIdleState));
 8004c14:	697b      	ldr	r3, [r7, #20]
 8004c16:	f433 7380 	bics.w	r3, r3, #256	; 0x100
 8004c1a:	d004      	beq.n	8004c26 <TIM_OC3_SetConfig+0x6e>
 8004c1c:	f241 311b 	movw	r1, #4891	; 0x131b
 8004c20:	480d      	ldr	r0, [pc, #52]	; (8004c58 <TIM_OC3_SetConfig+0xa0>)
 8004c22:	f7fc f876 	bl	8000d12 <assert_failed>
    
    /* Reset the Output N Polarity level */
    tmpccer &= ~TIM_CCER_CC3NP;
    /* Set the Output N Polarity */
    tmpccer |= (OC_Config->OCNPolarity << 8U);
 8004c26:	68fb      	ldr	r3, [r7, #12]
    tmpcr2 &= ~TIM_CR2_OIS3;
    tmpcr2 &= ~TIM_CR2_OIS3N;
    /* Set the Output Idle state */
    tmpcr2 |= (OC_Config->OCIdleState << 4U);
    /* Set the Output N Idle state */
    tmpcr2 |= (OC_Config->OCNIdleState << 4U);
 8004c28:	69ba      	ldr	r2, [r7, #24]
    tmpccer &= ~TIM_CCER_CC3NP;
 8004c2a:	f424 6400 	bic.w	r4, r4, #2048	; 0x800
    tmpccer |= (OC_Config->OCNPolarity << 8U);
 8004c2e:	ea44 2403 	orr.w	r4, r4, r3, lsl #8
    tmpcr2 |= (OC_Config->OCIdleState << 4U);
 8004c32:	697b      	ldr	r3, [r7, #20]
    tmpcr2 &= ~TIM_CR2_OIS3N;
 8004c34:	f428 5840 	bic.w	r8, r8, #12288	; 0x3000
    tmpcr2 |= (OC_Config->OCNIdleState << 4U);
 8004c38:	4313      	orrs	r3, r2
    tmpccer &= ~TIM_CCER_CC3NE;
 8004c3a:	f424 6480 	bic.w	r4, r4, #1024	; 0x400
    tmpcr2 |= (OC_Config->OCNIdleState << 4U);
 8004c3e:	ea48 1803 	orr.w	r8, r8, r3, lsl #4
  
  /* Write to TIMx CCMR2 */
  TIMx->CCMR2 = tmpccmrx;
  
  /* Set the Capture Compare Register value */
  TIMx->CCR3 = OC_Config->Pulse;
 8004c42:	687b      	ldr	r3, [r7, #4]
  TIMx->CR2 = tmpcr2;
 8004c44:	f8c5 8004 	str.w	r8, [r5, #4]
  TIMx->CCMR2 = tmpccmrx;
 8004c48:	61ee      	str	r6, [r5, #28]
  TIMx->CCR3 = OC_Config->Pulse;
 8004c4a:	63eb      	str	r3, [r5, #60]	; 0x3c
  
  /* Write to TIMx CCER */
  TIMx->CCER = tmpccer;
 8004c4c:	622c      	str	r4, [r5, #32]
}
 8004c4e:	e8bd 81f0 	ldmia.w	sp!, {r4, r5, r6, r7, r8, pc}
 8004c52:	bf00      	nop
 8004c54:	40010000 	.word	0x40010000
 8004c58:	08008490 	.word	0x08008490

08004c5c <TIM_OC4_SetConfig>:
  uint32_t tmpccmrx = 0U;
  uint32_t tmpccer = 0U;
  uint32_t tmpcr2 = 0U;

  /* Disable the Channel 4: Reset the CC4E Bit */
  TIMx->CCER &= ~TIM_CCER_CC4E;
 8004c5c:	6a03      	ldr	r3, [r0, #32]
 8004c5e:	f423 5380 	bic.w	r3, r3, #4096	; 0x1000
{
 8004c62:	e92d 41f0 	stmdb	sp!, {r4, r5, r6, r7, r8, lr}
  TIMx->CCER &= ~TIM_CCER_CC4E;
 8004c66:	6203      	str	r3, [r0, #32]
  
  /* Get the TIMx CCER register value */
  tmpccer = TIMx->CCER;
 8004c68:	6a07      	ldr	r7, [r0, #32]
  /* Get the TIMx CR2 register value */
  tmpcr2 = TIMx->CR2;
 8004c6a:	6845      	ldr	r5, [r0, #4]
  
  /* Get the TIMx CCMR2 register value */
  tmpccmrx = TIMx->CCMR2;
 8004c6c:	69c6      	ldr	r6, [r0, #28]
  /* Reset the Output Compare mode and Capture/Compare selection Bits */
  tmpccmrx &= ~TIM_CCMR2_OC4M;
  tmpccmrx &= ~TIM_CCMR2_CC4S;
  
  /* Select the Output Compare Mode */
  tmpccmrx |= (OC_Config->OCMode << 8U);
 8004c6e:	680b      	ldr	r3, [r1, #0]
  tmpccmrx &= ~TIM_CCMR2_CC4S;
 8004c70:	f426 46e6 	bic.w	r6, r6, #29440	; 0x7300
  tmpccmrx |= (OC_Config->OCMode << 8U);
 8004c74:	ea46 2603 	orr.w	r6, r6, r3, lsl #8
  
  /* Reset the Output Polarity level */
  tmpccer &= ~TIM_CCER_CC4P;
  /* Set the Output Compare Polarity */
  tmpccer |= (OC_Config->OCPolarity << 12U);
 8004c78:	688b      	ldr	r3, [r1, #8]
  tmpccer &= ~TIM_CCER_CC4P;
 8004c7a:	f427 5700 	bic.w	r7, r7, #8192	; 0x2000
  tmpccer |= (OC_Config->OCPolarity << 12U);
 8004c7e:	ea47 3703 	orr.w	r7, r7, r3, lsl #12
   
  /*if((TIMx == TIM1) || (TIMx == TIM8))*/
  if(IS_TIM_ADVANCED_INSTANCE(TIMx) != RESET)
 8004c82:	4b10      	ldr	r3, [pc, #64]	; (8004cc4 <TIM_OC4_SetConfig+0x68>)
 8004c84:	4298      	cmp	r0, r3
{
 8004c86:	4604      	mov	r4, r0
 8004c88:	4688      	mov	r8, r1
  if(IS_TIM_ADVANCED_INSTANCE(TIMx) != RESET)
 8004c8a:	d003      	beq.n	8004c94 <TIM_OC4_SetConfig+0x38>
 8004c8c:	f503 6380 	add.w	r3, r3, #1024	; 0x400
 8004c90:	4298      	cmp	r0, r3
 8004c92:	d10f      	bne.n	8004cb4 <TIM_OC4_SetConfig+0x58>
  {
    assert_param(IS_TIM_OCIDLE_STATE(OC_Config->OCIdleState));
 8004c94:	f8d8 3014 	ldr.w	r3, [r8, #20]
 8004c98:	f433 7380 	bics.w	r3, r3, #256	; 0x100
 8004c9c:	d004      	beq.n	8004ca8 <TIM_OC4_SetConfig+0x4c>
 8004c9e:	f241 315f 	movw	r1, #4959	; 0x135f
 8004ca2:	4809      	ldr	r0, [pc, #36]	; (8004cc8 <TIM_OC4_SetConfig+0x6c>)
 8004ca4:	f7fc f835 	bl	8000d12 <assert_failed>
    /* Reset the Output Compare IDLE State */
    tmpcr2 &= ~TIM_CR2_OIS4;
    /* Set the Output Idle state */
    tmpcr2 |= (OC_Config->OCIdleState << 6U);
 8004ca8:	f8d8 3014 	ldr.w	r3, [r8, #20]
    tmpcr2 &= ~TIM_CR2_OIS4;
 8004cac:	f425 4580 	bic.w	r5, r5, #16384	; 0x4000
    tmpcr2 |= (OC_Config->OCIdleState << 6U);
 8004cb0:	ea45 1583 	orr.w	r5, r5, r3, lsl #6
  
  /* Write to TIMx CCMR2 */  
  TIMx->CCMR2 = tmpccmrx;
    
  /* Set the Capture Compare Register value */
  TIMx->CCR4 = OC_Config->Pulse;
 8004cb4:	f8d8 3004 	ldr.w	r3, [r8, #4]
  TIMx->CR2 = tmpcr2;
 8004cb8:	6065      	str	r5, [r4, #4]
  TIMx->CCMR2 = tmpccmrx;
 8004cba:	61e6      	str	r6, [r4, #28]
  TIMx->CCR4 = OC_Config->Pulse;
 8004cbc:	6423      	str	r3, [r4, #64]	; 0x40
  
  /* Write to TIMx CCER */
  TIMx->CCER = tmpccer;
 8004cbe:	6227      	str	r7, [r4, #32]
}
 8004cc0:	e8bd 81f0 	ldmia.w	sp!, {r4, r5, r6, r7, r8, pc}
 8004cc4:	40010000 	.word	0x40010000
 8004cc8:	08008490 	.word	0x08008490

08004ccc <HAL_TIM_Base_Start_IT>:
  assert_param(IS_TIM_INSTANCE(htim->Instance));
 8004ccc:	6803      	ldr	r3, [r0, #0]
 8004cce:	4a24      	ldr	r2, [pc, #144]	; (8004d60 <HAL_TIM_Base_Start_IT+0x94>)
 8004cd0:	4293      	cmp	r3, r2
{
 8004cd2:	b510      	push	{r4, lr}
 8004cd4:	4604      	mov	r4, r0
  assert_param(IS_TIM_INSTANCE(htim->Instance));
 8004cd6:	d037      	beq.n	8004d48 <HAL_TIM_Base_Start_IT+0x7c>
 8004cd8:	f1b3 4f80 	cmp.w	r3, #1073741824	; 0x40000000
 8004cdc:	d034      	beq.n	8004d48 <HAL_TIM_Base_Start_IT+0x7c>
 8004cde:	f5a2 427c 	sub.w	r2, r2, #64512	; 0xfc00
 8004ce2:	4293      	cmp	r3, r2
 8004ce4:	d030      	beq.n	8004d48 <HAL_TIM_Base_Start_IT+0x7c>
 8004ce6:	f502 6280 	add.w	r2, r2, #1024	; 0x400
 8004cea:	4293      	cmp	r3, r2
 8004cec:	d02c      	beq.n	8004d48 <HAL_TIM_Base_Start_IT+0x7c>
 8004cee:	f502 6280 	add.w	r2, r2, #1024	; 0x400
 8004cf2:	4293      	cmp	r3, r2
 8004cf4:	d028      	beq.n	8004d48 <HAL_TIM_Base_Start_IT+0x7c>
 8004cf6:	f502 6280 	add.w	r2, r2, #1024	; 0x400
 8004cfa:	4293      	cmp	r3, r2
 8004cfc:	d024      	beq.n	8004d48 <HAL_TIM_Base_Start_IT+0x7c>
 8004cfe:	f502 6280 	add.w	r2, r2, #1024	; 0x400
 8004d02:	4293      	cmp	r3, r2
 8004d04:	d020      	beq.n	8004d48 <HAL_TIM_Base_Start_IT+0x7c>
 8004d06:	f502 4270 	add.w	r2, r2, #61440	; 0xf000
 8004d0a:	4293      	cmp	r3, r2
 8004d0c:	d01c      	beq.n	8004d48 <HAL_TIM_Base_Start_IT+0x7c>
 8004d0e:	f502 5270 	add.w	r2, r2, #15360	; 0x3c00
 8004d12:	4293      	cmp	r3, r2
 8004d14:	d018      	beq.n	8004d48 <HAL_TIM_Base_Start_IT+0x7c>
 8004d16:	f502 6280 	add.w	r2, r2, #1024	; 0x400
 8004d1a:	4293      	cmp	r3, r2
 8004d1c:	d014      	beq.n	8004d48 <HAL_TIM_Base_Start_IT+0x7c>
 8004d1e:	f502 6280 	add.w	r2, r2, #1024	; 0x400
 8004d22:	4293      	cmp	r3, r2
 8004d24:	d010      	beq.n	8004d48 <HAL_TIM_Base_Start_IT+0x7c>
 8004d26:	f5a2 3298 	sub.w	r2, r2, #77824	; 0x13000
 8004d2a:	4293      	cmp	r3, r2
 8004d2c:	d00c      	beq.n	8004d48 <HAL_TIM_Base_Start_IT+0x7c>
 8004d2e:	f502 6280 	add.w	r2, r2, #1024	; 0x400
 8004d32:	4293      	cmp	r3, r2
 8004d34:	d008      	beq.n	8004d48 <HAL_TIM_Base_Start_IT+0x7c>
 8004d36:	f502 6280 	add.w	r2, r2, #1024	; 0x400
 8004d3a:	4293      	cmp	r3, r2
 8004d3c:	d004      	beq.n	8004d48 <HAL_TIM_Base_Start_IT+0x7c>
 8004d3e:	f44f 71b2 	mov.w	r1, #356	; 0x164
 8004d42:	4808      	ldr	r0, [pc, #32]	; (8004d64 <HAL_TIM_Base_Start_IT+0x98>)
 8004d44:	f7fb ffe5 	bl	8000d12 <assert_failed>
  __HAL_TIM_ENABLE_IT(htim, TIM_IT_UPDATE);
 8004d48:	6823      	ldr	r3, [r4, #0]
 8004d4a:	68da      	ldr	r2, [r3, #12]
 8004d4c:	f042 0201 	orr.w	r2, r2, #1
 8004d50:	60da      	str	r2, [r3, #12]
  __HAL_TIM_ENABLE(htim);
 8004d52:	681a      	ldr	r2, [r3, #0]
 8004d54:	f042 0201 	orr.w	r2, r2, #1
 8004d58:	601a      	str	r2, [r3, #0]
}
 8004d5a:	2000      	movs	r0, #0
 8004d5c:	bd10      	pop	{r4, pc}
 8004d5e:	bf00      	nop
 8004d60:	40010000 	.word	0x40010000
 8004d64:	08008490 	.word	0x08008490

08004d68 <HAL_TIM_Base_Stop_IT>:
  assert_param(IS_TIM_INSTANCE(htim->Instance));
 8004d68:	6803      	ldr	r3, [r0, #0]
 8004d6a:	4a29      	ldr	r2, [pc, #164]	; (8004e10 <HAL_TIM_Base_Stop_IT+0xa8>)
 8004d6c:	4293      	cmp	r3, r2
{
 8004d6e:	b510      	push	{r4, lr}
 8004d70:	4604      	mov	r4, r0
  assert_param(IS_TIM_INSTANCE(htim->Instance));
 8004d72:	d037      	beq.n	8004de4 <HAL_TIM_Base_Stop_IT+0x7c>
 8004d74:	f1b3 4f80 	cmp.w	r3, #1073741824	; 0x40000000
 8004d78:	d034      	beq.n	8004de4 <HAL_TIM_Base_Stop_IT+0x7c>
 8004d7a:	f5a2 427c 	sub.w	r2, r2, #64512	; 0xfc00
 8004d7e:	4293      	cmp	r3, r2
 8004d80:	d030      	beq.n	8004de4 <HAL_TIM_Base_Stop_IT+0x7c>
 8004d82:	f502 6280 	add.w	r2, r2, #1024	; 0x400
 8004d86:	4293      	cmp	r3, r2
 8004d88:	d02c      	beq.n	8004de4 <HAL_TIM_Base_Stop_IT+0x7c>
 8004d8a:	f502 6280 	add.w	r2, r2, #1024	; 0x400
 8004d8e:	4293      	cmp	r3, r2
 8004d90:	d028      	beq.n	8004de4 <HAL_TIM_Base_Stop_IT+0x7c>
 8004d92:	f502 6280 	add.w	r2, r2, #1024	; 0x400
 8004d96:	4293      	cmp	r3, r2
 8004d98:	d024      	beq.n	8004de4 <HAL_TIM_Base_Stop_IT+0x7c>
 8004d9a:	f502 6280 	add.w	r2, r2, #1024	; 0x400
 8004d9e:	4293      	cmp	r3, r2
 8004da0:	d020      	beq.n	8004de4 <HAL_TIM_Base_Stop_IT+0x7c>
 8004da2:	f502 4270 	add.w	r2, r2, #61440	; 0xf000
 8004da6:	4293      	cmp	r3, r2
 8004da8:	d01c      	beq.n	8004de4 <HAL_TIM_Base_Stop_IT+0x7c>
 8004daa:	f502 5270 	add.w	r2, r2, #15360	; 0x3c00
 8004dae:	4293      	cmp	r3, r2
 8004db0:	d018      	beq.n	8004de4 <HAL_TIM_Base_Stop_IT+0x7c>
 8004db2:	f502 6280 	add.w	r2, r2, #1024	; 0x400
 8004db6:	4293      	cmp	r3, r2
 8004db8:	d014      	beq.n	8004de4 <HAL_TIM_Base_Stop_IT+0x7c>
 8004dba:	f502 6280 	add.w	r2, r2, #1024	; 0x400
 8004dbe:	4293      	cmp	r3, r2
 8004dc0:	d010      	beq.n	8004de4 <HAL_TIM_Base_Stop_IT+0x7c>
 8004dc2:	f5a2 3298 	sub.w	r2, r2, #77824	; 0x13000
 8004dc6:	4293      	cmp	r3, r2
 8004dc8:	d00c      	beq.n	8004de4 <HAL_TIM_Base_Stop_IT+0x7c>
 8004dca:	f502 6280 	add.w	r2, r2, #1024	; 0x400
 8004dce:	4293      	cmp	r3, r2
 8004dd0:	d008      	beq.n	8004de4 <HAL_TIM_Base_Stop_IT+0x7c>
 8004dd2:	f502 6280 	add.w	r2, r2, #1024	; 0x400
 8004dd6:	4293      	cmp	r3, r2
 8004dd8:	d004      	beq.n	8004de4 <HAL_TIM_Base_Stop_IT+0x7c>
 8004dda:	f240 1179 	movw	r1, #377	; 0x179
 8004dde:	480d      	ldr	r0, [pc, #52]	; (8004e14 <HAL_TIM_Base_Stop_IT+0xac>)
 8004de0:	f7fb ff97 	bl	8000d12 <assert_failed>
  __HAL_TIM_DISABLE_IT(htim, TIM_IT_UPDATE);
 8004de4:	6823      	ldr	r3, [r4, #0]
 8004de6:	68da      	ldr	r2, [r3, #12]
 8004de8:	f022 0201 	bic.w	r2, r2, #1
 8004dec:	60da      	str	r2, [r3, #12]
  __HAL_TIM_DISABLE(htim);
 8004dee:	6a19      	ldr	r1, [r3, #32]
 8004df0:	f241 1211 	movw	r2, #4369	; 0x1111
 8004df4:	4211      	tst	r1, r2
 8004df6:	d108      	bne.n	8004e0a <HAL_TIM_Base_Stop_IT+0xa2>
 8004df8:	6a19      	ldr	r1, [r3, #32]
 8004dfa:	f240 4244 	movw	r2, #1092	; 0x444
 8004dfe:	4211      	tst	r1, r2
 8004e00:	bf02      	ittt	eq
 8004e02:	681a      	ldreq	r2, [r3, #0]
 8004e04:	f022 0201 	biceq.w	r2, r2, #1
 8004e08:	601a      	streq	r2, [r3, #0]
}
 8004e0a:	2000      	movs	r0, #0
 8004e0c:	bd10      	pop	{r4, pc}
 8004e0e:	bf00      	nop
 8004e10:	40010000 	.word	0x40010000
 8004e14:	08008490 	.word	0x08008490

08004e18 <HAL_TIM_OC_DelayElapsedCallback>:
 8004e18:	4770      	bx	lr

08004e1a <HAL_TIM_IC_CaptureCallback>:
 8004e1a:	4770      	bx	lr

08004e1c <HAL_TIM_PWM_PulseFinishedCallback>:
 8004e1c:	4770      	bx	lr

08004e1e <HAL_TIM_TriggerCallback>:
 8004e1e:	4770      	bx	lr

08004e20 <HAL_TIM_IRQHandler>:
  if(__HAL_TIM_GET_FLAG(htim, TIM_FLAG_CC1) != RESET)
 8004e20:	6803      	ldr	r3, [r0, #0]
 8004e22:	691a      	ldr	r2, [r3, #16]
 8004e24:	0791      	lsls	r1, r2, #30
{
 8004e26:	b510      	push	{r4, lr}
 8004e28:	4604      	mov	r4, r0
  if(__HAL_TIM_GET_FLAG(htim, TIM_FLAG_CC1) != RESET)
 8004e2a:	d50e      	bpl.n	8004e4a <HAL_TIM_IRQHandler+0x2a>
    if(__HAL_TIM_GET_IT_SOURCE(htim, TIM_IT_CC1) !=RESET)
 8004e2c:	68da      	ldr	r2, [r3, #12]
 8004e2e:	0792      	lsls	r2, r2, #30
 8004e30:	d50b      	bpl.n	8004e4a <HAL_TIM_IRQHandler+0x2a>
        __HAL_TIM_CLEAR_IT(htim, TIM_IT_CC1);
 8004e32:	f06f 0202 	mvn.w	r2, #2
 8004e36:	611a      	str	r2, [r3, #16]
        if((htim->Instance->CCMR1 & TIM_CCMR1_CC1S) != 0x00U)
 8004e38:	699b      	ldr	r3, [r3, #24]
        htim->Channel = HAL_TIM_ACTIVE_CHANNEL_1;
 8004e3a:	2201      	movs	r2, #1
        if((htim->Instance->CCMR1 & TIM_CCMR1_CC1S) != 0x00U)
 8004e3c:	079b      	lsls	r3, r3, #30
        htim->Channel = HAL_TIM_ACTIVE_CHANNEL_1;
 8004e3e:	7602      	strb	r2, [r0, #24]
        if((htim->Instance->CCMR1 & TIM_CCMR1_CC1S) != 0x00U)
 8004e40:	d077      	beq.n	8004f32 <HAL_TIM_IRQHandler+0x112>
          HAL_TIM_IC_CaptureCallback(htim);
 8004e42:	f7ff ffea 	bl	8004e1a <HAL_TIM_IC_CaptureCallback>
        htim->Channel = HAL_TIM_ACTIVE_CHANNEL_CLEARED;
 8004e46:	2300      	movs	r3, #0
 8004e48:	7623      	strb	r3, [r4, #24]
  if(__HAL_TIM_GET_FLAG(htim, TIM_FLAG_CC2) != RESET)
 8004e4a:	6823      	ldr	r3, [r4, #0]
 8004e4c:	691a      	ldr	r2, [r3, #16]
 8004e4e:	0750      	lsls	r0, r2, #29
 8004e50:	d510      	bpl.n	8004e74 <HAL_TIM_IRQHandler+0x54>
    if(__HAL_TIM_GET_IT_SOURCE(htim, TIM_IT_CC2) !=RESET)
 8004e52:	68da      	ldr	r2, [r3, #12]
 8004e54:	0751      	lsls	r1, r2, #29
 8004e56:	d50d      	bpl.n	8004e74 <HAL_TIM_IRQHandler+0x54>
      __HAL_TIM_CLEAR_IT(htim, TIM_IT_CC2);
 8004e58:	f06f 0204 	mvn.w	r2, #4
 8004e5c:	611a      	str	r2, [r3, #16]
      if((htim->Instance->CCMR1 & TIM_CCMR1_CC2S) != 0x00U)
 8004e5e:	699b      	ldr	r3, [r3, #24]
      htim->Channel = HAL_TIM_ACTIVE_CHANNEL_2;
 8004e60:	2202      	movs	r2, #2
      if((htim->Instance->CCMR1 & TIM_CCMR1_CC2S) != 0x00U)
 8004e62:	f413 7f40 	tst.w	r3, #768	; 0x300
      htim->Channel = HAL_TIM_ACTIVE_CHANNEL_2;
 8004e66:	7622      	strb	r2, [r4, #24]
        HAL_TIM_IC_CaptureCallback(htim);
 8004e68:	4620      	mov	r0, r4
      if((htim->Instance->CCMR1 & TIM_CCMR1_CC2S) != 0x00U)
 8004e6a:	d068      	beq.n	8004f3e <HAL_TIM_IRQHandler+0x11e>
        HAL_TIM_IC_CaptureCallback(htim);
 8004e6c:	f7ff ffd5 	bl	8004e1a <HAL_TIM_IC_CaptureCallback>
      htim->Channel = HAL_TIM_ACTIVE_CHANNEL_CLEARED;
 8004e70:	2300      	movs	r3, #0
 8004e72:	7623      	strb	r3, [r4, #24]
  if(__HAL_TIM_GET_FLAG(htim, TIM_FLAG_CC3) != RESET)
 8004e74:	6823      	ldr	r3, [r4, #0]
 8004e76:	691a      	ldr	r2, [r3, #16]
 8004e78:	0712      	lsls	r2, r2, #28
 8004e7a:	d50f      	bpl.n	8004e9c <HAL_TIM_IRQHandler+0x7c>
    if(__HAL_TIM_GET_IT_SOURCE(htim, TIM_IT_CC3) !=RESET)
 8004e7c:	68da      	ldr	r2, [r3, #12]
 8004e7e:	0710      	lsls	r0, r2, #28
 8004e80:	d50c      	bpl.n	8004e9c <HAL_TIM_IRQHandler+0x7c>
      __HAL_TIM_CLEAR_IT(htim, TIM_IT_CC3);
 8004e82:	f06f 0208 	mvn.w	r2, #8
 8004e86:	611a      	str	r2, [r3, #16]
      if((htim->Instance->CCMR2 & TIM_CCMR2_CC3S) != 0x00U)
 8004e88:	69db      	ldr	r3, [r3, #28]
      htim->Channel = HAL_TIM_ACTIVE_CHANNEL_3;
 8004e8a:	2204      	movs	r2, #4
      if((htim->Instance->CCMR2 & TIM_CCMR2_CC3S) != 0x00U)
 8004e8c:	0799      	lsls	r1, r3, #30
      htim->Channel = HAL_TIM_ACTIVE_CHANNEL_3;
 8004e8e:	7622      	strb	r2, [r4, #24]
        HAL_TIM_IC_CaptureCallback(htim);
 8004e90:	4620      	mov	r0, r4
      if((htim->Instance->CCMR2 & TIM_CCMR2_CC3S) != 0x00U)
 8004e92:	d05a      	beq.n	8004f4a <HAL_TIM_IRQHandler+0x12a>
        HAL_TIM_IC_CaptureCallback(htim);
 8004e94:	f7ff ffc1 	bl	8004e1a <HAL_TIM_IC_CaptureCallback>
      htim->Channel = HAL_TIM_ACTIVE_CHANNEL_CLEARED;
 8004e98:	2300      	movs	r3, #0
 8004e9a:	7623      	strb	r3, [r4, #24]
  if(__HAL_TIM_GET_FLAG(htim, TIM_FLAG_CC4) != RESET)
 8004e9c:	6823      	ldr	r3, [r4, #0]
 8004e9e:	691a      	ldr	r2, [r3, #16]
 8004ea0:	06d2      	lsls	r2, r2, #27
 8004ea2:	d510      	bpl.n	8004ec6 <HAL_TIM_IRQHandler+0xa6>
    if(__HAL_TIM_GET_IT_SOURCE(htim, TIM_IT_CC4) !=RESET)
 8004ea4:	68da      	ldr	r2, [r3, #12]
 8004ea6:	06d0      	lsls	r0, r2, #27
 8004ea8:	d50d      	bpl.n	8004ec6 <HAL_TIM_IRQHandler+0xa6>
      __HAL_TIM_CLEAR_IT(htim, TIM_IT_CC4);
 8004eaa:	f06f 0210 	mvn.w	r2, #16
 8004eae:	611a      	str	r2, [r3, #16]
      if((htim->Instance->CCMR2 & TIM_CCMR2_CC4S) != 0x00U)
 8004eb0:	69db      	ldr	r3, [r3, #28]
      htim->Channel = HAL_TIM_ACTIVE_CHANNEL_4;
 8004eb2:	2208      	movs	r2, #8
      if((htim->Instance->CCMR2 & TIM_CCMR2_CC4S) != 0x00U)
 8004eb4:	f413 7f40 	tst.w	r3, #768	; 0x300
      htim->Channel = HAL_TIM_ACTIVE_CHANNEL_4;
 8004eb8:	7622      	strb	r2, [r4, #24]
        HAL_TIM_IC_CaptureCallback(htim);
 8004eba:	4620      	mov	r0, r4
      if((htim->Instance->CCMR2 & TIM_CCMR2_CC4S) != 0x00U)
 8004ebc:	d04b      	beq.n	8004f56 <HAL_TIM_IRQHandler+0x136>
        HAL_TIM_IC_CaptureCallback(htim);
 8004ebe:	f7ff ffac 	bl	8004e1a <HAL_TIM_IC_CaptureCallback>
      htim->Channel = HAL_TIM_ACTIVE_CHANNEL_CLEARED;
 8004ec2:	2300      	movs	r3, #0
 8004ec4:	7623      	strb	r3, [r4, #24]
  if(__HAL_TIM_GET_FLAG(htim, TIM_FLAG_UPDATE) != RESET)
 8004ec6:	6823      	ldr	r3, [r4, #0]
 8004ec8:	691a      	ldr	r2, [r3, #16]
 8004eca:	07d1      	lsls	r1, r2, #31
 8004ecc:	d508      	bpl.n	8004ee0 <HAL_TIM_IRQHandler+0xc0>
    if(__HAL_TIM_GET_IT_SOURCE(htim, TIM_IT_UPDATE) !=RESET)
 8004ece:	68da      	ldr	r2, [r3, #12]
 8004ed0:	07d2      	lsls	r2, r2, #31
 8004ed2:	d505      	bpl.n	8004ee0 <HAL_TIM_IRQHandler+0xc0>
      __HAL_TIM_CLEAR_IT(htim, TIM_IT_UPDATE);
 8004ed4:	f06f 0201 	mvn.w	r2, #1
 8004ed8:	611a      	str	r2, [r3, #16]
      HAL_TIM_PeriodElapsedCallback(htim);
 8004eda:	4620      	mov	r0, r4
 8004edc:	f7fb ff02 	bl	8000ce4 <HAL_TIM_PeriodElapsedCallback>
  if(__HAL_TIM_GET_FLAG(htim, TIM_FLAG_BREAK) != RESET)
 8004ee0:	6823      	ldr	r3, [r4, #0]
 8004ee2:	691a      	ldr	r2, [r3, #16]
 8004ee4:	0610      	lsls	r0, r2, #24
 8004ee6:	d508      	bpl.n	8004efa <HAL_TIM_IRQHandler+0xda>
    if(__HAL_TIM_GET_IT_SOURCE(htim, TIM_IT_BREAK) !=RESET)
 8004ee8:	68da      	ldr	r2, [r3, #12]
 8004eea:	0611      	lsls	r1, r2, #24
 8004eec:	d505      	bpl.n	8004efa <HAL_TIM_IRQHandler+0xda>
      __HAL_TIM_CLEAR_IT(htim, TIM_IT_BREAK);
 8004eee:	f06f 0280 	mvn.w	r2, #128	; 0x80
 8004ef2:	611a      	str	r2, [r3, #16]
      HAL_TIMEx_BreakCallback(htim);
 8004ef4:	4620      	mov	r0, r4
 8004ef6:	f000 fb4e 	bl	8005596 <HAL_TIMEx_BreakCallback>
  if(__HAL_TIM_GET_FLAG(htim, TIM_FLAG_TRIGGER) != RESET)
 8004efa:	6823      	ldr	r3, [r4, #0]
 8004efc:	691a      	ldr	r2, [r3, #16]
 8004efe:	0652      	lsls	r2, r2, #25
 8004f00:	d508      	bpl.n	8004f14 <HAL_TIM_IRQHandler+0xf4>
    if(__HAL_TIM_GET_IT_SOURCE(htim, TIM_IT_TRIGGER) !=RESET)
 8004f02:	68da      	ldr	r2, [r3, #12]
 8004f04:	0650      	lsls	r0, r2, #25
 8004f06:	d505      	bpl.n	8004f14 <HAL_TIM_IRQHandler+0xf4>
      __HAL_TIM_CLEAR_IT(htim, TIM_IT_TRIGGER);
 8004f08:	f06f 0240 	mvn.w	r2, #64	; 0x40
 8004f0c:	611a      	str	r2, [r3, #16]
      HAL_TIM_TriggerCallback(htim);
 8004f0e:	4620      	mov	r0, r4
 8004f10:	f7ff ff85 	bl	8004e1e <HAL_TIM_TriggerCallback>
  if(__HAL_TIM_GET_FLAG(htim, TIM_FLAG_COM) != RESET)
 8004f14:	6823      	ldr	r3, [r4, #0]
 8004f16:	691a      	ldr	r2, [r3, #16]
 8004f18:	0691      	lsls	r1, r2, #26
 8004f1a:	d522      	bpl.n	8004f62 <HAL_TIM_IRQHandler+0x142>
    if(__HAL_TIM_GET_IT_SOURCE(htim, TIM_IT_COM) !=RESET)
 8004f1c:	68da      	ldr	r2, [r3, #12]
 8004f1e:	0692      	lsls	r2, r2, #26
 8004f20:	d51f      	bpl.n	8004f62 <HAL_TIM_IRQHandler+0x142>
      __HAL_TIM_CLEAR_IT(htim, TIM_FLAG_COM);
 8004f22:	f06f 0220 	mvn.w	r2, #32
      HAL_TIMEx_CommutationCallback(htim);
 8004f26:	4620      	mov	r0, r4
      __HAL_TIM_CLEAR_IT(htim, TIM_FLAG_COM);
 8004f28:	611a      	str	r2, [r3, #16]
}
 8004f2a:	e8bd 4010 	ldmia.w	sp!, {r4, lr}
      HAL_TIMEx_CommutationCallback(htim);
 8004f2e:	f000 bb31 	b.w	8005594 <HAL_TIMEx_CommutationCallback>
          HAL_TIM_OC_DelayElapsedCallback(htim);
 8004f32:	f7ff ff71 	bl	8004e18 <HAL_TIM_OC_DelayElapsedCallback>
          HAL_TIM_PWM_PulseFinishedCallback(htim);
 8004f36:	4620      	mov	r0, r4
 8004f38:	f7ff ff70 	bl	8004e1c <HAL_TIM_PWM_PulseFinishedCallback>
 8004f3c:	e783      	b.n	8004e46 <HAL_TIM_IRQHandler+0x26>
        HAL_TIM_OC_DelayElapsedCallback(htim);
 8004f3e:	f7ff ff6b 	bl	8004e18 <HAL_TIM_OC_DelayElapsedCallback>
        HAL_TIM_PWM_PulseFinishedCallback(htim);
 8004f42:	4620      	mov	r0, r4
 8004f44:	f7ff ff6a 	bl	8004e1c <HAL_TIM_PWM_PulseFinishedCallback>
 8004f48:	e792      	b.n	8004e70 <HAL_TIM_IRQHandler+0x50>
        HAL_TIM_OC_DelayElapsedCallback(htim);
 8004f4a:	f7ff ff65 	bl	8004e18 <HAL_TIM_OC_DelayElapsedCallback>
        HAL_TIM_PWM_PulseFinishedCallback(htim); 
 8004f4e:	4620      	mov	r0, r4
 8004f50:	f7ff ff64 	bl	8004e1c <HAL_TIM_PWM_PulseFinishedCallback>
 8004f54:	e7a0      	b.n	8004e98 <HAL_TIM_IRQHandler+0x78>
        HAL_TIM_OC_DelayElapsedCallback(htim);
 8004f56:	f7ff ff5f 	bl	8004e18 <HAL_TIM_OC_DelayElapsedCallback>
        HAL_TIM_PWM_PulseFinishedCallback(htim);
 8004f5a:	4620      	mov	r0, r4
 8004f5c:	f7ff ff5e 	bl	8004e1c <HAL_TIM_PWM_PulseFinishedCallback>
 8004f60:	e7af      	b.n	8004ec2 <HAL_TIM_IRQHandler+0xa2>
 8004f62:	bd10      	pop	{r4, pc}

08004f64 <TIM_Base_SetConfig>:
  if(IS_TIM_CC3_INSTANCE(TIMx) != RESET)   
 8004f64:	4a2e      	ldr	r2, [pc, #184]	; (8005020 <TIM_Base_SetConfig+0xbc>)
  tmpcr1 = TIMx->CR1;
 8004f66:	6803      	ldr	r3, [r0, #0]
  if(IS_TIM_CC3_INSTANCE(TIMx) != RESET)   
 8004f68:	4290      	cmp	r0, r2
 8004f6a:	d012      	beq.n	8004f92 <TIM_Base_SetConfig+0x2e>
 8004f6c:	f1b0 4f80 	cmp.w	r0, #1073741824	; 0x40000000
 8004f70:	d00f      	beq.n	8004f92 <TIM_Base_SetConfig+0x2e>
 8004f72:	f5a2 427c 	sub.w	r2, r2, #64512	; 0xfc00
 8004f76:	4290      	cmp	r0, r2
 8004f78:	d00b      	beq.n	8004f92 <TIM_Base_SetConfig+0x2e>
 8004f7a:	f502 6280 	add.w	r2, r2, #1024	; 0x400
 8004f7e:	4290      	cmp	r0, r2
 8004f80:	d007      	beq.n	8004f92 <TIM_Base_SetConfig+0x2e>
 8004f82:	f502 6280 	add.w	r2, r2, #1024	; 0x400
 8004f86:	4290      	cmp	r0, r2
 8004f88:	d003      	beq.n	8004f92 <TIM_Base_SetConfig+0x2e>
 8004f8a:	f502 4278 	add.w	r2, r2, #63488	; 0xf800
 8004f8e:	4290      	cmp	r0, r2
 8004f90:	d11d      	bne.n	8004fce <TIM_Base_SetConfig+0x6a>
    tmpcr1 |= Structure->CounterMode;
 8004f92:	684a      	ldr	r2, [r1, #4]
    tmpcr1 &= ~(TIM_CR1_DIR | TIM_CR1_CMS);
 8004f94:	f023 0370 	bic.w	r3, r3, #112	; 0x70
    tmpcr1 |= Structure->CounterMode;
 8004f98:	4313      	orrs	r3, r2
  if(IS_TIM_CC1_INSTANCE(TIMx) != RESET)  
 8004f9a:	4a21      	ldr	r2, [pc, #132]	; (8005020 <TIM_Base_SetConfig+0xbc>)
 8004f9c:	4290      	cmp	r0, r2
 8004f9e:	d104      	bne.n	8004faa <TIM_Base_SetConfig+0x46>
    tmpcr1 |= (uint32_t)Structure->ClockDivision;
 8004fa0:	68ca      	ldr	r2, [r1, #12]
    tmpcr1 &= ~TIM_CR1_CKD;
 8004fa2:	f423 7340 	bic.w	r3, r3, #768	; 0x300
    tmpcr1 |= (uint32_t)Structure->ClockDivision;
 8004fa6:	4313      	orrs	r3, r2
 8004fa8:	e028      	b.n	8004ffc <TIM_Base_SetConfig+0x98>
  if(IS_TIM_CC1_INSTANCE(TIMx) != RESET)  
 8004faa:	f1b0 4f80 	cmp.w	r0, #1073741824	; 0x40000000
 8004fae:	d0f7      	beq.n	8004fa0 <TIM_Base_SetConfig+0x3c>
 8004fb0:	4a1c      	ldr	r2, [pc, #112]	; (8005024 <TIM_Base_SetConfig+0xc0>)
 8004fb2:	4290      	cmp	r0, r2
 8004fb4:	d0f4      	beq.n	8004fa0 <TIM_Base_SetConfig+0x3c>
 8004fb6:	f502 6280 	add.w	r2, r2, #1024	; 0x400
 8004fba:	4290      	cmp	r0, r2
 8004fbc:	d0f0      	beq.n	8004fa0 <TIM_Base_SetConfig+0x3c>
 8004fbe:	f502 6280 	add.w	r2, r2, #1024	; 0x400
 8004fc2:	4290      	cmp	r0, r2
 8004fc4:	d0ec      	beq.n	8004fa0 <TIM_Base_SetConfig+0x3c>
 8004fc6:	f502 4278 	add.w	r2, r2, #63488	; 0xf800
 8004fca:	4290      	cmp	r0, r2
 8004fcc:	d0e8      	beq.n	8004fa0 <TIM_Base_SetConfig+0x3c>
 8004fce:	4a16      	ldr	r2, [pc, #88]	; (8005028 <TIM_Base_SetConfig+0xc4>)
 8004fd0:	4290      	cmp	r0, r2
 8004fd2:	d0e5      	beq.n	8004fa0 <TIM_Base_SetConfig+0x3c>
 8004fd4:	f502 6280 	add.w	r2, r2, #1024	; 0x400
 8004fd8:	4290      	cmp	r0, r2
 8004fda:	d0e1      	beq.n	8004fa0 <TIM_Base_SetConfig+0x3c>
 8004fdc:	f502 6280 	add.w	r2, r2, #1024	; 0x400
 8004fe0:	4290      	cmp	r0, r2
 8004fe2:	d0dd      	beq.n	8004fa0 <TIM_Base_SetConfig+0x3c>
 8004fe4:	f5a2 3298 	sub.w	r2, r2, #77824	; 0x13000
 8004fe8:	4290      	cmp	r0, r2
 8004fea:	d0d9      	beq.n	8004fa0 <TIM_Base_SetConfig+0x3c>
 8004fec:	f502 6280 	add.w	r2, r2, #1024	; 0x400
 8004ff0:	4290      	cmp	r0, r2
 8004ff2:	d0d5      	beq.n	8004fa0 <TIM_Base_SetConfig+0x3c>
 8004ff4:	f502 6280 	add.w	r2, r2, #1024	; 0x400
 8004ff8:	4290      	cmp	r0, r2
 8004ffa:	d0d1      	beq.n	8004fa0 <TIM_Base_SetConfig+0x3c>
  TIMx->CR1 = tmpcr1;
 8004ffc:	6003      	str	r3, [r0, #0]
  TIMx->ARR = (uint32_t)Structure->Period ;
 8004ffe:	688b      	ldr	r3, [r1, #8]
 8005000:	62c3      	str	r3, [r0, #44]	; 0x2c
  TIMx->PSC = (uint32_t)Structure->Prescaler;
 8005002:	680b      	ldr	r3, [r1, #0]
 8005004:	6283      	str	r3, [r0, #40]	; 0x28
  if(IS_TIM_ADVANCED_INSTANCE(TIMx) != RESET)  
 8005006:	4b06      	ldr	r3, [pc, #24]	; (8005020 <TIM_Base_SetConfig+0xbc>)
 8005008:	4298      	cmp	r0, r3
 800500a:	d006      	beq.n	800501a <TIM_Base_SetConfig+0xb6>
 800500c:	f503 6380 	add.w	r3, r3, #1024	; 0x400
 8005010:	4298      	cmp	r0, r3
 8005012:	d002      	beq.n	800501a <TIM_Base_SetConfig+0xb6>
  TIMx->EGR = TIM_EGR_UG;
 8005014:	2301      	movs	r3, #1
 8005016:	6143      	str	r3, [r0, #20]
}
 8005018:	4770      	bx	lr
    TIMx->RCR = Structure->RepetitionCounter;
 800501a:	690b      	ldr	r3, [r1, #16]
 800501c:	6303      	str	r3, [r0, #48]	; 0x30
 800501e:	e7f9      	b.n	8005014 <TIM_Base_SetConfig+0xb0>
 8005020:	40010000 	.word	0x40010000
 8005024:	40000400 	.word	0x40000400
 8005028:	40014000 	.word	0x40014000

0800502c <HAL_TIM_Base_Init>:
{ 
 800502c:	b510      	push	{r4, lr}
  if(htim == NULL)
 800502e:	4604      	mov	r4, r0
 8005030:	2800      	cmp	r0, #0
 8005032:	d069      	beq.n	8005108 <HAL_TIM_Base_Init+0xdc>
  assert_param(IS_TIM_INSTANCE(htim->Instance)); 
 8005034:	6803      	ldr	r3, [r0, #0]
 8005036:	4a35      	ldr	r2, [pc, #212]	; (800510c <HAL_TIM_Base_Init+0xe0>)
 8005038:	4293      	cmp	r3, r2
 800503a:	d036      	beq.n	80050aa <HAL_TIM_Base_Init+0x7e>
 800503c:	f1b3 4f80 	cmp.w	r3, #1073741824	; 0x40000000
 8005040:	d033      	beq.n	80050aa <HAL_TIM_Base_Init+0x7e>
 8005042:	f5a2 427c 	sub.w	r2, r2, #64512	; 0xfc00
 8005046:	4293      	cmp	r3, r2
 8005048:	d02f      	beq.n	80050aa <HAL_TIM_Base_Init+0x7e>
 800504a:	f502 6280 	add.w	r2, r2, #1024	; 0x400
 800504e:	4293      	cmp	r3, r2
 8005050:	d02b      	beq.n	80050aa <HAL_TIM_Base_Init+0x7e>
 8005052:	f502 6280 	add.w	r2, r2, #1024	; 0x400
 8005056:	4293      	cmp	r3, r2
 8005058:	d027      	beq.n	80050aa <HAL_TIM_Base_Init+0x7e>
 800505a:	f502 6280 	add.w	r2, r2, #1024	; 0x400
 800505e:	4293      	cmp	r3, r2
 8005060:	d023      	beq.n	80050aa <HAL_TIM_Base_Init+0x7e>
 8005062:	f502 6280 	add.w	r2, r2, #1024	; 0x400
 8005066:	4293      	cmp	r3, r2
 8005068:	d01f      	beq.n	80050aa <HAL_TIM_Base_Init+0x7e>
 800506a:	f502 4270 	add.w	r2, r2, #61440	; 0xf000
 800506e:	4293      	cmp	r3, r2
 8005070:	d01b      	beq.n	80050aa <HAL_TIM_Base_Init+0x7e>
 8005072:	f502 5270 	add.w	r2, r2, #15360	; 0x3c00
 8005076:	4293      	cmp	r3, r2
 8005078:	d017      	beq.n	80050aa <HAL_TIM_Base_Init+0x7e>
 800507a:	f502 6280 	add.w	r2, r2, #1024	; 0x400
 800507e:	4293      	cmp	r3, r2
 8005080:	d013      	beq.n	80050aa <HAL_TIM_Base_Init+0x7e>
 8005082:	f502 6280 	add.w	r2, r2, #1024	; 0x400
 8005086:	4293      	cmp	r3, r2
 8005088:	d00f      	beq.n	80050aa <HAL_TIM_Base_Init+0x7e>
 800508a:	f5a2 3298 	sub.w	r2, r2, #77824	; 0x13000
 800508e:	4293      	cmp	r3, r2
 8005090:	d00b      	beq.n	80050aa <HAL_TIM_Base_Init+0x7e>
 8005092:	f502 6280 	add.w	r2, r2, #1024	; 0x400
 8005096:	4293      	cmp	r3, r2
 8005098:	d007      	beq.n	80050aa <HAL_TIM_Base_Init+0x7e>
 800509a:	f502 6280 	add.w	r2, r2, #1024	; 0x400
 800509e:	4293      	cmp	r3, r2
 80050a0:	d003      	beq.n	80050aa <HAL_TIM_Base_Init+0x7e>
 80050a2:	21d9      	movs	r1, #217	; 0xd9
 80050a4:	481a      	ldr	r0, [pc, #104]	; (8005110 <HAL_TIM_Base_Init+0xe4>)
 80050a6:	f7fb fe34 	bl	8000d12 <assert_failed>
  assert_param(IS_TIM_COUNTER_MODE(htim->Init.CounterMode));
 80050aa:	68a3      	ldr	r3, [r4, #8]
 80050ac:	f033 0210 	bics.w	r2, r3, #16
 80050b0:	d009      	beq.n	80050c6 <HAL_TIM_Base_Init+0x9a>
 80050b2:	f023 0240 	bic.w	r2, r3, #64	; 0x40
 80050b6:	2a20      	cmp	r2, #32
 80050b8:	d005      	beq.n	80050c6 <HAL_TIM_Base_Init+0x9a>
 80050ba:	2b40      	cmp	r3, #64	; 0x40
 80050bc:	d003      	beq.n	80050c6 <HAL_TIM_Base_Init+0x9a>
 80050be:	21da      	movs	r1, #218	; 0xda
 80050c0:	4813      	ldr	r0, [pc, #76]	; (8005110 <HAL_TIM_Base_Init+0xe4>)
 80050c2:	f7fb fe26 	bl	8000d12 <assert_failed>
  assert_param(IS_TIM_CLOCKDIVISION_DIV(htim->Init.ClockDivision));
 80050c6:	6923      	ldr	r3, [r4, #16]
 80050c8:	f433 7280 	bics.w	r2, r3, #256	; 0x100
 80050cc:	d006      	beq.n	80050dc <HAL_TIM_Base_Init+0xb0>
 80050ce:	f5b3 7f00 	cmp.w	r3, #512	; 0x200
 80050d2:	d003      	beq.n	80050dc <HAL_TIM_Base_Init+0xb0>
 80050d4:	21db      	movs	r1, #219	; 0xdb
 80050d6:	480e      	ldr	r0, [pc, #56]	; (8005110 <HAL_TIM_Base_Init+0xe4>)
 80050d8:	f7fb fe1b 	bl	8000d12 <assert_failed>
  if(htim->State == HAL_TIM_STATE_RESET)
 80050dc:	f894 3039 	ldrb.w	r3, [r4, #57]	; 0x39
 80050e0:	f003 02ff 	and.w	r2, r3, #255	; 0xff
 80050e4:	b923      	cbnz	r3, 80050f0 <HAL_TIM_Base_Init+0xc4>
    htim->Lock = HAL_UNLOCKED;
 80050e6:	f884 2038 	strb.w	r2, [r4, #56]	; 0x38
    HAL_TIM_Base_MspInit(htim);
 80050ea:	4620      	mov	r0, r4
 80050ec:	f7fb ff88 	bl	8001000 <HAL_TIM_Base_MspInit>
  htim->State= HAL_TIM_STATE_BUSY;
 80050f0:	2302      	movs	r3, #2
 80050f2:	f884 3039 	strb.w	r3, [r4, #57]	; 0x39
  TIM_Base_SetConfig(htim->Instance, &htim->Init); 
 80050f6:	6820      	ldr	r0, [r4, #0]
 80050f8:	1d21      	adds	r1, r4, #4
 80050fa:	f7ff ff33 	bl	8004f64 <TIM_Base_SetConfig>
  htim->State= HAL_TIM_STATE_READY;
 80050fe:	2301      	movs	r3, #1
 8005100:	f884 3039 	strb.w	r3, [r4, #57]	; 0x39
  return HAL_OK;
 8005104:	2000      	movs	r0, #0
 8005106:	bd10      	pop	{r4, pc}
    return HAL_ERROR;
 8005108:	2001      	movs	r0, #1
}
 800510a:	bd10      	pop	{r4, pc}
 800510c:	40010000 	.word	0x40010000
 8005110:	08008490 	.word	0x08008490

08005114 <HAL_TIM_PWM_Init>:
{
 8005114:	b510      	push	{r4, lr}
  if(htim == NULL)
 8005116:	4604      	mov	r4, r0
 8005118:	2800      	cmp	r0, #0
 800511a:	d06c      	beq.n	80051f6 <HAL_TIM_PWM_Init+0xe2>
  assert_param(IS_TIM_INSTANCE(htim->Instance));
 800511c:	6803      	ldr	r3, [r0, #0]
 800511e:	4a37      	ldr	r2, [pc, #220]	; (80051fc <HAL_TIM_PWM_Init+0xe8>)
 8005120:	4293      	cmp	r3, r2
 8005122:	d037      	beq.n	8005194 <HAL_TIM_PWM_Init+0x80>
 8005124:	f1b3 4f80 	cmp.w	r3, #1073741824	; 0x40000000
 8005128:	d034      	beq.n	8005194 <HAL_TIM_PWM_Init+0x80>
 800512a:	f5a2 427c 	sub.w	r2, r2, #64512	; 0xfc00
 800512e:	4293      	cmp	r3, r2
 8005130:	d030      	beq.n	8005194 <HAL_TIM_PWM_Init+0x80>
 8005132:	f502 6280 	add.w	r2, r2, #1024	; 0x400
 8005136:	4293      	cmp	r3, r2
 8005138:	d02c      	beq.n	8005194 <HAL_TIM_PWM_Init+0x80>
 800513a:	f502 6280 	add.w	r2, r2, #1024	; 0x400
 800513e:	4293      	cmp	r3, r2
 8005140:	d028      	beq.n	8005194 <HAL_TIM_PWM_Init+0x80>
 8005142:	f502 6280 	add.w	r2, r2, #1024	; 0x400
 8005146:	4293      	cmp	r3, r2
 8005148:	d024      	beq.n	8005194 <HAL_TIM_PWM_Init+0x80>
 800514a:	f502 6280 	add.w	r2, r2, #1024	; 0x400
 800514e:	4293      	cmp	r3, r2
 8005150:	d020      	beq.n	8005194 <HAL_TIM_PWM_Init+0x80>
 8005152:	f502 4270 	add.w	r2, r2, #61440	; 0xf000
 8005156:	4293      	cmp	r3, r2
 8005158:	d01c      	beq.n	8005194 <HAL_TIM_PWM_Init+0x80>
 800515a:	f502 5270 	add.w	r2, r2, #15360	; 0x3c00
 800515e:	4293      	cmp	r3, r2
 8005160:	d018      	beq.n	8005194 <HAL_TIM_PWM_Init+0x80>
 8005162:	f502 6280 	add.w	r2, r2, #1024	; 0x400
 8005166:	4293      	cmp	r3, r2
 8005168:	d014      	beq.n	8005194 <HAL_TIM_PWM_Init+0x80>
 800516a:	f502 6280 	add.w	r2, r2, #1024	; 0x400
 800516e:	4293      	cmp	r3, r2
 8005170:	d010      	beq.n	8005194 <HAL_TIM_PWM_Init+0x80>
 8005172:	f5a2 3298 	sub.w	r2, r2, #77824	; 0x13000
 8005176:	4293      	cmp	r3, r2
 8005178:	d00c      	beq.n	8005194 <HAL_TIM_PWM_Init+0x80>
 800517a:	f502 6280 	add.w	r2, r2, #1024	; 0x400
 800517e:	4293      	cmp	r3, r2
 8005180:	d008      	beq.n	8005194 <HAL_TIM_PWM_Init+0x80>
 8005182:	f502 6280 	add.w	r2, r2, #1024	; 0x400
 8005186:	4293      	cmp	r3, r2
 8005188:	d004      	beq.n	8005194 <HAL_TIM_PWM_Init+0x80>
 800518a:	f240 31f3 	movw	r1, #1011	; 0x3f3
 800518e:	481c      	ldr	r0, [pc, #112]	; (8005200 <HAL_TIM_PWM_Init+0xec>)
 8005190:	f7fb fdbf 	bl	8000d12 <assert_failed>
  assert_param(IS_TIM_COUNTER_MODE(htim->Init.CounterMode));
 8005194:	68a3      	ldr	r3, [r4, #8]
 8005196:	f033 0210 	bics.w	r2, r3, #16
 800519a:	d00a      	beq.n	80051b2 <HAL_TIM_PWM_Init+0x9e>
 800519c:	f023 0240 	bic.w	r2, r3, #64	; 0x40
 80051a0:	2a20      	cmp	r2, #32
 80051a2:	d006      	beq.n	80051b2 <HAL_TIM_PWM_Init+0x9e>
 80051a4:	2b40      	cmp	r3, #64	; 0x40
 80051a6:	d004      	beq.n	80051b2 <HAL_TIM_PWM_Init+0x9e>
 80051a8:	f44f 717d 	mov.w	r1, #1012	; 0x3f4
 80051ac:	4814      	ldr	r0, [pc, #80]	; (8005200 <HAL_TIM_PWM_Init+0xec>)
 80051ae:	f7fb fdb0 	bl	8000d12 <assert_failed>
  assert_param(IS_TIM_CLOCKDIVISION_DIV(htim->Init.ClockDivision));
 80051b2:	6923      	ldr	r3, [r4, #16]
 80051b4:	f433 7280 	bics.w	r2, r3, #256	; 0x100
 80051b8:	d007      	beq.n	80051ca <HAL_TIM_PWM_Init+0xb6>
 80051ba:	f5b3 7f00 	cmp.w	r3, #512	; 0x200
 80051be:	d004      	beq.n	80051ca <HAL_TIM_PWM_Init+0xb6>
 80051c0:	f240 31f5 	movw	r1, #1013	; 0x3f5
 80051c4:	480e      	ldr	r0, [pc, #56]	; (8005200 <HAL_TIM_PWM_Init+0xec>)
 80051c6:	f7fb fda4 	bl	8000d12 <assert_failed>
  if(htim->State == HAL_TIM_STATE_RESET)
 80051ca:	f894 3039 	ldrb.w	r3, [r4, #57]	; 0x39
 80051ce:	f003 02ff 	and.w	r2, r3, #255	; 0xff
 80051d2:	b923      	cbnz	r3, 80051de <HAL_TIM_PWM_Init+0xca>
    htim->Lock = HAL_UNLOCKED;
 80051d4:	f884 2038 	strb.w	r2, [r4, #56]	; 0x38
    HAL_TIM_PWM_MspInit(htim);
 80051d8:	4620      	mov	r0, r4
 80051da:	f7fb ff47 	bl	800106c <HAL_TIM_PWM_MspInit>
  htim->State= HAL_TIM_STATE_BUSY;  
 80051de:	2302      	movs	r3, #2
 80051e0:	f884 3039 	strb.w	r3, [r4, #57]	; 0x39
  TIM_Base_SetConfig(htim->Instance, &htim->Init); 
 80051e4:	6820      	ldr	r0, [r4, #0]
 80051e6:	1d21      	adds	r1, r4, #4
 80051e8:	f7ff febc 	bl	8004f64 <TIM_Base_SetConfig>
  htim->State= HAL_TIM_STATE_READY;
 80051ec:	2301      	movs	r3, #1
 80051ee:	f884 3039 	strb.w	r3, [r4, #57]	; 0x39
  return HAL_OK;
 80051f2:	2000      	movs	r0, #0
 80051f4:	bd10      	pop	{r4, pc}
    return HAL_ERROR;
 80051f6:	2001      	movs	r0, #1
}  
 80051f8:	bd10      	pop	{r4, pc}
 80051fa:	bf00      	nop
 80051fc:	40010000 	.word	0x40010000
 8005200:	08008490 	.word	0x08008490

08005204 <TIM_OC2_SetConfig>:
  TIMx->CCER &= ~TIM_CCER_CC2E;
 8005204:	6a03      	ldr	r3, [r0, #32]
 8005206:	f023 0310 	bic.w	r3, r3, #16
{
 800520a:	e92d 41f0 	stmdb	sp!, {r4, r5, r6, r7, r8, lr}
  TIMx->CCER &= ~TIM_CCER_CC2E;
 800520e:	6203      	str	r3, [r0, #32]
  tmpccer = TIMx->CCER;
 8005210:	6a04      	ldr	r4, [r0, #32]
  tmpcr2 = TIMx->CR2;
 8005212:	f8d0 8004 	ldr.w	r8, [r0, #4]
  tmpccmrx = TIMx->CCMR1;
 8005216:	6987      	ldr	r7, [r0, #24]
  tmpccmrx |= (OC_Config->OCMode << 8U);
 8005218:	680b      	ldr	r3, [r1, #0]
  tmpccmrx &= ~TIM_CCMR1_CC2S;
 800521a:	f427 47e6 	bic.w	r7, r7, #29440	; 0x7300
  tmpccmrx |= (OC_Config->OCMode << 8U);
 800521e:	ea47 2703 	orr.w	r7, r7, r3, lsl #8
  tmpccer |= (OC_Config->OCPolarity << 4U);
 8005222:	688b      	ldr	r3, [r1, #8]
  tmpccer &= ~TIM_CCER_CC2P;
 8005224:	f024 0420 	bic.w	r4, r4, #32
  tmpccer |= (OC_Config->OCPolarity << 4U);
 8005228:	ea44 1403 	orr.w	r4, r4, r3, lsl #4
  if(IS_TIM_ADVANCED_INSTANCE(TIMx) != RESET)
 800522c:	4b13      	ldr	r3, [pc, #76]	; (800527c <TIM_OC2_SetConfig+0x78>)
 800522e:	4298      	cmp	r0, r3
{
 8005230:	4605      	mov	r5, r0
 8005232:	460e      	mov	r6, r1
  if(IS_TIM_ADVANCED_INSTANCE(TIMx) != RESET)
 8005234:	d003      	beq.n	800523e <TIM_OC2_SetConfig+0x3a>
 8005236:	f503 6380 	add.w	r3, r3, #1024	; 0x400
 800523a:	4298      	cmp	r0, r3
 800523c:	d116      	bne.n	800526c <TIM_OC2_SetConfig+0x68>
    assert_param(IS_TIM_OCN_POLARITY(OC_Config->OCNPolarity));
 800523e:	68f3      	ldr	r3, [r6, #12]
 8005240:	f033 0308 	bics.w	r3, r3, #8
 8005244:	d004      	beq.n	8005250 <TIM_OC2_SetConfig+0x4c>
 8005246:	f241 2107 	movw	r1, #4615	; 0x1207
 800524a:	480d      	ldr	r0, [pc, #52]	; (8005280 <TIM_OC2_SetConfig+0x7c>)
 800524c:	f7fb fd61 	bl	8000d12 <assert_failed>
    tmpccer |= (OC_Config->OCNPolarity << 4U);
 8005250:	68f3      	ldr	r3, [r6, #12]
    tmpcr2 |= (OC_Config->OCNIdleState << 2U);
 8005252:	69b2      	ldr	r2, [r6, #24]
    tmpccer &= ~TIM_CCER_CC2NP;
 8005254:	f024 0480 	bic.w	r4, r4, #128	; 0x80
    tmpccer |= (OC_Config->OCNPolarity << 4U);
 8005258:	ea44 1403 	orr.w	r4, r4, r3, lsl #4
    tmpcr2 |= (OC_Config->OCIdleState << 2U);
 800525c:	6973      	ldr	r3, [r6, #20]
    tmpcr2 &= ~TIM_CR2_OIS2N;
 800525e:	f428 6840 	bic.w	r8, r8, #3072	; 0xc00
    tmpcr2 |= (OC_Config->OCNIdleState << 2U);
 8005262:	4313      	orrs	r3, r2
    tmpccer &= ~TIM_CCER_CC2NE;
 8005264:	f024 0440 	bic.w	r4, r4, #64	; 0x40
    tmpcr2 |= (OC_Config->OCNIdleState << 2U);
 8005268:	ea48 0883 	orr.w	r8, r8, r3, lsl #2
  TIMx->CCR2 = OC_Config->Pulse;
 800526c:	6873      	ldr	r3, [r6, #4]
  TIMx->CR2 = tmpcr2;
 800526e:	f8c5 8004 	str.w	r8, [r5, #4]
  TIMx->CCMR1 = tmpccmrx;
 8005272:	61af      	str	r7, [r5, #24]
  TIMx->CCR2 = OC_Config->Pulse;
 8005274:	63ab      	str	r3, [r5, #56]	; 0x38
  TIMx->CCER = tmpccer;
 8005276:	622c      	str	r4, [r5, #32]
}
 8005278:	e8bd 81f0 	ldmia.w	sp!, {r4, r5, r6, r7, r8, pc}
 800527c:	40010000 	.word	0x40010000
 8005280:	08008490 	.word	0x08008490

08005284 <HAL_TIM_PWM_ConfigChannel>:
  __HAL_LOCK(htim);
 8005284:	f890 3038 	ldrb.w	r3, [r0, #56]	; 0x38
 8005288:	2b01      	cmp	r3, #1
{
 800528a:	b570      	push	{r4, r5, r6, lr}
 800528c:	4604      	mov	r4, r0
 800528e:	460d      	mov	r5, r1
 8005290:	4616      	mov	r6, r2
  __HAL_LOCK(htim);
 8005292:	f000 8116 	beq.w	80054c2 <HAL_TIM_PWM_ConfigChannel+0x23e>
 8005296:	2301      	movs	r3, #1
  assert_param(IS_TIM_CHANNELS(Channel)); 
 8005298:	2a18      	cmp	r2, #24
  __HAL_LOCK(htim);
 800529a:	f880 3038 	strb.w	r3, [r0, #56]	; 0x38
  assert_param(IS_TIM_CHANNELS(Channel)); 
 800529e:	d803      	bhi.n	80052a8 <HAL_TIM_PWM_ConfigChannel+0x24>
 80052a0:	4b89      	ldr	r3, [pc, #548]	; (80054c8 <HAL_TIM_PWM_ConfigChannel+0x244>)
 80052a2:	40d3      	lsrs	r3, r2
 80052a4:	07db      	lsls	r3, r3, #31
 80052a6:	d404      	bmi.n	80052b2 <HAL_TIM_PWM_ConfigChannel+0x2e>
 80052a8:	f640 414a 	movw	r1, #3146	; 0xc4a
 80052ac:	4887      	ldr	r0, [pc, #540]	; (80054cc <HAL_TIM_PWM_ConfigChannel+0x248>)
 80052ae:	f7fb fd30 	bl	8000d12 <assert_failed>
  assert_param(IS_TIM_PWM_MODE(sConfig->OCMode));
 80052b2:	682b      	ldr	r3, [r5, #0]
 80052b4:	f023 0310 	bic.w	r3, r3, #16
 80052b8:	2b60      	cmp	r3, #96	; 0x60
 80052ba:	d004      	beq.n	80052c6 <HAL_TIM_PWM_ConfigChannel+0x42>
 80052bc:	f640 414b 	movw	r1, #3147	; 0xc4b
 80052c0:	4882      	ldr	r0, [pc, #520]	; (80054cc <HAL_TIM_PWM_ConfigChannel+0x248>)
 80052c2:	f7fb fd26 	bl	8000d12 <assert_failed>
  assert_param(IS_TIM_OC_POLARITY(sConfig->OCPolarity));
 80052c6:	68ab      	ldr	r3, [r5, #8]
 80052c8:	f033 0302 	bics.w	r3, r3, #2
 80052cc:	d004      	beq.n	80052d8 <HAL_TIM_PWM_ConfigChannel+0x54>
 80052ce:	f640 414c 	movw	r1, #3148	; 0xc4c
 80052d2:	487e      	ldr	r0, [pc, #504]	; (80054cc <HAL_TIM_PWM_ConfigChannel+0x248>)
 80052d4:	f7fb fd1d 	bl	8000d12 <assert_failed>
  assert_param(IS_TIM_FAST_STATE(sConfig->OCFastMode));
 80052d8:	692b      	ldr	r3, [r5, #16]
 80052da:	f033 0304 	bics.w	r3, r3, #4
 80052de:	d004      	beq.n	80052ea <HAL_TIM_PWM_ConfigChannel+0x66>
 80052e0:	f640 414d 	movw	r1, #3149	; 0xc4d
 80052e4:	4879      	ldr	r0, [pc, #484]	; (80054cc <HAL_TIM_PWM_ConfigChannel+0x248>)
 80052e6:	f7fb fd14 	bl	8000d12 <assert_failed>
  htim->State = HAL_TIM_STATE_BUSY;
 80052ea:	2302      	movs	r3, #2
 80052ec:	f884 3039 	strb.w	r3, [r4, #57]	; 0x39
  switch (Channel)
 80052f0:	2e0c      	cmp	r6, #12
 80052f2:	d84d      	bhi.n	8005390 <HAL_TIM_PWM_ConfigChannel+0x10c>
 80052f4:	e8df f006 	tbb	[pc, r6]
 80052f8:	4c4c4c07 	.word	0x4c4c4c07
 80052fc:	4c4c4c53 	.word	0x4c4c4c53
 8005300:	4c4c4c89 	.word	0x4c4c4c89
 8005304:	b7          	.byte	0xb7
 8005305:	00          	.byte	0x00
      assert_param(IS_TIM_CC1_INSTANCE(htim->Instance));
 8005306:	6823      	ldr	r3, [r4, #0]
 8005308:	4a71      	ldr	r2, [pc, #452]	; (80054d0 <HAL_TIM_PWM_ConfigChannel+0x24c>)
 800530a:	4293      	cmp	r3, r2
 800530c:	d02f      	beq.n	800536e <HAL_TIM_PWM_ConfigChannel+0xea>
 800530e:	f1b3 4f80 	cmp.w	r3, #1073741824	; 0x40000000
 8005312:	d02c      	beq.n	800536e <HAL_TIM_PWM_ConfigChannel+0xea>
 8005314:	f5a2 427c 	sub.w	r2, r2, #64512	; 0xfc00
 8005318:	4293      	cmp	r3, r2
 800531a:	d028      	beq.n	800536e <HAL_TIM_PWM_ConfigChannel+0xea>
 800531c:	f502 6280 	add.w	r2, r2, #1024	; 0x400
 8005320:	4293      	cmp	r3, r2
 8005322:	d024      	beq.n	800536e <HAL_TIM_PWM_ConfigChannel+0xea>
 8005324:	f502 6280 	add.w	r2, r2, #1024	; 0x400
 8005328:	4293      	cmp	r3, r2
 800532a:	d020      	beq.n	800536e <HAL_TIM_PWM_ConfigChannel+0xea>
 800532c:	f502 4278 	add.w	r2, r2, #63488	; 0xf800
 8005330:	4293      	cmp	r3, r2
 8005332:	d01c      	beq.n	800536e <HAL_TIM_PWM_ConfigChannel+0xea>
 8005334:	f502 5270 	add.w	r2, r2, #15360	; 0x3c00
 8005338:	4293      	cmp	r3, r2
 800533a:	d018      	beq.n	800536e <HAL_TIM_PWM_ConfigChannel+0xea>
 800533c:	f502 6280 	add.w	r2, r2, #1024	; 0x400
 8005340:	4293      	cmp	r3, r2
 8005342:	d014      	beq.n	800536e <HAL_TIM_PWM_ConfigChannel+0xea>
 8005344:	f502 6280 	add.w	r2, r2, #1024	; 0x400
 8005348:	4293      	cmp	r3, r2
 800534a:	d010      	beq.n	800536e <HAL_TIM_PWM_ConfigChannel+0xea>
 800534c:	f5a2 3298 	sub.w	r2, r2, #77824	; 0x13000
 8005350:	4293      	cmp	r3, r2
 8005352:	d00c      	beq.n	800536e <HAL_TIM_PWM_ConfigChannel+0xea>
 8005354:	f502 6280 	add.w	r2, r2, #1024	; 0x400
 8005358:	4293      	cmp	r3, r2
 800535a:	d008      	beq.n	800536e <HAL_TIM_PWM_ConfigChannel+0xea>
 800535c:	f502 6280 	add.w	r2, r2, #1024	; 0x400
 8005360:	4293      	cmp	r3, r2
 8005362:	d004      	beq.n	800536e <HAL_TIM_PWM_ConfigChannel+0xea>
 8005364:	f640 4155 	movw	r1, #3157	; 0xc55
 8005368:	4858      	ldr	r0, [pc, #352]	; (80054cc <HAL_TIM_PWM_ConfigChannel+0x248>)
 800536a:	f7fb fcd2 	bl	8000d12 <assert_failed>
      TIM_OC1_SetConfig(htim->Instance, sConfig);
 800536e:	4629      	mov	r1, r5
 8005370:	6820      	ldr	r0, [r4, #0]
 8005372:	f7ff fbf5 	bl	8004b60 <TIM_OC1_SetConfig>
      htim->Instance->CCMR1 |= TIM_CCMR1_OC1PE;
 8005376:	6823      	ldr	r3, [r4, #0]
      htim->Instance->CCMR1 |= sConfig->OCFastMode;
 8005378:	6929      	ldr	r1, [r5, #16]
      htim->Instance->CCMR1 |= TIM_CCMR1_OC1PE;
 800537a:	699a      	ldr	r2, [r3, #24]
 800537c:	f042 0208 	orr.w	r2, r2, #8
 8005380:	619a      	str	r2, [r3, #24]
      htim->Instance->CCMR1 &= ~TIM_CCMR1_OC1FE;
 8005382:	699a      	ldr	r2, [r3, #24]
 8005384:	f022 0204 	bic.w	r2, r2, #4
 8005388:	619a      	str	r2, [r3, #24]
      htim->Instance->CCMR1 |= sConfig->OCFastMode;
 800538a:	699a      	ldr	r2, [r3, #24]
 800538c:	430a      	orrs	r2, r1
      htim->Instance->CCMR1 |= sConfig->OCFastMode << 8U;
 800538e:	619a      	str	r2, [r3, #24]
  htim->State = HAL_TIM_STATE_READY;
 8005390:	2301      	movs	r3, #1
  __HAL_UNLOCK(htim);
 8005392:	2000      	movs	r0, #0
  htim->State = HAL_TIM_STATE_READY;
 8005394:	f884 3039 	strb.w	r3, [r4, #57]	; 0x39
  __HAL_UNLOCK(htim);
 8005398:	f884 0038 	strb.w	r0, [r4, #56]	; 0x38
  return HAL_OK;
 800539c:	bd70      	pop	{r4, r5, r6, pc}
      assert_param(IS_TIM_CC2_INSTANCE(htim->Instance));
 800539e:	6823      	ldr	r3, [r4, #0]
 80053a0:	4a4b      	ldr	r2, [pc, #300]	; (80054d0 <HAL_TIM_PWM_ConfigChannel+0x24c>)
 80053a2:	4293      	cmp	r3, r2
 80053a4:	d01f      	beq.n	80053e6 <HAL_TIM_PWM_ConfigChannel+0x162>
 80053a6:	f1b3 4f80 	cmp.w	r3, #1073741824	; 0x40000000
 80053aa:	d01c      	beq.n	80053e6 <HAL_TIM_PWM_ConfigChannel+0x162>
 80053ac:	f5a2 427c 	sub.w	r2, r2, #64512	; 0xfc00
 80053b0:	4293      	cmp	r3, r2
 80053b2:	d018      	beq.n	80053e6 <HAL_TIM_PWM_ConfigChannel+0x162>
 80053b4:	f502 6280 	add.w	r2, r2, #1024	; 0x400
 80053b8:	4293      	cmp	r3, r2
 80053ba:	d014      	beq.n	80053e6 <HAL_TIM_PWM_ConfigChannel+0x162>
 80053bc:	f502 6280 	add.w	r2, r2, #1024	; 0x400
 80053c0:	4293      	cmp	r3, r2
 80053c2:	d010      	beq.n	80053e6 <HAL_TIM_PWM_ConfigChannel+0x162>
 80053c4:	f502 4278 	add.w	r2, r2, #63488	; 0xf800
 80053c8:	4293      	cmp	r3, r2
 80053ca:	d00c      	beq.n	80053e6 <HAL_TIM_PWM_ConfigChannel+0x162>
 80053cc:	f502 5270 	add.w	r2, r2, #15360	; 0x3c00
 80053d0:	4293      	cmp	r3, r2
 80053d2:	d008      	beq.n	80053e6 <HAL_TIM_PWM_ConfigChannel+0x162>
 80053d4:	f5a2 3294 	sub.w	r2, r2, #75776	; 0x12800
 80053d8:	4293      	cmp	r3, r2
 80053da:	d004      	beq.n	80053e6 <HAL_TIM_PWM_ConfigChannel+0x162>
 80053dc:	f640 4164 	movw	r1, #3172	; 0xc64
 80053e0:	483a      	ldr	r0, [pc, #232]	; (80054cc <HAL_TIM_PWM_ConfigChannel+0x248>)
 80053e2:	f7fb fc96 	bl	8000d12 <assert_failed>
      TIM_OC2_SetConfig(htim->Instance, sConfig);
 80053e6:	4629      	mov	r1, r5
 80053e8:	6820      	ldr	r0, [r4, #0]
 80053ea:	f7ff ff0b 	bl	8005204 <TIM_OC2_SetConfig>
      htim->Instance->CCMR1 |= TIM_CCMR1_OC2PE;
 80053ee:	6823      	ldr	r3, [r4, #0]
      htim->Instance->CCMR1 |= sConfig->OCFastMode << 8U;
 80053f0:	6929      	ldr	r1, [r5, #16]
      htim->Instance->CCMR1 |= TIM_CCMR1_OC2PE;
 80053f2:	699a      	ldr	r2, [r3, #24]
 80053f4:	f442 6200 	orr.w	r2, r2, #2048	; 0x800
 80053f8:	619a      	str	r2, [r3, #24]
      htim->Instance->CCMR1 &= ~TIM_CCMR1_OC2FE;
 80053fa:	699a      	ldr	r2, [r3, #24]
 80053fc:	f422 6280 	bic.w	r2, r2, #1024	; 0x400
 8005400:	619a      	str	r2, [r3, #24]
      htim->Instance->CCMR1 |= sConfig->OCFastMode << 8U;
 8005402:	699a      	ldr	r2, [r3, #24]
 8005404:	ea42 2201 	orr.w	r2, r2, r1, lsl #8
 8005408:	e7c1      	b.n	800538e <HAL_TIM_PWM_ConfigChannel+0x10a>
      assert_param(IS_TIM_CC3_INSTANCE(htim->Instance));
 800540a:	6823      	ldr	r3, [r4, #0]
 800540c:	4a30      	ldr	r2, [pc, #192]	; (80054d0 <HAL_TIM_PWM_ConfigChannel+0x24c>)
 800540e:	4293      	cmp	r3, r2
 8005410:	d017      	beq.n	8005442 <HAL_TIM_PWM_ConfigChannel+0x1be>
 8005412:	f1b3 4f80 	cmp.w	r3, #1073741824	; 0x40000000
 8005416:	d014      	beq.n	8005442 <HAL_TIM_PWM_ConfigChannel+0x1be>
 8005418:	f5a2 427c 	sub.w	r2, r2, #64512	; 0xfc00
 800541c:	4293      	cmp	r3, r2
 800541e:	d010      	beq.n	8005442 <HAL_TIM_PWM_ConfigChannel+0x1be>
 8005420:	f502 6280 	add.w	r2, r2, #1024	; 0x400
 8005424:	4293      	cmp	r3, r2
 8005426:	d00c      	beq.n	8005442 <HAL_TIM_PWM_ConfigChannel+0x1be>
 8005428:	f502 6280 	add.w	r2, r2, #1024	; 0x400
 800542c:	4293      	cmp	r3, r2
 800542e:	d008      	beq.n	8005442 <HAL_TIM_PWM_ConfigChannel+0x1be>
 8005430:	f502 4278 	add.w	r2, r2, #63488	; 0xf800
 8005434:	4293      	cmp	r3, r2
 8005436:	d004      	beq.n	8005442 <HAL_TIM_PWM_ConfigChannel+0x1be>
 8005438:	f640 4173 	movw	r1, #3187	; 0xc73
 800543c:	4823      	ldr	r0, [pc, #140]	; (80054cc <HAL_TIM_PWM_ConfigChannel+0x248>)
 800543e:	f7fb fc68 	bl	8000d12 <assert_failed>
      TIM_OC3_SetConfig(htim->Instance, sConfig);
 8005442:	4629      	mov	r1, r5
 8005444:	6820      	ldr	r0, [r4, #0]
 8005446:	f7ff fbb7 	bl	8004bb8 <TIM_OC3_SetConfig>
      htim->Instance->CCMR2 |= TIM_CCMR2_OC3PE;
 800544a:	6823      	ldr	r3, [r4, #0]
      htim->Instance->CCMR2 |= sConfig->OCFastMode;  
 800544c:	6929      	ldr	r1, [r5, #16]
      htim->Instance->CCMR2 |= TIM_CCMR2_OC3PE;
 800544e:	69da      	ldr	r2, [r3, #28]
 8005450:	f042 0208 	orr.w	r2, r2, #8
 8005454:	61da      	str	r2, [r3, #28]
      htim->Instance->CCMR2 &= ~TIM_CCMR2_OC3FE;
 8005456:	69da      	ldr	r2, [r3, #28]
 8005458:	f022 0204 	bic.w	r2, r2, #4
 800545c:	61da      	str	r2, [r3, #28]
      htim->Instance->CCMR2 |= sConfig->OCFastMode;  
 800545e:	69da      	ldr	r2, [r3, #28]
 8005460:	430a      	orrs	r2, r1
      htim->Instance->CCMR2 |= sConfig->OCFastMode << 8U;  
 8005462:	61da      	str	r2, [r3, #28]
    break;
 8005464:	e794      	b.n	8005390 <HAL_TIM_PWM_ConfigChannel+0x10c>
      assert_param(IS_TIM_CC4_INSTANCE(htim->Instance));
 8005466:	6823      	ldr	r3, [r4, #0]
 8005468:	4a19      	ldr	r2, [pc, #100]	; (80054d0 <HAL_TIM_PWM_ConfigChannel+0x24c>)
 800546a:	4293      	cmp	r3, r2
 800546c:	d017      	beq.n	800549e <HAL_TIM_PWM_ConfigChannel+0x21a>
 800546e:	f1b3 4f80 	cmp.w	r3, #1073741824	; 0x40000000
 8005472:	d014      	beq.n	800549e <HAL_TIM_PWM_ConfigChannel+0x21a>
 8005474:	f5a2 427c 	sub.w	r2, r2, #64512	; 0xfc00
 8005478:	4293      	cmp	r3, r2
 800547a:	d010      	beq.n	800549e <HAL_TIM_PWM_ConfigChannel+0x21a>
 800547c:	f502 6280 	add.w	r2, r2, #1024	; 0x400
 8005480:	4293      	cmp	r3, r2
 8005482:	d00c      	beq.n	800549e <HAL_TIM_PWM_ConfigChannel+0x21a>
 8005484:	f502 6280 	add.w	r2, r2, #1024	; 0x400
 8005488:	4293      	cmp	r3, r2
 800548a:	d008      	beq.n	800549e <HAL_TIM_PWM_ConfigChannel+0x21a>
 800548c:	f502 4278 	add.w	r2, r2, #63488	; 0xf800
 8005490:	4293      	cmp	r3, r2
 8005492:	d004      	beq.n	800549e <HAL_TIM_PWM_ConfigChannel+0x21a>
 8005494:	f640 4182 	movw	r1, #3202	; 0xc82
 8005498:	480c      	ldr	r0, [pc, #48]	; (80054cc <HAL_TIM_PWM_ConfigChannel+0x248>)
 800549a:	f7fb fc3a 	bl	8000d12 <assert_failed>
      TIM_OC4_SetConfig(htim->Instance, sConfig);
 800549e:	4629      	mov	r1, r5
 80054a0:	6820      	ldr	r0, [r4, #0]
 80054a2:	f7ff fbdb 	bl	8004c5c <TIM_OC4_SetConfig>
      htim->Instance->CCMR2 |= TIM_CCMR2_OC4PE;
 80054a6:	6823      	ldr	r3, [r4, #0]
      htim->Instance->CCMR2 |= sConfig->OCFastMode << 8U;  
 80054a8:	6929      	ldr	r1, [r5, #16]
      htim->Instance->CCMR2 |= TIM_CCMR2_OC4PE;
 80054aa:	69da      	ldr	r2, [r3, #28]
 80054ac:	f442 6200 	orr.w	r2, r2, #2048	; 0x800
 80054b0:	61da      	str	r2, [r3, #28]
      htim->Instance->CCMR2 &= ~TIM_CCMR2_OC4FE;
 80054b2:	69da      	ldr	r2, [r3, #28]
 80054b4:	f422 6280 	bic.w	r2, r2, #1024	; 0x400
 80054b8:	61da      	str	r2, [r3, #28]
      htim->Instance->CCMR2 |= sConfig->OCFastMode << 8U;  
 80054ba:	69da      	ldr	r2, [r3, #28]
 80054bc:	ea42 2201 	orr.w	r2, r2, r1, lsl #8
 80054c0:	e7cf      	b.n	8005462 <HAL_TIM_PWM_ConfigChannel+0x1de>
  __HAL_LOCK(htim);
 80054c2:	2002      	movs	r0, #2
}
 80054c4:	bd70      	pop	{r4, r5, r6, pc}
 80054c6:	bf00      	nop
 80054c8:	01001111 	.word	0x01001111
 80054cc:	08008490 	.word	0x08008490
 80054d0:	40010000 	.word	0x40010000

080054d4 <HAL_TIMEx_MasterConfigSynchronization>:
  *         contains the selected trigger output (TRGO) and the Master/Slave 
  *         mode. 
  * @retval HAL status
  */
HAL_StatusTypeDef HAL_TIMEx_MasterConfigSynchronization(TIM_HandleTypeDef *htim, TIM_MasterConfigTypeDef * sMasterConfig)
{
 80054d4:	b538      	push	{r3, r4, r5, lr}
  /* Check the parameters */
  assert_param(IS_TIM_MASTER_INSTANCE(htim->Instance));
 80054d6:	4a2d      	ldr	r2, [pc, #180]	; (800558c <HAL_TIMEx_MasterConfigSynchronization+0xb8>)
 80054d8:	6803      	ldr	r3, [r0, #0]
 80054da:	4293      	cmp	r3, r2
{
 80054dc:	4604      	mov	r4, r0
 80054de:	460d      	mov	r5, r1
  assert_param(IS_TIM_MASTER_INSTANCE(htim->Instance));
 80054e0:	d01f      	beq.n	8005522 <HAL_TIMEx_MasterConfigSynchronization+0x4e>
 80054e2:	f1b3 4f80 	cmp.w	r3, #1073741824	; 0x40000000
 80054e6:	d01c      	beq.n	8005522 <HAL_TIMEx_MasterConfigSynchronization+0x4e>
 80054e8:	f5a2 427c 	sub.w	r2, r2, #64512	; 0xfc00
 80054ec:	4293      	cmp	r3, r2
 80054ee:	d018      	beq.n	8005522 <HAL_TIMEx_MasterConfigSynchronization+0x4e>
 80054f0:	f502 6280 	add.w	r2, r2, #1024	; 0x400
 80054f4:	4293      	cmp	r3, r2
 80054f6:	d014      	beq.n	8005522 <HAL_TIMEx_MasterConfigSynchronization+0x4e>
 80054f8:	f502 6280 	add.w	r2, r2, #1024	; 0x400
 80054fc:	4293      	cmp	r3, r2
 80054fe:	d010      	beq.n	8005522 <HAL_TIMEx_MasterConfigSynchronization+0x4e>
 8005500:	f502 6280 	add.w	r2, r2, #1024	; 0x400
 8005504:	4293      	cmp	r3, r2
 8005506:	d00c      	beq.n	8005522 <HAL_TIMEx_MasterConfigSynchronization+0x4e>
 8005508:	f502 6280 	add.w	r2, r2, #1024	; 0x400
 800550c:	4293      	cmp	r3, r2
 800550e:	d008      	beq.n	8005522 <HAL_TIMEx_MasterConfigSynchronization+0x4e>
 8005510:	f502 4270 	add.w	r2, r2, #61440	; 0xf000
 8005514:	4293      	cmp	r3, r2
 8005516:	d004      	beq.n	8005522 <HAL_TIMEx_MasterConfigSynchronization+0x4e>
 8005518:	f44f 61cb 	mov.w	r1, #1624	; 0x658
 800551c:	481c      	ldr	r0, [pc, #112]	; (8005590 <HAL_TIMEx_MasterConfigSynchronization+0xbc>)
 800551e:	f7fb fbf8 	bl	8000d12 <assert_failed>
  assert_param(IS_TIM_TRGO_SOURCE(sMasterConfig->MasterOutputTrigger));
 8005522:	682b      	ldr	r3, [r5, #0]
 8005524:	f033 0330 	bics.w	r3, r3, #48	; 0x30
 8005528:	d006      	beq.n	8005538 <HAL_TIMEx_MasterConfigSynchronization+0x64>
 800552a:	2b40      	cmp	r3, #64	; 0x40
 800552c:	d004      	beq.n	8005538 <HAL_TIMEx_MasterConfigSynchronization+0x64>
 800552e:	f240 6159 	movw	r1, #1625	; 0x659
 8005532:	4817      	ldr	r0, [pc, #92]	; (8005590 <HAL_TIMEx_MasterConfigSynchronization+0xbc>)
 8005534:	f7fb fbed 	bl	8000d12 <assert_failed>
  assert_param(IS_TIM_MSM_STATE(sMasterConfig->MasterSlaveMode));
 8005538:	686b      	ldr	r3, [r5, #4]
 800553a:	f033 0380 	bics.w	r3, r3, #128	; 0x80
 800553e:	d004      	beq.n	800554a <HAL_TIMEx_MasterConfigSynchronization+0x76>
 8005540:	f240 615a 	movw	r1, #1626	; 0x65a
 8005544:	4812      	ldr	r0, [pc, #72]	; (8005590 <HAL_TIMEx_MasterConfigSynchronization+0xbc>)
 8005546:	f7fb fbe4 	bl	8000d12 <assert_failed>
  
  __HAL_LOCK(htim);
 800554a:	f894 3038 	ldrb.w	r3, [r4, #56]	; 0x38
 800554e:	2b01      	cmp	r3, #1
 8005550:	f04f 0002 	mov.w	r0, #2
 8005554:	d018      	beq.n	8005588 <HAL_TIMEx_MasterConfigSynchronization+0xb4>
  
  htim->State = HAL_TIM_STATE_BUSY;

  /* Reset the MMS Bits */
  htim->Instance->CR2 &= ~TIM_CR2_MMS;
 8005556:	6823      	ldr	r3, [r4, #0]
  htim->State = HAL_TIM_STATE_BUSY;
 8005558:	f884 0039 	strb.w	r0, [r4, #57]	; 0x39
  htim->Instance->CR2 &= ~TIM_CR2_MMS;
 800555c:	685a      	ldr	r2, [r3, #4]
  /* Select the TRGO source */
  htim->Instance->CR2 |= sMasterConfig->MasterOutputTrigger;
 800555e:	6829      	ldr	r1, [r5, #0]
  htim->Instance->CR2 &= ~TIM_CR2_MMS;
 8005560:	f022 0270 	bic.w	r2, r2, #112	; 0x70
 8005564:	605a      	str	r2, [r3, #4]
  htim->Instance->CR2 |= sMasterConfig->MasterOutputTrigger;
 8005566:	685a      	ldr	r2, [r3, #4]
 8005568:	430a      	orrs	r2, r1
 800556a:	605a      	str	r2, [r3, #4]

  /* Reset the MSM Bit */
  htim->Instance->SMCR &= ~TIM_SMCR_MSM;
 800556c:	689a      	ldr	r2, [r3, #8]
  /* Set or Reset the MSM Bit */
  htim->Instance->SMCR |= sMasterConfig->MasterSlaveMode;
 800556e:	6869      	ldr	r1, [r5, #4]
  htim->Instance->SMCR &= ~TIM_SMCR_MSM;
 8005570:	f022 0280 	bic.w	r2, r2, #128	; 0x80
 8005574:	609a      	str	r2, [r3, #8]
  htim->Instance->SMCR |= sMasterConfig->MasterSlaveMode;
 8005576:	689a      	ldr	r2, [r3, #8]
 8005578:	430a      	orrs	r2, r1
 800557a:	609a      	str	r2, [r3, #8]
  
  htim->State = HAL_TIM_STATE_READY;
  
  __HAL_UNLOCK(htim);
 800557c:	2000      	movs	r0, #0
  htim->State = HAL_TIM_STATE_READY;
 800557e:	2301      	movs	r3, #1
 8005580:	f884 3039 	strb.w	r3, [r4, #57]	; 0x39
  __HAL_UNLOCK(htim);
 8005584:	f884 0038 	strb.w	r0, [r4, #56]	; 0x38
  
  return HAL_OK;
} 
 8005588:	bd38      	pop	{r3, r4, r5, pc}
 800558a:	bf00      	nop
 800558c:	40010000 	.word	0x40010000
 8005590:	080084ce 	.word	0x080084ce

08005594 <HAL_TIMEx_CommutationCallback>:
 8005594:	4770      	bx	lr

08005596 <HAL_TIMEx_BreakCallback>:
  * @param  htim: pointer to a TIM_HandleTypeDef structure that contains
  *                the configuration information for TIM module.
  * @retval None
  */
__weak void HAL_TIMEx_BreakCallback(TIM_HandleTypeDef *htim)
{
 8005596:	4770      	bx	lr

08005598 <UART_EndRxTransfer>:
  * @retval None
  */
static void UART_EndRxTransfer(UART_HandleTypeDef *huart)
{
  /* Disable RXNE, PE and ERR (Frame error, noise error, overrun error) interrupts */
  CLEAR_BIT(huart->Instance->CR1, (USART_CR1_RXNEIE | USART_CR1_PEIE));
 8005598:	6803      	ldr	r3, [r0, #0]
 800559a:	68da      	ldr	r2, [r3, #12]
 800559c:	f422 7290 	bic.w	r2, r2, #288	; 0x120
 80055a0:	60da      	str	r2, [r3, #12]
  CLEAR_BIT(huart->Instance->CR3, USART_CR3_EIE);
 80055a2:	695a      	ldr	r2, [r3, #20]
 80055a4:	f022 0201 	bic.w	r2, r2, #1
 80055a8:	615a      	str	r2, [r3, #20]

  /* At end of Rx process, restore huart->RxState to Ready */
  huart->RxState = HAL_UART_STATE_READY;
 80055aa:	2320      	movs	r3, #32
 80055ac:	f880 303a 	strb.w	r3, [r0, #58]	; 0x3a
 80055b0:	4770      	bx	lr
	...

080055b4 <UART_SetConfig>:
static void UART_SetConfig(UART_HandleTypeDef *huart)
{
  uint32_t tmpreg = 0x00U;
  
  /* Check the parameters */
  assert_param(IS_UART_BAUDRATE(huart->Init.BaudRate));
 80055b4:	6842      	ldr	r2, [r0, #4]
 80055b6:	4b9e      	ldr	r3, [pc, #632]	; (8005830 <UART_SetConfig+0x27c>)
 80055b8:	429a      	cmp	r2, r3
{
 80055ba:	e92d 47f0 	stmdb	sp!, {r4, r5, r6, r7, r8, r9, sl, lr}
 80055be:	4604      	mov	r4, r0
  assert_param(IS_UART_BAUDRATE(huart->Init.BaudRate));
 80055c0:	d904      	bls.n	80055cc <UART_SetConfig+0x18>
 80055c2:	f640 1187 	movw	r1, #2439	; 0x987
 80055c6:	489b      	ldr	r0, [pc, #620]	; (8005834 <UART_SetConfig+0x280>)
 80055c8:	f7fb fba3 	bl	8000d12 <assert_failed>
  assert_param(IS_UART_STOPBITS(huart->Init.StopBits));
 80055cc:	68e3      	ldr	r3, [r4, #12]
 80055ce:	f433 5300 	bics.w	r3, r3, #8192	; 0x2000
 80055d2:	d004      	beq.n	80055de <UART_SetConfig+0x2a>
 80055d4:	f640 1188 	movw	r1, #2440	; 0x988
 80055d8:	4896      	ldr	r0, [pc, #600]	; (8005834 <UART_SetConfig+0x280>)
 80055da:	f7fb fb9a 	bl	8000d12 <assert_failed>
  assert_param(IS_UART_PARITY(huart->Init.Parity));
 80055de:	6923      	ldr	r3, [r4, #16]
 80055e0:	f433 6280 	bics.w	r2, r3, #1024	; 0x400
 80055e4:	d007      	beq.n	80055f6 <UART_SetConfig+0x42>
 80055e6:	f5b3 6fc0 	cmp.w	r3, #1536	; 0x600
 80055ea:	d004      	beq.n	80055f6 <UART_SetConfig+0x42>
 80055ec:	f640 1189 	movw	r1, #2441	; 0x989
 80055f0:	4890      	ldr	r0, [pc, #576]	; (8005834 <UART_SetConfig+0x280>)
 80055f2:	f7fb fb8e 	bl	8000d12 <assert_failed>
  assert_param(IS_UART_MODE(huart->Init.Mode));
 80055f6:	6963      	ldr	r3, [r4, #20]
 80055f8:	f64f 72f3 	movw	r2, #65523	; 0xfff3
 80055fc:	4213      	tst	r3, r2
 80055fe:	d100      	bne.n	8005602 <UART_SetConfig+0x4e>
 8005600:	b923      	cbnz	r3, 800560c <UART_SetConfig+0x58>
 8005602:	f640 118a 	movw	r1, #2442	; 0x98a
 8005606:	488b      	ldr	r0, [pc, #556]	; (8005834 <UART_SetConfig+0x280>)
 8005608:	f7fb fb83 	bl	8000d12 <assert_failed>

  /*-------------------------- USART CR2 Configuration -----------------------*/
  tmpreg = huart->Instance->CR2;
 800560c:	6826      	ldr	r6, [r4, #0]

  /* Clear STOP[13:12] bits */
  tmpreg &= (uint32_t)~((uint32_t)USART_CR2_STOP);

  /* Configure the UART Stop Bits: Set STOP[13:12] bits according to huart->Init.StopBits value */
  tmpreg |= (uint32_t)huart->Init.StopBits;
 800560e:	68e2      	ldr	r2, [r4, #12]
  tmpreg = huart->Instance->CR2;
 8005610:	6933      	ldr	r3, [r6, #16]
  /* Configure the UART Word Length, Parity and mode: 
     Set the M bits according to huart->Init.WordLength value 
     Set PCE and PS bits according to huart->Init.Parity value
     Set TE and RE bits according to huart->Init.Mode value
     Set OVER8 bit according to huart->Init.OverSampling value */
  tmpreg |= (uint32_t)huart->Init.WordLength | huart->Init.Parity | huart->Init.Mode | huart->Init.OverSampling;
 8005612:	6920      	ldr	r0, [r4, #16]
 8005614:	69e1      	ldr	r1, [r4, #28]
  tmpreg &= (uint32_t)~((uint32_t)USART_CR2_STOP);
 8005616:	f423 5340 	bic.w	r3, r3, #12288	; 0x3000
  tmpreg |= (uint32_t)huart->Init.StopBits;
 800561a:	4313      	orrs	r3, r2
  WRITE_REG(huart->Instance->CR2, (uint32_t)tmpreg);
 800561c:	6133      	str	r3, [r6, #16]
  tmpreg |= (uint32_t)huart->Init.WordLength | huart->Init.Parity | huart->Init.Mode | huart->Init.OverSampling;
 800561e:	68a3      	ldr	r3, [r4, #8]
  tmpreg = huart->Instance->CR1;
 8005620:	68f2      	ldr	r2, [r6, #12]
  tmpreg |= (uint32_t)huart->Init.WordLength | huart->Init.Parity | huart->Init.Mode | huart->Init.OverSampling;
 8005622:	4303      	orrs	r3, r0
 8005624:	6960      	ldr	r0, [r4, #20]
  tmpreg &= (uint32_t)~((uint32_t)(USART_CR1_M | USART_CR1_PCE | USART_CR1_PS | USART_CR1_TE | \
 8005626:	f422 4216 	bic.w	r2, r2, #38400	; 0x9600
  tmpreg |= (uint32_t)huart->Init.WordLength | huart->Init.Parity | huart->Init.Mode | huart->Init.OverSampling;
 800562a:	4303      	orrs	r3, r0
  tmpreg &= (uint32_t)~((uint32_t)(USART_CR1_M | USART_CR1_PCE | USART_CR1_PS | USART_CR1_TE | \
 800562c:	f022 020c 	bic.w	r2, r2, #12
  tmpreg |= (uint32_t)huart->Init.WordLength | huart->Init.Parity | huart->Init.Mode | huart->Init.OverSampling;
 8005630:	430b      	orrs	r3, r1
 8005632:	4313      	orrs	r3, r2
  
  /* Write to USART CR1 */
  WRITE_REG(huart->Instance->CR1, (uint32_t)tmpreg);
 8005634:	60f3      	str	r3, [r6, #12]
  
  /*-------------------------- USART CR3 Configuration -----------------------*/  
  tmpreg = huart->Instance->CR3;
 8005636:	6973      	ldr	r3, [r6, #20]
  
  /* Clear CTSE and RTSE bits */
  tmpreg &= (uint32_t)~((uint32_t)(USART_CR3_RTSE | USART_CR3_CTSE));
  
  /* Configure the UART HFC: Set CTSE and RTSE bits according to huart->Init.HwFlowCtl value */
  tmpreg |= huart->Init.HwFlowCtl;
 8005638:	69a2      	ldr	r2, [r4, #24]
  tmpreg &= (uint32_t)~((uint32_t)(USART_CR3_RTSE | USART_CR3_CTSE));
 800563a:	f423 7340 	bic.w	r3, r3, #768	; 0x300
  tmpreg |= huart->Init.HwFlowCtl;
 800563e:	4313      	orrs	r3, r2
  
  /* Write to USART CR3 */
  WRITE_REG(huart->Instance->CR3, (uint32_t)tmpreg);
  
  /* Check the Over Sampling */
  if(huart->Init.OverSampling == UART_OVERSAMPLING_8)
 8005640:	f5b1 4f00 	cmp.w	r1, #32768	; 0x8000
  WRITE_REG(huart->Instance->CR3, (uint32_t)tmpreg);
 8005644:	6173      	str	r3, [r6, #20]
 8005646:	4b7c      	ldr	r3, [pc, #496]	; (8005838 <UART_SetConfig+0x284>)
  if(huart->Init.OverSampling == UART_OVERSAMPLING_8)
 8005648:	d17c      	bne.n	8005744 <UART_SetConfig+0x190>
  {
    /*-------------------------- USART BRR Configuration ---------------------*/
#if defined(USART6) 
    if((huart->Instance == USART1) || (huart->Instance == USART6))
 800564a:	429e      	cmp	r6, r3
 800564c:	d003      	beq.n	8005656 <UART_SetConfig+0xa2>
 800564e:	f503 6380 	add.w	r3, r3, #1024	; 0x400
 8005652:	429e      	cmp	r6, r3
 8005654:	d144      	bne.n	80056e0 <UART_SetConfig+0x12c>
    {
      huart->Instance->BRR = UART_BRR_SAMPLING8(HAL_RCC_GetPCLK2Freq(), huart->Init.BaudRate);
 8005656:	f7fe fdf3 	bl	8004240 <HAL_RCC_GetPCLK2Freq>
 800565a:	2519      	movs	r5, #25
 800565c:	fb05 f300 	mul.w	r3, r5, r0
 8005660:	6860      	ldr	r0, [r4, #4]
 8005662:	f04f 0964 	mov.w	r9, #100	; 0x64
 8005666:	0040      	lsls	r0, r0, #1
 8005668:	fbb3 f3f0 	udiv	r3, r3, r0
 800566c:	fbb3 f3f9 	udiv	r3, r3, r9
 8005670:	ea4f 1803 	mov.w	r8, r3, lsl #4
 8005674:	f7fe fde4 	bl	8004240 <HAL_RCC_GetPCLK2Freq>
 8005678:	6863      	ldr	r3, [r4, #4]
 800567a:	4368      	muls	r0, r5
 800567c:	005b      	lsls	r3, r3, #1
 800567e:	fbb0 f7f3 	udiv	r7, r0, r3
 8005682:	f7fe fddd 	bl	8004240 <HAL_RCC_GetPCLK2Freq>
 8005686:	6863      	ldr	r3, [r4, #4]
 8005688:	4368      	muls	r0, r5
 800568a:	005b      	lsls	r3, r3, #1
 800568c:	fbb0 f3f3 	udiv	r3, r0, r3
 8005690:	fbb3 f3f9 	udiv	r3, r3, r9
 8005694:	fb09 7313 	mls	r3, r9, r3, r7
 8005698:	00db      	lsls	r3, r3, #3
 800569a:	3332      	adds	r3, #50	; 0x32
 800569c:	fbb3 f3f9 	udiv	r3, r3, r9
 80056a0:	005b      	lsls	r3, r3, #1
 80056a2:	f403 77f8 	and.w	r7, r3, #496	; 0x1f0
 80056a6:	f7fe fdcb 	bl	8004240 <HAL_RCC_GetPCLK2Freq>
 80056aa:	6862      	ldr	r2, [r4, #4]
 80056ac:	4368      	muls	r0, r5
 80056ae:	0052      	lsls	r2, r2, #1
 80056b0:	fbb0 faf2 	udiv	sl, r0, r2
 80056b4:	f7fe fdc4 	bl	8004240 <HAL_RCC_GetPCLK2Freq>
      huart->Instance->BRR = UART_BRR_SAMPLING8(HAL_RCC_GetPCLK2Freq(), huart->Init.BaudRate);
    }	
#endif /* USART6 */
    else
    {
      huart->Instance->BRR = UART_BRR_SAMPLING8(HAL_RCC_GetPCLK1Freq(), huart->Init.BaudRate);
 80056b8:	6863      	ldr	r3, [r4, #4]
 80056ba:	4368      	muls	r0, r5
 80056bc:	005b      	lsls	r3, r3, #1
 80056be:	fbb0 f3f3 	udiv	r3, r0, r3
 80056c2:	fbb3 f3f9 	udiv	r3, r3, r9
 80056c6:	fb09 a313 	mls	r3, r9, r3, sl
 80056ca:	00db      	lsls	r3, r3, #3
 80056cc:	3332      	adds	r3, #50	; 0x32
 80056ce:	fbb3 f3f9 	udiv	r3, r3, r9
 80056d2:	f003 0307 	and.w	r3, r3, #7
 80056d6:	4443      	add	r3, r8
      huart->Instance->BRR = UART_BRR_SAMPLING16(HAL_RCC_GetPCLK2Freq(), huart->Init.BaudRate);
    }	
#endif /* USART6 */
    else
    {
      huart->Instance->BRR = UART_BRR_SAMPLING16(HAL_RCC_GetPCLK1Freq(), huart->Init.BaudRate);
 80056d8:	443b      	add	r3, r7
 80056da:	60b3      	str	r3, [r6, #8]
 80056dc:	e8bd 87f0 	ldmia.w	sp!, {r4, r5, r6, r7, r8, r9, sl, pc}
      huart->Instance->BRR = UART_BRR_SAMPLING8(HAL_RCC_GetPCLK1Freq(), huart->Init.BaudRate);
 80056e0:	f7fe fd96 	bl	8004210 <HAL_RCC_GetPCLK1Freq>
 80056e4:	2519      	movs	r5, #25
 80056e6:	fb05 f300 	mul.w	r3, r5, r0
 80056ea:	6860      	ldr	r0, [r4, #4]
 80056ec:	f04f 0964 	mov.w	r9, #100	; 0x64
 80056f0:	0040      	lsls	r0, r0, #1
 80056f2:	fbb3 f3f0 	udiv	r3, r3, r0
 80056f6:	fbb3 f3f9 	udiv	r3, r3, r9
 80056fa:	ea4f 1803 	mov.w	r8, r3, lsl #4
 80056fe:	f7fe fd87 	bl	8004210 <HAL_RCC_GetPCLK1Freq>
 8005702:	6863      	ldr	r3, [r4, #4]
 8005704:	4368      	muls	r0, r5
 8005706:	005b      	lsls	r3, r3, #1
 8005708:	fbb0 f7f3 	udiv	r7, r0, r3
 800570c:	f7fe fd80 	bl	8004210 <HAL_RCC_GetPCLK1Freq>
 8005710:	6863      	ldr	r3, [r4, #4]
 8005712:	4368      	muls	r0, r5
 8005714:	005b      	lsls	r3, r3, #1
 8005716:	fbb0 f3f3 	udiv	r3, r0, r3
 800571a:	fbb3 f3f9 	udiv	r3, r3, r9
 800571e:	fb09 7313 	mls	r3, r9, r3, r7
 8005722:	00db      	lsls	r3, r3, #3
 8005724:	3332      	adds	r3, #50	; 0x32
 8005726:	fbb3 f3f9 	udiv	r3, r3, r9
 800572a:	005b      	lsls	r3, r3, #1
 800572c:	f403 77f8 	and.w	r7, r3, #496	; 0x1f0
 8005730:	f7fe fd6e 	bl	8004210 <HAL_RCC_GetPCLK1Freq>
 8005734:	6862      	ldr	r2, [r4, #4]
 8005736:	4368      	muls	r0, r5
 8005738:	0052      	lsls	r2, r2, #1
 800573a:	fbb0 faf2 	udiv	sl, r0, r2
 800573e:	f7fe fd67 	bl	8004210 <HAL_RCC_GetPCLK1Freq>
 8005742:	e7b9      	b.n	80056b8 <UART_SetConfig+0x104>
    if((huart->Instance == USART1) || (huart->Instance == USART6))
 8005744:	429e      	cmp	r6, r3
 8005746:	d002      	beq.n	800574e <UART_SetConfig+0x19a>
 8005748:	4b3c      	ldr	r3, [pc, #240]	; (800583c <UART_SetConfig+0x288>)
 800574a:	429e      	cmp	r6, r3
 800574c:	d140      	bne.n	80057d0 <UART_SetConfig+0x21c>
      huart->Instance->BRR = UART_BRR_SAMPLING16(HAL_RCC_GetPCLK2Freq(), huart->Init.BaudRate);
 800574e:	f7fe fd77 	bl	8004240 <HAL_RCC_GetPCLK2Freq>
 8005752:	6867      	ldr	r7, [r4, #4]
 8005754:	2519      	movs	r5, #25
 8005756:	f04f 0964 	mov.w	r9, #100	; 0x64
 800575a:	fb05 f300 	mul.w	r3, r5, r0
 800575e:	00bf      	lsls	r7, r7, #2
 8005760:	fbb3 f3f7 	udiv	r3, r3, r7
 8005764:	fbb3 f3f9 	udiv	r3, r3, r9
 8005768:	011f      	lsls	r7, r3, #4
 800576a:	f7fe fd69 	bl	8004240 <HAL_RCC_GetPCLK2Freq>
 800576e:	6863      	ldr	r3, [r4, #4]
 8005770:	4368      	muls	r0, r5
 8005772:	009b      	lsls	r3, r3, #2
 8005774:	fbb0 f8f3 	udiv	r8, r0, r3
 8005778:	f7fe fd62 	bl	8004240 <HAL_RCC_GetPCLK2Freq>
 800577c:	6863      	ldr	r3, [r4, #4]
 800577e:	4368      	muls	r0, r5
 8005780:	009b      	lsls	r3, r3, #2
 8005782:	fbb0 f3f3 	udiv	r3, r0, r3
 8005786:	fbb3 f3f9 	udiv	r3, r3, r9
 800578a:	fb09 8313 	mls	r3, r9, r3, r8
 800578e:	011b      	lsls	r3, r3, #4
 8005790:	3332      	adds	r3, #50	; 0x32
 8005792:	fbb3 f3f9 	udiv	r3, r3, r9
 8005796:	f003 08f0 	and.w	r8, r3, #240	; 0xf0
 800579a:	f7fe fd51 	bl	8004240 <HAL_RCC_GetPCLK2Freq>
 800579e:	6862      	ldr	r2, [r4, #4]
 80057a0:	4368      	muls	r0, r5
 80057a2:	0092      	lsls	r2, r2, #2
 80057a4:	fbb0 faf2 	udiv	sl, r0, r2
 80057a8:	f7fe fd4a 	bl	8004240 <HAL_RCC_GetPCLK2Freq>
      huart->Instance->BRR = UART_BRR_SAMPLING16(HAL_RCC_GetPCLK1Freq(), huart->Init.BaudRate);
 80057ac:	6863      	ldr	r3, [r4, #4]
 80057ae:	4368      	muls	r0, r5
 80057b0:	009b      	lsls	r3, r3, #2
 80057b2:	fbb0 f3f3 	udiv	r3, r0, r3
 80057b6:	fbb3 f3f9 	udiv	r3, r3, r9
 80057ba:	fb09 a313 	mls	r3, r9, r3, sl
 80057be:	011b      	lsls	r3, r3, #4
 80057c0:	3332      	adds	r3, #50	; 0x32
 80057c2:	fbb3 f3f9 	udiv	r3, r3, r9
 80057c6:	f003 030f 	and.w	r3, r3, #15
 80057ca:	ea43 0308 	orr.w	r3, r3, r8
 80057ce:	e783      	b.n	80056d8 <UART_SetConfig+0x124>
 80057d0:	f7fe fd1e 	bl	8004210 <HAL_RCC_GetPCLK1Freq>
 80057d4:	6867      	ldr	r7, [r4, #4]
 80057d6:	2519      	movs	r5, #25
 80057d8:	f04f 0964 	mov.w	r9, #100	; 0x64
 80057dc:	fb05 f300 	mul.w	r3, r5, r0
 80057e0:	00bf      	lsls	r7, r7, #2
 80057e2:	fbb3 f3f7 	udiv	r3, r3, r7
 80057e6:	fbb3 f3f9 	udiv	r3, r3, r9
 80057ea:	011f      	lsls	r7, r3, #4
 80057ec:	f7fe fd10 	bl	8004210 <HAL_RCC_GetPCLK1Freq>
 80057f0:	6863      	ldr	r3, [r4, #4]
 80057f2:	4368      	muls	r0, r5
 80057f4:	009b      	lsls	r3, r3, #2
 80057f6:	fbb0 f8f3 	udiv	r8, r0, r3
 80057fa:	f7fe fd09 	bl	8004210 <HAL_RCC_GetPCLK1Freq>
 80057fe:	6863      	ldr	r3, [r4, #4]
 8005800:	4368      	muls	r0, r5
 8005802:	009b      	lsls	r3, r3, #2
 8005804:	fbb0 f3f3 	udiv	r3, r0, r3
 8005808:	fbb3 f3f9 	udiv	r3, r3, r9
 800580c:	fb09 8313 	mls	r3, r9, r3, r8
 8005810:	011b      	lsls	r3, r3, #4
 8005812:	3332      	adds	r3, #50	; 0x32
 8005814:	fbb3 f3f9 	udiv	r3, r3, r9
 8005818:	f003 08f0 	and.w	r8, r3, #240	; 0xf0
 800581c:	f7fe fcf8 	bl	8004210 <HAL_RCC_GetPCLK1Freq>
 8005820:	6862      	ldr	r2, [r4, #4]
 8005822:	4368      	muls	r0, r5
 8005824:	0092      	lsls	r2, r2, #2
 8005826:	fbb0 faf2 	udiv	sl, r0, r2
 800582a:	f7fe fcf1 	bl	8004210 <HAL_RCC_GetPCLK1Freq>
 800582e:	e7bd      	b.n	80057ac <UART_SetConfig+0x1f8>
 8005830:	00a037a0 	.word	0x00a037a0
 8005834:	0800850f 	.word	0x0800850f
 8005838:	40011000 	.word	0x40011000
 800583c:	40011400 	.word	0x40011400

08005840 <HAL_UART_Init>:
{
 8005840:	b510      	push	{r4, lr}
  if(huart == NULL)
 8005842:	4604      	mov	r4, r0
 8005844:	2800      	cmp	r0, #0
 8005846:	d07c      	beq.n	8005942 <HAL_UART_Init+0x102>
  if(huart->Init.HwFlowCtl != UART_HWCONTROL_NONE)
 8005848:	6981      	ldr	r1, [r0, #24]
 800584a:	6803      	ldr	r3, [r0, #0]
 800584c:	4a3e      	ldr	r2, [pc, #248]	; (8005948 <HAL_UART_Init+0x108>)
 800584e:	2900      	cmp	r1, #0
 8005850:	d057      	beq.n	8005902 <HAL_UART_Init+0xc2>
    assert_param(IS_UART_HWFLOW_INSTANCE(huart->Instance));
 8005852:	4293      	cmp	r3, r2
 8005854:	d010      	beq.n	8005878 <HAL_UART_Init+0x38>
 8005856:	f5a2 424c 	sub.w	r2, r2, #52224	; 0xcc00
 800585a:	4293      	cmp	r3, r2
 800585c:	d00c      	beq.n	8005878 <HAL_UART_Init+0x38>
 800585e:	f502 6280 	add.w	r2, r2, #1024	; 0x400
 8005862:	4293      	cmp	r3, r2
 8005864:	d008      	beq.n	8005878 <HAL_UART_Init+0x38>
 8005866:	f502 424c 	add.w	r2, r2, #52224	; 0xcc00
 800586a:	4293      	cmp	r3, r2
 800586c:	d004      	beq.n	8005878 <HAL_UART_Init+0x38>
 800586e:	f44f 7181 	mov.w	r1, #258	; 0x102
 8005872:	4836      	ldr	r0, [pc, #216]	; (800594c <HAL_UART_Init+0x10c>)
 8005874:	f7fb fa4d 	bl	8000d12 <assert_failed>
    assert_param(IS_UART_HARDWARE_FLOW_CONTROL(huart->Init.HwFlowCtl));
 8005878:	69a3      	ldr	r3, [r4, #24]
 800587a:	f433 7340 	bics.w	r3, r3, #768	; 0x300
 800587e:	d004      	beq.n	800588a <HAL_UART_Init+0x4a>
 8005880:	f240 1103 	movw	r1, #259	; 0x103
    assert_param(IS_UART_INSTANCE(huart->Instance));
 8005884:	4831      	ldr	r0, [pc, #196]	; (800594c <HAL_UART_Init+0x10c>)
 8005886:	f7fb fa44 	bl	8000d12 <assert_failed>
  assert_param(IS_UART_WORD_LENGTH(huart->Init.WordLength));
 800588a:	68a3      	ldr	r3, [r4, #8]
 800588c:	f433 5380 	bics.w	r3, r3, #4096	; 0x1000
 8005890:	d004      	beq.n	800589c <HAL_UART_Init+0x5c>
 8005892:	f240 1109 	movw	r1, #265	; 0x109
 8005896:	482d      	ldr	r0, [pc, #180]	; (800594c <HAL_UART_Init+0x10c>)
 8005898:	f7fb fa3b 	bl	8000d12 <assert_failed>
  assert_param(IS_UART_OVERSAMPLING(huart->Init.OverSampling));
 800589c:	69e3      	ldr	r3, [r4, #28]
 800589e:	f433 4300 	bics.w	r3, r3, #32768	; 0x8000
 80058a2:	d004      	beq.n	80058ae <HAL_UART_Init+0x6e>
 80058a4:	f44f 7185 	mov.w	r1, #266	; 0x10a
 80058a8:	4828      	ldr	r0, [pc, #160]	; (800594c <HAL_UART_Init+0x10c>)
 80058aa:	f7fb fa32 	bl	8000d12 <assert_failed>
  if(huart->gState == HAL_UART_STATE_RESET)
 80058ae:	f894 3039 	ldrb.w	r3, [r4, #57]	; 0x39
 80058b2:	f003 02ff 	and.w	r2, r3, #255	; 0xff
 80058b6:	b923      	cbnz	r3, 80058c2 <HAL_UART_Init+0x82>
    huart->Lock = HAL_UNLOCKED;
 80058b8:	f884 2038 	strb.w	r2, [r4, #56]	; 0x38
    HAL_UART_MspInit(huart);
 80058bc:	4620      	mov	r0, r4
 80058be:	f7fb fc61 	bl	8001184 <HAL_UART_MspInit>
  __HAL_UART_DISABLE(huart);
 80058c2:	6822      	ldr	r2, [r4, #0]
  huart->gState = HAL_UART_STATE_BUSY;
 80058c4:	2324      	movs	r3, #36	; 0x24
 80058c6:	f884 3039 	strb.w	r3, [r4, #57]	; 0x39
  __HAL_UART_DISABLE(huart);
 80058ca:	68d3      	ldr	r3, [r2, #12]
 80058cc:	f423 5300 	bic.w	r3, r3, #8192	; 0x2000
 80058d0:	60d3      	str	r3, [r2, #12]
  UART_SetConfig(huart);
 80058d2:	4620      	mov	r0, r4
 80058d4:	f7ff fe6e 	bl	80055b4 <UART_SetConfig>
  CLEAR_BIT(huart->Instance->CR2, (USART_CR2_LINEN | USART_CR2_CLKEN));
 80058d8:	6823      	ldr	r3, [r4, #0]
 80058da:	691a      	ldr	r2, [r3, #16]
 80058dc:	f422 4290 	bic.w	r2, r2, #18432	; 0x4800
 80058e0:	611a      	str	r2, [r3, #16]
  CLEAR_BIT(huart->Instance->CR3, (USART_CR3_SCEN | USART_CR3_HDSEL | USART_CR3_IREN));
 80058e2:	695a      	ldr	r2, [r3, #20]
 80058e4:	f022 022a 	bic.w	r2, r2, #42	; 0x2a
 80058e8:	615a      	str	r2, [r3, #20]
  __HAL_UART_ENABLE(huart);
 80058ea:	68da      	ldr	r2, [r3, #12]
 80058ec:	f442 5200 	orr.w	r2, r2, #8192	; 0x2000
 80058f0:	60da      	str	r2, [r3, #12]
  huart->ErrorCode = HAL_UART_ERROR_NONE;
 80058f2:	2000      	movs	r0, #0
  huart->gState= HAL_UART_STATE_READY;
 80058f4:	2320      	movs	r3, #32
  huart->ErrorCode = HAL_UART_ERROR_NONE;
 80058f6:	63e0      	str	r0, [r4, #60]	; 0x3c
  huart->gState= HAL_UART_STATE_READY;
 80058f8:	f884 3039 	strb.w	r3, [r4, #57]	; 0x39
  huart->RxState= HAL_UART_STATE_READY;
 80058fc:	f884 303a 	strb.w	r3, [r4, #58]	; 0x3a
  return HAL_OK;
 8005900:	bd10      	pop	{r4, pc}
    assert_param(IS_UART_INSTANCE(huart->Instance));
 8005902:	4293      	cmp	r3, r2
 8005904:	d0c1      	beq.n	800588a <HAL_UART_Init+0x4a>
 8005906:	4a12      	ldr	r2, [pc, #72]	; (8005950 <HAL_UART_Init+0x110>)
 8005908:	4293      	cmp	r3, r2
 800590a:	d0be      	beq.n	800588a <HAL_UART_Init+0x4a>
 800590c:	f502 6280 	add.w	r2, r2, #1024	; 0x400
 8005910:	4293      	cmp	r3, r2
 8005912:	d0ba      	beq.n	800588a <HAL_UART_Init+0x4a>
 8005914:	f502 6280 	add.w	r2, r2, #1024	; 0x400
 8005918:	4293      	cmp	r3, r2
 800591a:	d0b6      	beq.n	800588a <HAL_UART_Init+0x4a>
 800591c:	f502 6280 	add.w	r2, r2, #1024	; 0x400
 8005920:	4293      	cmp	r3, r2
 8005922:	d0b2      	beq.n	800588a <HAL_UART_Init+0x4a>
 8005924:	f502 4244 	add.w	r2, r2, #50176	; 0xc400
 8005928:	4293      	cmp	r3, r2
 800592a:	d0ae      	beq.n	800588a <HAL_UART_Init+0x4a>
 800592c:	f5a2 421c 	sub.w	r2, r2, #39936	; 0x9c00
 8005930:	4293      	cmp	r3, r2
 8005932:	d0aa      	beq.n	800588a <HAL_UART_Init+0x4a>
 8005934:	f502 6280 	add.w	r2, r2, #1024	; 0x400
 8005938:	4293      	cmp	r3, r2
 800593a:	d0a6      	beq.n	800588a <HAL_UART_Init+0x4a>
 800593c:	f240 1107 	movw	r1, #263	; 0x107
 8005940:	e7a0      	b.n	8005884 <HAL_UART_Init+0x44>
    return HAL_ERROR;
 8005942:	2001      	movs	r0, #1
}
 8005944:	bd10      	pop	{r4, pc}
 8005946:	bf00      	nop
 8005948:	40011000 	.word	0x40011000
 800594c:	0800850f 	.word	0x0800850f
 8005950:	40004400 	.word	0x40004400

08005954 <HAL_UART_TxCpltCallback>:
 8005954:	4770      	bx	lr

08005956 <HAL_UART_RxCpltCallback>:
 8005956:	4770      	bx	lr

08005958 <UART_Receive_IT>:
  if(huart->RxState == HAL_UART_STATE_BUSY_RX) 
 8005958:	f890 303a 	ldrb.w	r3, [r0, #58]	; 0x3a
 800595c:	2b22      	cmp	r3, #34	; 0x22
{
 800595e:	b510      	push	{r4, lr}
  if(huart->RxState == HAL_UART_STATE_BUSY_RX) 
 8005960:	d132      	bne.n	80059c8 <UART_Receive_IT+0x70>
    if(huart->Init.WordLength == UART_WORDLENGTH_9B)
 8005962:	6883      	ldr	r3, [r0, #8]
 8005964:	6901      	ldr	r1, [r0, #16]
 8005966:	6802      	ldr	r2, [r0, #0]
 8005968:	f5b3 5f80 	cmp.w	r3, #4096	; 0x1000
 800596c:	6a83      	ldr	r3, [r0, #40]	; 0x28
 800596e:	d11f      	bne.n	80059b0 <UART_Receive_IT+0x58>
        *tmp = (uint16_t)(huart->Instance->DR & (uint16_t)0x01FF);
 8005970:	6852      	ldr	r2, [r2, #4]
      if(huart->Init.Parity == UART_PARITY_NONE)
 8005972:	b9c9      	cbnz	r1, 80059a8 <UART_Receive_IT+0x50>
        *tmp = (uint16_t)(huart->Instance->DR & (uint16_t)0x01FF);
 8005974:	f3c2 0208 	ubfx	r2, r2, #0, #9
 8005978:	f823 2b02 	strh.w	r2, [r3], #2
        huart->pRxBuffPtr += 1U;
 800597c:	6283      	str	r3, [r0, #40]	; 0x28
    if(--huart->RxXferCount == 0U)
 800597e:	8dc4      	ldrh	r4, [r0, #46]	; 0x2e
 8005980:	3c01      	subs	r4, #1
 8005982:	b2a4      	uxth	r4, r4
 8005984:	85c4      	strh	r4, [r0, #46]	; 0x2e
 8005986:	b96c      	cbnz	r4, 80059a4 <UART_Receive_IT+0x4c>
      CLEAR_BIT(huart->Instance->CR1, (USART_CR1_RXNEIE | USART_CR1_PEIE));
 8005988:	6803      	ldr	r3, [r0, #0]
 800598a:	68da      	ldr	r2, [r3, #12]
 800598c:	f422 7290 	bic.w	r2, r2, #288	; 0x120
 8005990:	60da      	str	r2, [r3, #12]
      CLEAR_BIT(huart->Instance->CR3, USART_CR3_EIE);
 8005992:	695a      	ldr	r2, [r3, #20]
 8005994:	f022 0201 	bic.w	r2, r2, #1
 8005998:	615a      	str	r2, [r3, #20]
      huart->RxState = HAL_UART_STATE_READY;
 800599a:	2320      	movs	r3, #32
 800599c:	f880 303a 	strb.w	r3, [r0, #58]	; 0x3a
      HAL_UART_RxCpltCallback(huart);
 80059a0:	f7ff ffd9 	bl	8005956 <HAL_UART_RxCpltCallback>
    if(--huart->RxXferCount == 0U)
 80059a4:	2000      	movs	r0, #0
}
 80059a6:	bd10      	pop	{r4, pc}
        *tmp = (uint16_t)(huart->Instance->DR & (uint16_t)0x00FF);
 80059a8:	b2d2      	uxtb	r2, r2
 80059aa:	f823 2b01 	strh.w	r2, [r3], #1
 80059ae:	e7e5      	b.n	800597c <UART_Receive_IT+0x24>
      if(huart->Init.Parity == UART_PARITY_NONE)
 80059b0:	b921      	cbnz	r1, 80059bc <UART_Receive_IT+0x64>
        *huart->pRxBuffPtr++ = (uint8_t)(huart->Instance->DR & (uint8_t)0x00FF);
 80059b2:	1c59      	adds	r1, r3, #1
 80059b4:	6852      	ldr	r2, [r2, #4]
 80059b6:	6281      	str	r1, [r0, #40]	; 0x28
        *huart->pRxBuffPtr++ = (uint8_t)(huart->Instance->DR & (uint8_t)0x007F);
 80059b8:	701a      	strb	r2, [r3, #0]
 80059ba:	e7e0      	b.n	800597e <UART_Receive_IT+0x26>
 80059bc:	6852      	ldr	r2, [r2, #4]
 80059be:	1c59      	adds	r1, r3, #1
 80059c0:	6281      	str	r1, [r0, #40]	; 0x28
 80059c2:	f002 027f 	and.w	r2, r2, #127	; 0x7f
 80059c6:	e7f7      	b.n	80059b8 <UART_Receive_IT+0x60>
    return HAL_BUSY;
 80059c8:	2002      	movs	r0, #2
 80059ca:	bd10      	pop	{r4, pc}

080059cc <HAL_UART_ErrorCallback>:
 80059cc:	4770      	bx	lr
	...

080059d0 <HAL_UART_IRQHandler>:
   uint32_t isrflags   = READ_REG(huart->Instance->SR);
 80059d0:	6803      	ldr	r3, [r0, #0]
 80059d2:	681a      	ldr	r2, [r3, #0]
   uint32_t cr1its     = READ_REG(huart->Instance->CR1);
 80059d4:	68d9      	ldr	r1, [r3, #12]
{
 80059d6:	b570      	push	{r4, r5, r6, lr}
  if(errorflags == RESET)
 80059d8:	0716      	lsls	r6, r2, #28
{
 80059da:	4604      	mov	r4, r0
   uint32_t cr3its     = READ_REG(huart->Instance->CR3);
 80059dc:	695d      	ldr	r5, [r3, #20]
  if(errorflags == RESET)
 80059de:	d107      	bne.n	80059f0 <HAL_UART_IRQHandler+0x20>
    if(((isrflags & USART_SR_RXNE) != RESET) && ((cr1its & USART_CR1_RXNEIE) != RESET))
 80059e0:	0696      	lsls	r6, r2, #26
 80059e2:	d55a      	bpl.n	8005a9a <HAL_UART_IRQHandler+0xca>
 80059e4:	068d      	lsls	r5, r1, #26
 80059e6:	d558      	bpl.n	8005a9a <HAL_UART_IRQHandler+0xca>
}
 80059e8:	e8bd 4070 	ldmia.w	sp!, {r4, r5, r6, lr}
      UART_Receive_IT(huart);
 80059ec:	f7ff bfb4 	b.w	8005958 <UART_Receive_IT>
  if((errorflags != RESET) && (((cr3its & USART_CR3_EIE) != RESET) || ((cr1its & (USART_CR1_RXNEIE | USART_CR1_PEIE)) != RESET)))
 80059f0:	f015 0501 	ands.w	r5, r5, #1
 80059f4:	d102      	bne.n	80059fc <HAL_UART_IRQHandler+0x2c>
 80059f6:	f411 7f90 	tst.w	r1, #288	; 0x120
 80059fa:	d04e      	beq.n	8005a9a <HAL_UART_IRQHandler+0xca>
    if(((isrflags & USART_SR_PE) != RESET) && ((cr1its & USART_CR1_PEIE) != RESET))
 80059fc:	07d3      	lsls	r3, r2, #31
 80059fe:	d505      	bpl.n	8005a0c <HAL_UART_IRQHandler+0x3c>
 8005a00:	05ce      	lsls	r6, r1, #23
      huart->ErrorCode |= HAL_UART_ERROR_PE;
 8005a02:	bf42      	ittt	mi
 8005a04:	6be3      	ldrmi	r3, [r4, #60]	; 0x3c
 8005a06:	f043 0301 	orrmi.w	r3, r3, #1
 8005a0a:	63e3      	strmi	r3, [r4, #60]	; 0x3c
    if(((isrflags & USART_SR_NE) != RESET) && ((cr3its & USART_CR3_EIE) != RESET))
 8005a0c:	0750      	lsls	r0, r2, #29
 8005a0e:	d504      	bpl.n	8005a1a <HAL_UART_IRQHandler+0x4a>
 8005a10:	b11d      	cbz	r5, 8005a1a <HAL_UART_IRQHandler+0x4a>
      huart->ErrorCode |= HAL_UART_ERROR_NE;
 8005a12:	6be3      	ldr	r3, [r4, #60]	; 0x3c
 8005a14:	f043 0302 	orr.w	r3, r3, #2
 8005a18:	63e3      	str	r3, [r4, #60]	; 0x3c
    if(((isrflags & USART_SR_FE) != RESET) && ((cr3its & USART_CR3_EIE) != RESET))
 8005a1a:	0793      	lsls	r3, r2, #30
 8005a1c:	d504      	bpl.n	8005a28 <HAL_UART_IRQHandler+0x58>
 8005a1e:	b11d      	cbz	r5, 8005a28 <HAL_UART_IRQHandler+0x58>
      huart->ErrorCode |= HAL_UART_ERROR_FE;
 8005a20:	6be3      	ldr	r3, [r4, #60]	; 0x3c
 8005a22:	f043 0304 	orr.w	r3, r3, #4
 8005a26:	63e3      	str	r3, [r4, #60]	; 0x3c
    if(((isrflags & USART_SR_ORE) != RESET) && ((cr3its & USART_CR3_EIE) != RESET))
 8005a28:	0716      	lsls	r6, r2, #28
 8005a2a:	d504      	bpl.n	8005a36 <HAL_UART_IRQHandler+0x66>
 8005a2c:	b11d      	cbz	r5, 8005a36 <HAL_UART_IRQHandler+0x66>
      huart->ErrorCode |= HAL_UART_ERROR_ORE;
 8005a2e:	6be3      	ldr	r3, [r4, #60]	; 0x3c
 8005a30:	f043 0308 	orr.w	r3, r3, #8
 8005a34:	63e3      	str	r3, [r4, #60]	; 0x3c
    if(huart->ErrorCode != HAL_UART_ERROR_NONE)
 8005a36:	6be3      	ldr	r3, [r4, #60]	; 0x3c
 8005a38:	2b00      	cmp	r3, #0
 8005a3a:	d066      	beq.n	8005b0a <HAL_UART_IRQHandler+0x13a>
      if(((isrflags & USART_SR_RXNE) != RESET) && ((cr1its & USART_CR1_RXNEIE) != RESET))
 8005a3c:	0695      	lsls	r5, r2, #26
 8005a3e:	d504      	bpl.n	8005a4a <HAL_UART_IRQHandler+0x7a>
 8005a40:	0688      	lsls	r0, r1, #26
 8005a42:	d502      	bpl.n	8005a4a <HAL_UART_IRQHandler+0x7a>
        UART_Receive_IT(huart);
 8005a44:	4620      	mov	r0, r4
 8005a46:	f7ff ff87 	bl	8005958 <UART_Receive_IT>
      dmarequest = HAL_IS_BIT_SET(huart->Instance->CR3, USART_CR3_DMAR);
 8005a4a:	6823      	ldr	r3, [r4, #0]
 8005a4c:	695d      	ldr	r5, [r3, #20]
      if(((huart->ErrorCode & HAL_UART_ERROR_ORE) != RESET) || dmarequest)
 8005a4e:	6be2      	ldr	r2, [r4, #60]	; 0x3c
 8005a50:	0711      	lsls	r1, r2, #28
        UART_EndRxTransfer(huart);
 8005a52:	4620      	mov	r0, r4
      if(((huart->ErrorCode & HAL_UART_ERROR_ORE) != RESET) || dmarequest)
 8005a54:	d402      	bmi.n	8005a5c <HAL_UART_IRQHandler+0x8c>
 8005a56:	f015 0540 	ands.w	r5, r5, #64	; 0x40
 8005a5a:	d01a      	beq.n	8005a92 <HAL_UART_IRQHandler+0xc2>
        UART_EndRxTransfer(huart);
 8005a5c:	f7ff fd9c 	bl	8005598 <UART_EndRxTransfer>
        if(HAL_IS_BIT_SET(huart->Instance->CR3, USART_CR3_DMAR))
 8005a60:	6823      	ldr	r3, [r4, #0]
 8005a62:	695a      	ldr	r2, [r3, #20]
 8005a64:	0652      	lsls	r2, r2, #25
 8005a66:	d510      	bpl.n	8005a8a <HAL_UART_IRQHandler+0xba>
          CLEAR_BIT(huart->Instance->CR3, USART_CR3_DMAR);
 8005a68:	695a      	ldr	r2, [r3, #20]
          if(huart->hdmarx != NULL)
 8005a6a:	6b60      	ldr	r0, [r4, #52]	; 0x34
          CLEAR_BIT(huart->Instance->CR3, USART_CR3_DMAR);
 8005a6c:	f022 0240 	bic.w	r2, r2, #64	; 0x40
 8005a70:	615a      	str	r2, [r3, #20]
          if(huart->hdmarx != NULL)
 8005a72:	b150      	cbz	r0, 8005a8a <HAL_UART_IRQHandler+0xba>
            huart->hdmarx->XferAbortCallback = UART_DMAAbortOnError;
 8005a74:	4b25      	ldr	r3, [pc, #148]	; (8005b0c <HAL_UART_IRQHandler+0x13c>)
 8005a76:	6503      	str	r3, [r0, #80]	; 0x50
            if(HAL_DMA_Abort_IT(huart->hdmarx) != HAL_OK)
 8005a78:	f7fc fdf2 	bl	8002660 <HAL_DMA_Abort_IT>
 8005a7c:	2800      	cmp	r0, #0
 8005a7e:	d044      	beq.n	8005b0a <HAL_UART_IRQHandler+0x13a>
              huart->hdmarx->XferAbortCallback(huart->hdmarx);
 8005a80:	6b60      	ldr	r0, [r4, #52]	; 0x34
}
 8005a82:	e8bd 4070 	ldmia.w	sp!, {r4, r5, r6, lr}
              huart->hdmarx->XferAbortCallback(huart->hdmarx);
 8005a86:	6d03      	ldr	r3, [r0, #80]	; 0x50
 8005a88:	4718      	bx	r3
            HAL_UART_ErrorCallback(huart);
 8005a8a:	4620      	mov	r0, r4
 8005a8c:	f7ff ff9e 	bl	80059cc <HAL_UART_ErrorCallback>
 8005a90:	bd70      	pop	{r4, r5, r6, pc}
        HAL_UART_ErrorCallback(huart);
 8005a92:	f7ff ff9b 	bl	80059cc <HAL_UART_ErrorCallback>
        huart->ErrorCode = HAL_UART_ERROR_NONE;
 8005a96:	63e5      	str	r5, [r4, #60]	; 0x3c
 8005a98:	bd70      	pop	{r4, r5, r6, pc}
  if(((isrflags & USART_SR_TXE) != RESET) && ((cr1its & USART_CR1_TXEIE) != RESET))
 8005a9a:	0616      	lsls	r6, r2, #24
 8005a9c:	d527      	bpl.n	8005aee <HAL_UART_IRQHandler+0x11e>
 8005a9e:	060d      	lsls	r5, r1, #24
 8005aa0:	d525      	bpl.n	8005aee <HAL_UART_IRQHandler+0x11e>
  if(huart->gState == HAL_UART_STATE_BUSY_TX)
 8005aa2:	f894 2039 	ldrb.w	r2, [r4, #57]	; 0x39
 8005aa6:	2a21      	cmp	r2, #33	; 0x21
 8005aa8:	d12f      	bne.n	8005b0a <HAL_UART_IRQHandler+0x13a>
    if(huart->Init.WordLength == UART_WORDLENGTH_9B)
 8005aaa:	68a2      	ldr	r2, [r4, #8]
 8005aac:	f5b2 5f80 	cmp.w	r2, #4096	; 0x1000
 8005ab0:	6a22      	ldr	r2, [r4, #32]
 8005ab2:	d117      	bne.n	8005ae4 <HAL_UART_IRQHandler+0x114>
      huart->Instance->DR = (uint16_t)(*tmp & (uint16_t)0x01FF);
 8005ab4:	8811      	ldrh	r1, [r2, #0]
 8005ab6:	f3c1 0108 	ubfx	r1, r1, #0, #9
 8005aba:	6059      	str	r1, [r3, #4]
      if(huart->Init.Parity == UART_PARITY_NONE)
 8005abc:	6921      	ldr	r1, [r4, #16]
 8005abe:	b979      	cbnz	r1, 8005ae0 <HAL_UART_IRQHandler+0x110>
        huart->pTxBuffPtr += 2U;
 8005ac0:	3202      	adds	r2, #2
        huart->pTxBuffPtr += 1U;
 8005ac2:	6222      	str	r2, [r4, #32]
    if(--huart->TxXferCount == 0U)
 8005ac4:	8ce2      	ldrh	r2, [r4, #38]	; 0x26
 8005ac6:	3a01      	subs	r2, #1
 8005ac8:	b292      	uxth	r2, r2
 8005aca:	84e2      	strh	r2, [r4, #38]	; 0x26
 8005acc:	b9ea      	cbnz	r2, 8005b0a <HAL_UART_IRQHandler+0x13a>
      CLEAR_BIT(huart->Instance->CR1, USART_CR1_TXEIE);
 8005ace:	68da      	ldr	r2, [r3, #12]
 8005ad0:	f022 0280 	bic.w	r2, r2, #128	; 0x80
 8005ad4:	60da      	str	r2, [r3, #12]
      SET_BIT(huart->Instance->CR1, USART_CR1_TCIE);
 8005ad6:	68da      	ldr	r2, [r3, #12]
 8005ad8:	f042 0240 	orr.w	r2, r2, #64	; 0x40
 8005adc:	60da      	str	r2, [r3, #12]
 8005ade:	bd70      	pop	{r4, r5, r6, pc}
        huart->pTxBuffPtr += 1U;
 8005ae0:	3201      	adds	r2, #1
 8005ae2:	e7ee      	b.n	8005ac2 <HAL_UART_IRQHandler+0xf2>
      huart->Instance->DR = (uint8_t)(*huart->pTxBuffPtr++ & (uint8_t)0x00FF);
 8005ae4:	1c51      	adds	r1, r2, #1
 8005ae6:	6221      	str	r1, [r4, #32]
 8005ae8:	7812      	ldrb	r2, [r2, #0]
 8005aea:	605a      	str	r2, [r3, #4]
 8005aec:	e7ea      	b.n	8005ac4 <HAL_UART_IRQHandler+0xf4>
  if(((isrflags & USART_SR_TC) != RESET) && ((cr1its & USART_CR1_TCIE) != RESET))
 8005aee:	0650      	lsls	r0, r2, #25
 8005af0:	d50b      	bpl.n	8005b0a <HAL_UART_IRQHandler+0x13a>
 8005af2:	064a      	lsls	r2, r1, #25
 8005af4:	d509      	bpl.n	8005b0a <HAL_UART_IRQHandler+0x13a>
  CLEAR_BIT(huart->Instance->CR1, USART_CR1_TCIE);
 8005af6:	68da      	ldr	r2, [r3, #12]
 8005af8:	f022 0240 	bic.w	r2, r2, #64	; 0x40
 8005afc:	60da      	str	r2, [r3, #12]
  huart->gState = HAL_UART_STATE_READY;
 8005afe:	2320      	movs	r3, #32
 8005b00:	f884 3039 	strb.w	r3, [r4, #57]	; 0x39
  HAL_UART_TxCpltCallback(huart);
 8005b04:	4620      	mov	r0, r4
 8005b06:	f7ff ff25 	bl	8005954 <HAL_UART_TxCpltCallback>
 8005b0a:	bd70      	pop	{r4, r5, r6, pc}
 8005b0c:	08005b11 	.word	0x08005b11

08005b10 <UART_DMAAbortOnError>:
{
 8005b10:	b508      	push	{r3, lr}
  UART_HandleTypeDef* huart = ( UART_HandleTypeDef* )((DMA_HandleTypeDef* )hdma)->Parent;
 8005b12:	6b80      	ldr	r0, [r0, #56]	; 0x38
  huart->RxXferCount = 0U;
 8005b14:	2300      	movs	r3, #0
 8005b16:	85c3      	strh	r3, [r0, #46]	; 0x2e
  huart->TxXferCount = 0U;
 8005b18:	84c3      	strh	r3, [r0, #38]	; 0x26
  HAL_UART_ErrorCallback(huart);
 8005b1a:	f7ff ff57 	bl	80059cc <HAL_UART_ErrorCallback>
 8005b1e:	bd08      	pop	{r3, pc}

08005b20 <FMC_SDRAM_Init>:
{
  uint32_t tmpr1 = 0U;
  uint32_t tmpr2 = 0U;
    
  /* Check the parameters */
  assert_param(IS_FMC_SDRAM_DEVICE(Device));
 8005b20:	4b54      	ldr	r3, [pc, #336]	; (8005c74 <FMC_SDRAM_Init+0x154>)
 8005b22:	4298      	cmp	r0, r3
{
 8005b24:	e92d 41f0 	stmdb	sp!, {r4, r5, r6, r7, r8, lr}
 8005b28:	4605      	mov	r5, r0
 8005b2a:	460c      	mov	r4, r1
  assert_param(IS_FMC_SDRAM_DEVICE(Device));
 8005b2c:	d004      	beq.n	8005b38 <FMC_SDRAM_Init+0x18>
 8005b2e:	f44f 61aa 	mov.w	r1, #1360	; 0x550
 8005b32:	4851      	ldr	r0, [pc, #324]	; (8005c78 <FMC_SDRAM_Init+0x158>)
 8005b34:	f7fb f8ed 	bl	8000d12 <assert_failed>
  assert_param(IS_FMC_SDRAM_BANK(Init->SDBank));
 8005b38:	6823      	ldr	r3, [r4, #0]
 8005b3a:	2b01      	cmp	r3, #1
 8005b3c:	d904      	bls.n	8005b48 <FMC_SDRAM_Init+0x28>
 8005b3e:	f240 5151 	movw	r1, #1361	; 0x551
 8005b42:	484d      	ldr	r0, [pc, #308]	; (8005c78 <FMC_SDRAM_Init+0x158>)
 8005b44:	f7fb f8e5 	bl	8000d12 <assert_failed>
  assert_param(IS_FMC_COLUMNBITS_NUMBER(Init->ColumnBitsNumber));
 8005b48:	6863      	ldr	r3, [r4, #4]
 8005b4a:	2b03      	cmp	r3, #3
 8005b4c:	d904      	bls.n	8005b58 <FMC_SDRAM_Init+0x38>
 8005b4e:	f240 5152 	movw	r1, #1362	; 0x552
 8005b52:	4849      	ldr	r0, [pc, #292]	; (8005c78 <FMC_SDRAM_Init+0x158>)
 8005b54:	f7fb f8dd 	bl	8000d12 <assert_failed>
  assert_param(IS_FMC_ROWBITS_NUMBER(Init->RowBitsNumber));
 8005b58:	68a3      	ldr	r3, [r4, #8]
 8005b5a:	f033 0204 	bics.w	r2, r3, #4
 8005b5e:	d006      	beq.n	8005b6e <FMC_SDRAM_Init+0x4e>
 8005b60:	2b08      	cmp	r3, #8
 8005b62:	d004      	beq.n	8005b6e <FMC_SDRAM_Init+0x4e>
 8005b64:	f240 5153 	movw	r1, #1363	; 0x553
 8005b68:	4843      	ldr	r0, [pc, #268]	; (8005c78 <FMC_SDRAM_Init+0x158>)
 8005b6a:	f7fb f8d2 	bl	8000d12 <assert_failed>
  assert_param(IS_FMC_SDMEMORY_WIDTH(Init->MemoryDataWidth));
 8005b6e:	68e3      	ldr	r3, [r4, #12]
 8005b70:	f033 0210 	bics.w	r2, r3, #16
 8005b74:	d006      	beq.n	8005b84 <FMC_SDRAM_Init+0x64>
 8005b76:	2b20      	cmp	r3, #32
 8005b78:	d004      	beq.n	8005b84 <FMC_SDRAM_Init+0x64>
 8005b7a:	f240 5154 	movw	r1, #1364	; 0x554
 8005b7e:	483e      	ldr	r0, [pc, #248]	; (8005c78 <FMC_SDRAM_Init+0x158>)
 8005b80:	f7fb f8c7 	bl	8000d12 <assert_failed>
  assert_param(IS_FMC_INTERNALBANK_NUMBER(Init->InternalBankNumber));
 8005b84:	6923      	ldr	r3, [r4, #16]
 8005b86:	f033 0340 	bics.w	r3, r3, #64	; 0x40
 8005b8a:	d004      	beq.n	8005b96 <FMC_SDRAM_Init+0x76>
 8005b8c:	f240 5155 	movw	r1, #1365	; 0x555
 8005b90:	4839      	ldr	r0, [pc, #228]	; (8005c78 <FMC_SDRAM_Init+0x158>)
 8005b92:	f7fb f8be 	bl	8000d12 <assert_failed>
  assert_param(IS_FMC_CAS_LATENCY(Init->CASLatency));
 8005b96:	6963      	ldr	r3, [r4, #20]
 8005b98:	f423 7280 	bic.w	r2, r3, #256	; 0x100
 8005b9c:	2a80      	cmp	r2, #128	; 0x80
 8005b9e:	d007      	beq.n	8005bb0 <FMC_SDRAM_Init+0x90>
 8005ba0:	f5b3 7f80 	cmp.w	r3, #256	; 0x100
 8005ba4:	d004      	beq.n	8005bb0 <FMC_SDRAM_Init+0x90>
 8005ba6:	f240 5156 	movw	r1, #1366	; 0x556
 8005baa:	4833      	ldr	r0, [pc, #204]	; (8005c78 <FMC_SDRAM_Init+0x158>)
 8005bac:	f7fb f8b1 	bl	8000d12 <assert_failed>
  assert_param(IS_FMC_WRITE_PROTECTION(Init->WriteProtection));
 8005bb0:	69a3      	ldr	r3, [r4, #24]
 8005bb2:	f433 7300 	bics.w	r3, r3, #512	; 0x200
 8005bb6:	d004      	beq.n	8005bc2 <FMC_SDRAM_Init+0xa2>
 8005bb8:	f240 5157 	movw	r1, #1367	; 0x557
 8005bbc:	482e      	ldr	r0, [pc, #184]	; (8005c78 <FMC_SDRAM_Init+0x158>)
 8005bbe:	f7fb f8a8 	bl	8000d12 <assert_failed>
  assert_param(IS_FMC_SDCLOCK_PERIOD(Init->SDClockPeriod));
 8005bc2:	69e3      	ldr	r3, [r4, #28]
 8005bc4:	f433 6200 	bics.w	r2, r3, #2048	; 0x800
 8005bc8:	d007      	beq.n	8005bda <FMC_SDRAM_Init+0xba>
 8005bca:	f5b3 6f40 	cmp.w	r3, #3072	; 0xc00
 8005bce:	d004      	beq.n	8005bda <FMC_SDRAM_Init+0xba>
 8005bd0:	f44f 61ab 	mov.w	r1, #1368	; 0x558
 8005bd4:	4828      	ldr	r0, [pc, #160]	; (8005c78 <FMC_SDRAM_Init+0x158>)
 8005bd6:	f7fb f89c 	bl	8000d12 <assert_failed>
  assert_param(IS_FMC_READ_BURST(Init->ReadBurst));
 8005bda:	6a23      	ldr	r3, [r4, #32]
 8005bdc:	f433 5380 	bics.w	r3, r3, #4096	; 0x1000
 8005be0:	d004      	beq.n	8005bec <FMC_SDRAM_Init+0xcc>
 8005be2:	f240 5159 	movw	r1, #1369	; 0x559
 8005be6:	4824      	ldr	r0, [pc, #144]	; (8005c78 <FMC_SDRAM_Init+0x158>)
 8005be8:	f7fb f893 	bl	8000d12 <assert_failed>
  assert_param(IS_FMC_READPIPE_DELAY(Init->ReadPipeDelay));   
 8005bec:	6a63      	ldr	r3, [r4, #36]	; 0x24
 8005bee:	f433 5200 	bics.w	r2, r3, #8192	; 0x2000
 8005bf2:	d007      	beq.n	8005c04 <FMC_SDRAM_Init+0xe4>
 8005bf4:	f5b3 4f80 	cmp.w	r3, #16384	; 0x4000
 8005bf8:	d004      	beq.n	8005c04 <FMC_SDRAM_Init+0xe4>
 8005bfa:	f240 515a 	movw	r1, #1370	; 0x55a
 8005bfe:	481e      	ldr	r0, [pc, #120]	; (8005c78 <FMC_SDRAM_Init+0x158>)
 8005c00:	f7fb f887 	bl	8000d12 <assert_failed>

  /* Set SDRAM bank configuration parameters */
  if (Init->SDBank != FMC_SDRAM_BANK2) 
 8005c04:	6823      	ldr	r3, [r4, #0]
 8005c06:	f8d4 e014 	ldr.w	lr, [r4, #20]
 8005c0a:	69a0      	ldr	r0, [r4, #24]
 8005c0c:	69e7      	ldr	r7, [r4, #28]
 8005c0e:	6a26      	ldr	r6, [r4, #32]
  {    
    tmpr1 = Device->SDCR[FMC_SDRAM_BANK1];
 8005c10:	6829      	ldr	r1, [r5, #0]
 8005c12:	1d22      	adds	r2, r4, #4
  if (Init->SDBank != FMC_SDRAM_BANK2) 
 8005c14:	2b01      	cmp	r3, #1
 8005c16:	6a64      	ldr	r4, [r4, #36]	; 0x24
 8005c18:	e892 110c 	ldmia.w	r2, {r2, r3, r8, ip}
 8005c1c:	d014      	beq.n	8005c48 <FMC_SDRAM_Init+0x128>
    tmpr1 &= ((uint32_t)~(FMC_SDCR1_NC  | FMC_SDCR1_NR | FMC_SDCR1_MWID | \
                         FMC_SDCR1_NB  | FMC_SDCR1_CAS | FMC_SDCR1_WP | \
                         FMC_SDCR1_SDCLK | FMC_SDCR1_RBURST | FMC_SDCR1_RPIPE));
  
  
    tmpr1 |= (uint32_t)(Init->ColumnBitsNumber   |\
 8005c1e:	431a      	orrs	r2, r3
                                               Init->RowBitsNumber      |\
 8005c20:	ea42 0208 	orr.w	r2, r2, r8
                                               Init->MemoryDataWidth    |\
 8005c24:	ea42 020c 	orr.w	r2, r2, ip
                                               Init->InternalBankNumber |\
 8005c28:	ea42 020e 	orr.w	r2, r2, lr
                                               Init->CASLatency         |\
 8005c2c:	ea42 0300 	orr.w	r3, r2, r0
                                               Init->WriteProtection    |\
 8005c30:	433b      	orrs	r3, r7
    tmpr1 &= ((uint32_t)~(FMC_SDCR1_NC  | FMC_SDCR1_NR | FMC_SDCR1_MWID | \
 8005c32:	f421 41ff 	bic.w	r1, r1, #32640	; 0x7f80
                                               Init->SDClockPeriod      |\
 8005c36:	4333      	orrs	r3, r6
    tmpr1 &= ((uint32_t)~(FMC_SDCR1_NC  | FMC_SDCR1_NR | FMC_SDCR1_MWID | \
 8005c38:	f021 017f 	bic.w	r1, r1, #127	; 0x7f
                                               Init->ReadBurst          |\
 8005c3c:	4323      	orrs	r3, r4
    tmpr1 |= (uint32_t)(Init->ColumnBitsNumber   |\
 8005c3e:	430b      	orrs	r3, r1
                                               Init->ReadPipeDelay
                                               );
    Device->SDCR[FMC_SDRAM_BANK1] = tmpr1;
 8005c40:	602b      	str	r3, [r5, #0]
    Device->SDCR[FMC_SDRAM_BANK1] = tmpr1;
    Device->SDCR[FMC_SDRAM_BANK2] = tmpr2;
  }  
  
  return HAL_OK;
}
 8005c42:	2000      	movs	r0, #0
 8005c44:	e8bd 81f0 	ldmia.w	sp!, {r4, r5, r6, r7, r8, pc}
    tmpr1 |= (uint32_t)(Init->SDClockPeriod      |\
 8005c48:	433e      	orrs	r6, r7
    tmpr1 &= ((uint32_t)~(FMC_SDCR1_SDCLK | FMC_SDCR1_RBURST | FMC_SDCR1_RPIPE));
 8005c4a:	f421 41f8 	bic.w	r1, r1, #31744	; 0x7c00
                        Init->ReadBurst          |\
 8005c4e:	4334      	orrs	r4, r6
    tmpr2 |= (uint32_t)(Init->ColumnBitsNumber   |\
 8005c50:	431a      	orrs	r2, r3
    tmpr1 |= (uint32_t)(Init->SDClockPeriod      |\
 8005c52:	430c      	orrs	r4, r1
                       Init->RowBitsNumber      |\
 8005c54:	ea42 0208 	orr.w	r2, r2, r8
    tmpr2 = Device->SDCR[FMC_SDRAM_BANK2];
 8005c58:	6869      	ldr	r1, [r5, #4]
    Device->SDCR[FMC_SDRAM_BANK1] = tmpr1;
 8005c5a:	602c      	str	r4, [r5, #0]
                       Init->MemoryDataWidth    |\
 8005c5c:	ea42 020c 	orr.w	r2, r2, ip
    tmpr2 &= ((uint32_t)~(FMC_SDCR1_NC  | FMC_SDCR1_NR | FMC_SDCR1_MWID | \
 8005c60:	f421 41ff 	bic.w	r1, r1, #32640	; 0x7f80
                       Init->InternalBankNumber |\
 8005c64:	ea42 020e 	orr.w	r2, r2, lr
    tmpr2 &= ((uint32_t)~(FMC_SDCR1_NC  | FMC_SDCR1_NR | FMC_SDCR1_MWID | \
 8005c68:	f021 017f 	bic.w	r1, r1, #127	; 0x7f
                       Init->CASLatency         |\
 8005c6c:	4302      	orrs	r2, r0
    tmpr2 |= (uint32_t)(Init->ColumnBitsNumber   |\
 8005c6e:	430a      	orrs	r2, r1
    Device->SDCR[FMC_SDRAM_BANK2] = tmpr2;
 8005c70:	606a      	str	r2, [r5, #4]
 8005c72:	e7e6      	b.n	8005c42 <FMC_SDRAM_Init+0x122>
 8005c74:	a0000140 	.word	0xa0000140
 8005c78:	0800854e 	.word	0x0800854e

08005c7c <FMC_SDRAM_Timing_Init>:
{
  uint32_t tmpr1 = 0U;
  uint32_t tmpr2 = 0U;
    
  /* Check the parameters */
  assert_param(IS_FMC_SDRAM_DEVICE(Device));
 8005c7c:	4b4c      	ldr	r3, [pc, #304]	; (8005db0 <FMC_SDRAM_Timing_Init+0x134>)
 8005c7e:	4298      	cmp	r0, r3
{
 8005c80:	b570      	push	{r4, r5, r6, lr}
 8005c82:	4605      	mov	r5, r0
 8005c84:	460c      	mov	r4, r1
 8005c86:	4616      	mov	r6, r2
  assert_param(IS_FMC_SDRAM_DEVICE(Device));
 8005c88:	d004      	beq.n	8005c94 <FMC_SDRAM_Timing_Init+0x18>
 8005c8a:	f240 51a1 	movw	r1, #1441	; 0x5a1
 8005c8e:	4849      	ldr	r0, [pc, #292]	; (8005db4 <FMC_SDRAM_Timing_Init+0x138>)
 8005c90:	f7fb f83f 	bl	8000d12 <assert_failed>
  assert_param(IS_FMC_LOADTOACTIVE_DELAY(Timing->LoadToActiveDelay));
 8005c94:	6823      	ldr	r3, [r4, #0]
 8005c96:	3b01      	subs	r3, #1
 8005c98:	2b0f      	cmp	r3, #15
 8005c9a:	d904      	bls.n	8005ca6 <FMC_SDRAM_Timing_Init+0x2a>
 8005c9c:	f240 51a2 	movw	r1, #1442	; 0x5a2
 8005ca0:	4844      	ldr	r0, [pc, #272]	; (8005db4 <FMC_SDRAM_Timing_Init+0x138>)
 8005ca2:	f7fb f836 	bl	8000d12 <assert_failed>
  assert_param(IS_FMC_EXITSELFREFRESH_DELAY(Timing->ExitSelfRefreshDelay));
 8005ca6:	6863      	ldr	r3, [r4, #4]
 8005ca8:	3b01      	subs	r3, #1
 8005caa:	2b0f      	cmp	r3, #15
 8005cac:	d904      	bls.n	8005cb8 <FMC_SDRAM_Timing_Init+0x3c>
 8005cae:	f240 51a3 	movw	r1, #1443	; 0x5a3
 8005cb2:	4840      	ldr	r0, [pc, #256]	; (8005db4 <FMC_SDRAM_Timing_Init+0x138>)
 8005cb4:	f7fb f82d 	bl	8000d12 <assert_failed>
  assert_param(IS_FMC_SELFREFRESH_TIME(Timing->SelfRefreshTime));
 8005cb8:	68a3      	ldr	r3, [r4, #8]
 8005cba:	3b01      	subs	r3, #1
 8005cbc:	2b0f      	cmp	r3, #15
 8005cbe:	d904      	bls.n	8005cca <FMC_SDRAM_Timing_Init+0x4e>
 8005cc0:	f240 51a4 	movw	r1, #1444	; 0x5a4
 8005cc4:	483b      	ldr	r0, [pc, #236]	; (8005db4 <FMC_SDRAM_Timing_Init+0x138>)
 8005cc6:	f7fb f824 	bl	8000d12 <assert_failed>
  assert_param(IS_FMC_ROWCYCLE_DELAY(Timing->RowCycleDelay));
 8005cca:	68e3      	ldr	r3, [r4, #12]
 8005ccc:	3b01      	subs	r3, #1
 8005cce:	2b0f      	cmp	r3, #15
 8005cd0:	d904      	bls.n	8005cdc <FMC_SDRAM_Timing_Init+0x60>
 8005cd2:	f240 51a5 	movw	r1, #1445	; 0x5a5
 8005cd6:	4837      	ldr	r0, [pc, #220]	; (8005db4 <FMC_SDRAM_Timing_Init+0x138>)
 8005cd8:	f7fb f81b 	bl	8000d12 <assert_failed>
  assert_param(IS_FMC_WRITE_RECOVERY_TIME(Timing->WriteRecoveryTime));
 8005cdc:	6923      	ldr	r3, [r4, #16]
 8005cde:	3b01      	subs	r3, #1
 8005ce0:	2b0f      	cmp	r3, #15
 8005ce2:	d904      	bls.n	8005cee <FMC_SDRAM_Timing_Init+0x72>
 8005ce4:	f240 51a6 	movw	r1, #1446	; 0x5a6
 8005ce8:	4832      	ldr	r0, [pc, #200]	; (8005db4 <FMC_SDRAM_Timing_Init+0x138>)
 8005cea:	f7fb f812 	bl	8000d12 <assert_failed>
  assert_param(IS_FMC_RP_DELAY(Timing->RPDelay));
 8005cee:	6963      	ldr	r3, [r4, #20]
 8005cf0:	3b01      	subs	r3, #1
 8005cf2:	2b0f      	cmp	r3, #15
 8005cf4:	d904      	bls.n	8005d00 <FMC_SDRAM_Timing_Init+0x84>
 8005cf6:	f240 51a7 	movw	r1, #1447	; 0x5a7
 8005cfa:	482e      	ldr	r0, [pc, #184]	; (8005db4 <FMC_SDRAM_Timing_Init+0x138>)
 8005cfc:	f7fb f809 	bl	8000d12 <assert_failed>
  assert_param(IS_FMC_RCD_DELAY(Timing->RCDDelay));
 8005d00:	69a3      	ldr	r3, [r4, #24]
 8005d02:	3b01      	subs	r3, #1
 8005d04:	2b0f      	cmp	r3, #15
 8005d06:	d904      	bls.n	8005d12 <FMC_SDRAM_Timing_Init+0x96>
 8005d08:	f44f 61b5 	mov.w	r1, #1448	; 0x5a8
 8005d0c:	4829      	ldr	r0, [pc, #164]	; (8005db4 <FMC_SDRAM_Timing_Init+0x138>)
 8005d0e:	f7fb f800 	bl	8000d12 <assert_failed>
  assert_param(IS_FMC_SDRAM_BANK(Bank));
 8005d12:	2e01      	cmp	r6, #1
 8005d14:	d925      	bls.n	8005d62 <FMC_SDRAM_Timing_Init+0xe6>
 8005d16:	f240 51a9 	movw	r1, #1449	; 0x5a9
 8005d1a:	4826      	ldr	r0, [pc, #152]	; (8005db4 <FMC_SDRAM_Timing_Init+0x138>)
 8005d1c:	f7fa fff9 	bl	8000d12 <assert_failed>
    tmpr1 &= ((uint32_t)~(FMC_SDTR1_TMRD  | FMC_SDTR1_TXSR | FMC_SDTR1_TRAS | \
                          FMC_SDTR1_TRC  | FMC_SDTR1_TWR | FMC_SDTR1_TRP | \
                          FMC_SDTR1_TRCD));
    
    tmpr1 |= (uint32_t)(((Timing->LoadToActiveDelay)-1U)           |\
                       (((Timing->ExitSelfRefreshDelay)-1U) << 4U) |\
 8005d20:	6863      	ldr	r3, [r4, #4]
    tmpr1 = Device->SDTR[FMC_SDRAM_BANK1];
 8005d22:	68aa      	ldr	r2, [r5, #8]
                       (((Timing->ExitSelfRefreshDelay)-1U) << 4U) |\
 8005d24:	1e59      	subs	r1, r3, #1
                       (((Timing->SelfRefreshTime)-1U) << 8U)      |\
 8005d26:	68a3      	ldr	r3, [r4, #8]
 8005d28:	3b01      	subs	r3, #1
 8005d2a:	021b      	lsls	r3, r3, #8
                       (((Timing->ExitSelfRefreshDelay)-1U) << 4U) |\
 8005d2c:	ea43 1301 	orr.w	r3, r3, r1, lsl #4
    tmpr1 |= (uint32_t)(((Timing->LoadToActiveDelay)-1U)           |\
 8005d30:	6821      	ldr	r1, [r4, #0]
 8005d32:	3901      	subs	r1, #1
                       (((Timing->ExitSelfRefreshDelay)-1U) << 4U) |\
 8005d34:	430b      	orrs	r3, r1
                       (((Timing->RowCycleDelay)-1U) << 12U)       |\
 8005d36:	68e1      	ldr	r1, [r4, #12]
 8005d38:	3901      	subs	r1, #1
                       (((Timing->SelfRefreshTime)-1U) << 8U)      |\
 8005d3a:	ea43 3301 	orr.w	r3, r3, r1, lsl #12
                       (((Timing->WriteRecoveryTime)-1U) <<16U)    |\
 8005d3e:	6921      	ldr	r1, [r4, #16]
 8005d40:	3901      	subs	r1, #1
                       (((Timing->RowCycleDelay)-1U) << 12U)       |\
 8005d42:	ea43 4301 	orr.w	r3, r3, r1, lsl #16
                       (((Timing->RPDelay)-1U) << 20U)             |\
 8005d46:	6961      	ldr	r1, [r4, #20]
 8005d48:	3901      	subs	r1, #1
                       (((Timing->WriteRecoveryTime)-1U) <<16U)    |\
 8005d4a:	ea43 5301 	orr.w	r3, r3, r1, lsl #20
                       (((Timing->RCDDelay)-1U) << 24U));
 8005d4e:	69a1      	ldr	r1, [r4, #24]
 8005d50:	3901      	subs	r1, #1
    tmpr1 &= ((uint32_t)~(FMC_SDTR1_TMRD  | FMC_SDTR1_TXSR | FMC_SDTR1_TRAS | \
 8005d52:	f002 4270 	and.w	r2, r2, #4026531840	; 0xf0000000
    tmpr1 |= (uint32_t)(((Timing->LoadToActiveDelay)-1U)           |\
 8005d56:	ea43 6301 	orr.w	r3, r3, r1, lsl #24
 8005d5a:	4313      	orrs	r3, r2
    Device->SDTR[FMC_SDRAM_BANK1] = tmpr1;
 8005d5c:	60ab      	str	r3, [r5, #8]

    Device->SDTR[FMC_SDRAM_BANK1] = tmpr1;
    Device->SDTR[FMC_SDRAM_BANK2] = tmpr2;
  }
  return HAL_OK;
}
 8005d5e:	2000      	movs	r0, #0
 8005d60:	bd70      	pop	{r4, r5, r6, pc}
  if (Bank != FMC_SDRAM_BANK2) 
 8005d62:	d1dd      	bne.n	8005d20 <FMC_SDRAM_Timing_Init+0xa4>
    tmpr1 |= (uint32_t)((((Timing->RowCycleDelay)-1U) << 12U)       |\
 8005d64:	68e2      	ldr	r2, [r4, #12]
                        (((Timing->RPDelay)-1U) << 20U)); 
 8005d66:	6963      	ldr	r3, [r4, #20]
    tmpr1 = Device->SDTR[FMC_SDRAM_BANK1];
 8005d68:	68a9      	ldr	r1, [r5, #8]
    tmpr1 |= (uint32_t)((((Timing->RowCycleDelay)-1U) << 12U)       |\
 8005d6a:	1e50      	subs	r0, r2, #1
                        (((Timing->RPDelay)-1U) << 20U)); 
 8005d6c:	1e5a      	subs	r2, r3, #1
                       (((Timing->ExitSelfRefreshDelay)-1U) << 4U)  |\
 8005d6e:	6863      	ldr	r3, [r4, #4]
                        (((Timing->RPDelay)-1U) << 20U)); 
 8005d70:	0512      	lsls	r2, r2, #20
    tmpr1 |= (uint32_t)((((Timing->RowCycleDelay)-1U) << 12U)       |\
 8005d72:	ea42 3200 	orr.w	r2, r2, r0, lsl #12
                       (((Timing->ExitSelfRefreshDelay)-1U) << 4U)  |\
 8005d76:	1e58      	subs	r0, r3, #1
                       (((Timing->SelfRefreshTime)-1U) << 8U)       |\
 8005d78:	68a3      	ldr	r3, [r4, #8]
 8005d7a:	3b01      	subs	r3, #1
 8005d7c:	021b      	lsls	r3, r3, #8
                       (((Timing->ExitSelfRefreshDelay)-1U) << 4U)  |\
 8005d7e:	ea43 1300 	orr.w	r3, r3, r0, lsl #4
    tmpr2 |= (uint32_t)((((Timing->LoadToActiveDelay)-1U)           |\
 8005d82:	6820      	ldr	r0, [r4, #0]
 8005d84:	3801      	subs	r0, #1
                       (((Timing->ExitSelfRefreshDelay)-1U) << 4U)  |\
 8005d86:	4303      	orrs	r3, r0
                       (((Timing->WriteRecoveryTime)-1U) <<16U)     |\
 8005d88:	6920      	ldr	r0, [r4, #16]
    tmpr1 &= ((uint32_t)~(FMC_SDTR1_TRC | FMC_SDTR1_TRP));
 8005d8a:	f421 0170 	bic.w	r1, r1, #15728640	; 0xf00000
                       (((Timing->WriteRecoveryTime)-1U) <<16U)     |\
 8005d8e:	3801      	subs	r0, #1
    tmpr1 &= ((uint32_t)~(FMC_SDTR1_TRC | FMC_SDTR1_TRP));
 8005d90:	f421 4170 	bic.w	r1, r1, #61440	; 0xf000
                       (((Timing->SelfRefreshTime)-1U) << 8U)       |\
 8005d94:	ea43 4300 	orr.w	r3, r3, r0, lsl #16
                       (((Timing->RCDDelay)-1U) << 24U)));   
 8005d98:	69a0      	ldr	r0, [r4, #24]
    tmpr1 |= (uint32_t)((((Timing->RowCycleDelay)-1U) << 12U)       |\
 8005d9a:	430a      	orrs	r2, r1
    tmpr2 = Device->SDTR[FMC_SDRAM_BANK2];
 8005d9c:	68e9      	ldr	r1, [r5, #12]
    Device->SDTR[FMC_SDRAM_BANK1] = tmpr1;
 8005d9e:	60aa      	str	r2, [r5, #8]
                       (((Timing->RCDDelay)-1U) << 24U)));   
 8005da0:	3801      	subs	r0, #1
    tmpr2 &= ((uint32_t)~(FMC_SDTR1_TMRD  | FMC_SDTR1_TXSR | FMC_SDTR1_TRAS | \
 8005da2:	f001 4170 	and.w	r1, r1, #4026531840	; 0xf0000000
    tmpr2 |= (uint32_t)((((Timing->LoadToActiveDelay)-1U)           |\
 8005da6:	ea43 6300 	orr.w	r3, r3, r0, lsl #24
 8005daa:	430b      	orrs	r3, r1
    Device->SDTR[FMC_SDRAM_BANK2] = tmpr2;
 8005dac:	60eb      	str	r3, [r5, #12]
 8005dae:	e7d6      	b.n	8005d5e <FMC_SDRAM_Timing_Init+0xe2>
 8005db0:	a0000140 	.word	0xa0000140
 8005db4:	0800854e 	.word	0x0800854e

08005db8 <FMC_SDRAM_SendCommand>:
  * @param  Timing: Pointer to SDRAM Timing structure
  * @param  Timeout: Timeout wait value
  * @retval HAL state
  */  
HAL_StatusTypeDef FMC_SDRAM_SendCommand(FMC_SDRAM_TypeDef *Device, FMC_SDRAM_CommandTypeDef *Command, uint32_t Timeout)
{
 8005db8:	b573      	push	{r0, r1, r4, r5, r6, lr}
  __IO uint32_t tmpr = 0U;
 8005dba:	2300      	movs	r3, #0
 8005dbc:	9301      	str	r3, [sp, #4]
  uint32_t tickstart = 0U;
  
  /* Check the parameters */
  assert_param(IS_FMC_SDRAM_DEVICE(Device));
 8005dbe:	4b28      	ldr	r3, [pc, #160]	; (8005e60 <FMC_SDRAM_SendCommand+0xa8>)
 8005dc0:	4298      	cmp	r0, r3
{
 8005dc2:	4605      	mov	r5, r0
 8005dc4:	460c      	mov	r4, r1
 8005dc6:	4616      	mov	r6, r2
  assert_param(IS_FMC_SDRAM_DEVICE(Device));
 8005dc8:	d004      	beq.n	8005dd4 <FMC_SDRAM_SendCommand+0x1c>
 8005dca:	f240 6133 	movw	r1, #1587	; 0x633
 8005dce:	4825      	ldr	r0, [pc, #148]	; (8005e64 <FMC_SDRAM_SendCommand+0xac>)
 8005dd0:	f7fa ff9f 	bl	8000d12 <assert_failed>
  assert_param(IS_FMC_COMMAND_MODE(Command->CommandMode));
 8005dd4:	6823      	ldr	r3, [r4, #0]
 8005dd6:	2b06      	cmp	r3, #6
 8005dd8:	d904      	bls.n	8005de4 <FMC_SDRAM_SendCommand+0x2c>
 8005dda:	f240 6134 	movw	r1, #1588	; 0x634
 8005dde:	4821      	ldr	r0, [pc, #132]	; (8005e64 <FMC_SDRAM_SendCommand+0xac>)
 8005de0:	f7fa ff97 	bl	8000d12 <assert_failed>
  assert_param(IS_FMC_COMMAND_TARGET(Command->CommandTarget));
 8005de4:	6863      	ldr	r3, [r4, #4]
 8005de6:	2b10      	cmp	r3, #16
 8005de8:	d008      	beq.n	8005dfc <FMC_SDRAM_SendCommand+0x44>
 8005dea:	f023 0310 	bic.w	r3, r3, #16
 8005dee:	2b08      	cmp	r3, #8
 8005df0:	d004      	beq.n	8005dfc <FMC_SDRAM_SendCommand+0x44>
 8005df2:	f240 6135 	movw	r1, #1589	; 0x635
 8005df6:	481b      	ldr	r0, [pc, #108]	; (8005e64 <FMC_SDRAM_SendCommand+0xac>)
 8005df8:	f7fa ff8b 	bl	8000d12 <assert_failed>
  assert_param(IS_FMC_AUTOREFRESH_NUMBER(Command->AutoRefreshNumber));
 8005dfc:	68a3      	ldr	r3, [r4, #8]
 8005dfe:	3b01      	subs	r3, #1
 8005e00:	2b0f      	cmp	r3, #15
 8005e02:	d904      	bls.n	8005e0e <FMC_SDRAM_SendCommand+0x56>
 8005e04:	f240 6136 	movw	r1, #1590	; 0x636
 8005e08:	4816      	ldr	r0, [pc, #88]	; (8005e64 <FMC_SDRAM_SendCommand+0xac>)
 8005e0a:	f7fa ff82 	bl	8000d12 <assert_failed>
  assert_param(IS_FMC_MODE_REGISTER(Command->ModeRegisterDefinition));  
 8005e0e:	68e3      	ldr	r3, [r4, #12]
 8005e10:	f5b3 5f00 	cmp.w	r3, #8192	; 0x2000
 8005e14:	d304      	bcc.n	8005e20 <FMC_SDRAM_SendCommand+0x68>
 8005e16:	f240 6137 	movw	r1, #1591	; 0x637
 8005e1a:	4812      	ldr	r0, [pc, #72]	; (8005e64 <FMC_SDRAM_SendCommand+0xac>)
 8005e1c:	f7fa ff79 	bl	8000d12 <assert_failed>

  /* Set command register */
  tmpr = (uint32_t)((Command->CommandMode)                  |\
 8005e20:	e894 000c 	ldmia.w	r4, {r2, r3}
 8005e24:	4313      	orrs	r3, r2
                    (Command->CommandTarget)                |\
                    (((Command->AutoRefreshNumber)-1U) << 5U) |\
                    ((Command->ModeRegisterDefinition) << 9U)
 8005e26:	68e2      	ldr	r2, [r4, #12]
  tmpr = (uint32_t)((Command->CommandMode)                  |\
 8005e28:	ea43 2342 	orr.w	r3, r3, r2, lsl #9
                    (((Command->AutoRefreshNumber)-1U) << 5U) |\
 8005e2c:	68a2      	ldr	r2, [r4, #8]
 8005e2e:	3a01      	subs	r2, #1
  tmpr = (uint32_t)((Command->CommandMode)                  |\
 8005e30:	ea43 1342 	orr.w	r3, r3, r2, lsl #5
 8005e34:	9301      	str	r3, [sp, #4]
                    );
    
  Device->SDCMR = tmpr;
 8005e36:	9b01      	ldr	r3, [sp, #4]
 8005e38:	612b      	str	r3, [r5, #16]

  /* Get tick */ 
  tickstart = HAL_GetTick();
 8005e3a:	f7fb fde9 	bl	8001a10 <HAL_GetTick>
 8005e3e:	4604      	mov	r4, r0

  /* Wait until command is send */
  while(HAL_IS_BIT_SET(Device->SDSR, FMC_SDSR_BUSY))
 8005e40:	69a8      	ldr	r0, [r5, #24]
 8005e42:	f010 0020 	ands.w	r0, r0, #32
 8005e46:	d003      	beq.n	8005e50 <FMC_SDRAM_SendCommand+0x98>
  {
    /* Check for the Timeout */
    if(Timeout != HAL_MAX_DELAY)
 8005e48:	1c73      	adds	r3, r6, #1
 8005e4a:	d0f9      	beq.n	8005e40 <FMC_SDRAM_SendCommand+0x88>
    {
      if((Timeout == 0U)||((HAL_GetTick() - tickstart ) > Timeout))
 8005e4c:	b916      	cbnz	r6, 8005e54 <FMC_SDRAM_SendCommand+0x9c>
      {
        return HAL_TIMEOUT;
 8005e4e:	2003      	movs	r0, #3
      }
    }
  }

  return HAL_OK;
}
 8005e50:	b002      	add	sp, #8
 8005e52:	bd70      	pop	{r4, r5, r6, pc}
      if((Timeout == 0U)||((HAL_GetTick() - tickstart ) > Timeout))
 8005e54:	f7fb fddc 	bl	8001a10 <HAL_GetTick>
 8005e58:	1b00      	subs	r0, r0, r4
 8005e5a:	4286      	cmp	r6, r0
 8005e5c:	d2f0      	bcs.n	8005e40 <FMC_SDRAM_SendCommand+0x88>
 8005e5e:	e7f6      	b.n	8005e4e <FMC_SDRAM_SendCommand+0x96>
 8005e60:	a0000140 	.word	0xa0000140
 8005e64:	0800854e 	.word	0x0800854e

08005e68 <FMC_SDRAM_ProgramRefreshRate>:
  * @param  Device: Pointer to SDRAM device instance  
  * @param  RefreshRate: The SDRAM refresh rate value.
  * @retval HAL state
  */
HAL_StatusTypeDef FMC_SDRAM_ProgramRefreshRate(FMC_SDRAM_TypeDef *Device, uint32_t RefreshRate)
{
 8005e68:	b538      	push	{r3, r4, r5, lr}
  /* Check the parameters */
  assert_param(IS_FMC_SDRAM_DEVICE(Device));
 8005e6a:	4b0c      	ldr	r3, [pc, #48]	; (8005e9c <FMC_SDRAM_ProgramRefreshRate+0x34>)
 8005e6c:	4298      	cmp	r0, r3
{
 8005e6e:	4604      	mov	r4, r0
 8005e70:	460d      	mov	r5, r1
  assert_param(IS_FMC_SDRAM_DEVICE(Device));
 8005e72:	d004      	beq.n	8005e7e <FMC_SDRAM_ProgramRefreshRate+0x16>
 8005e74:	f240 615e 	movw	r1, #1630	; 0x65e
 8005e78:	4809      	ldr	r0, [pc, #36]	; (8005ea0 <FMC_SDRAM_ProgramRefreshRate+0x38>)
 8005e7a:	f7fa ff4a 	bl	8000d12 <assert_failed>
  assert_param(IS_FMC_REFRESH_RATE(RefreshRate));
 8005e7e:	f5b5 5f00 	cmp.w	r5, #8192	; 0x2000
 8005e82:	d304      	bcc.n	8005e8e <FMC_SDRAM_ProgramRefreshRate+0x26>
 8005e84:	f240 615f 	movw	r1, #1631	; 0x65f
 8005e88:	4805      	ldr	r0, [pc, #20]	; (8005ea0 <FMC_SDRAM_ProgramRefreshRate+0x38>)
 8005e8a:	f7fa ff42 	bl	8000d12 <assert_failed>
  
  /* Set the refresh rate in command register */
  Device->SDRTR |= (RefreshRate<<1U);
 8005e8e:	6961      	ldr	r1, [r4, #20]
 8005e90:	ea41 0145 	orr.w	r1, r1, r5, lsl #1
 8005e94:	6161      	str	r1, [r4, #20]
  
  return HAL_OK;   
}
 8005e96:	2000      	movs	r0, #0
 8005e98:	bd38      	pop	{r3, r4, r5, pc}
 8005e9a:	bf00      	nop
 8005e9c:	a0000140 	.word	0xa0000140
 8005ea0:	0800854e 	.word	0x0800854e

08005ea4 <Sound_PlaySound>:


////////////////////////////////////////////////
void Sound_PlaySound(const SoundData *sound)
{
	waveData = (uint8_t*)sound->pSoundData;		//set the pointer
 8005ea4:	4b04      	ldr	r3, [pc, #16]	; (8005eb8 <Sound_PlaySound+0x14>)
 8005ea6:	6802      	ldr	r2, [r0, #0]
 8005ea8:	601a      	str	r2, [r3, #0]
	waveCounter = sound->length;
 8005eaa:	4b04      	ldr	r3, [pc, #16]	; (8005ebc <Sound_PlaySound+0x18>)
 8005eac:	6842      	ldr	r2, [r0, #4]

	//start the timer - calls Sound_InterruptHandler
	HAL_TIM_Base_Start_IT(&htim7);
 8005eae:	4804      	ldr	r0, [pc, #16]	; (8005ec0 <Sound_PlaySound+0x1c>)
	waveCounter = sound->length;
 8005eb0:	601a      	str	r2, [r3, #0]
	HAL_TIM_Base_Start_IT(&htim7);
 8005eb2:	f7fe bf0b 	b.w	8004ccc <HAL_TIM_Base_Start_IT>
 8005eb6:	bf00      	nop
 8005eb8:	20000500 	.word	0x20000500
 8005ebc:	200004fc 	.word	0x200004fc
 8005ec0:	20000d50 	.word	0x20000d50

08005ec4 <Sound_Init>:
{
 8005ec4:	b510      	push	{r4, lr}
	HAL_DAC_Start(&hdac, DAC1_CHANNEL_2);
 8005ec6:	4c08      	ldr	r4, [pc, #32]	; (8005ee8 <Sound_Init+0x24>)
	HAL_TIM_Base_Stop_IT(&htim7);
 8005ec8:	4808      	ldr	r0, [pc, #32]	; (8005eec <Sound_Init+0x28>)
 8005eca:	f7fe ff4d 	bl	8004d68 <HAL_TIM_Base_Stop_IT>
	HAL_DAC_Start(&hdac, DAC1_CHANNEL_2);
 8005ece:	2110      	movs	r1, #16
 8005ed0:	4620      	mov	r0, r4
 8005ed2:	f7fc f949 	bl	8002168 <HAL_DAC_Start>
	HAL_DAC_SetValue(&hdac, DAC1_CHANNEL_2, DAC_ALIGN_8B_R, 0x00);
 8005ed6:	4620      	mov	r0, r4
 8005ed8:	2300      	movs	r3, #0
 8005eda:	2208      	movs	r2, #8
 8005edc:	2110      	movs	r1, #16
}
 8005ede:	e8bd 4010 	ldmia.w	sp!, {r4, lr}
	HAL_DAC_SetValue(&hdac, DAC1_CHANNEL_2, DAC_ALIGN_8B_R, 0x00);
 8005ee2:	f7fc b9f5 	b.w	80022d0 <HAL_DAC_SetValue>
 8005ee6:	bf00      	nop
 8005ee8:	20000b00 	.word	0x20000b00
 8005eec:	20000d50 	.word	0x20000d50

08005ef0 <Sound_InterruptHandler>:
{
 8005ef0:	b538      	push	{r3, r4, r5, lr}
	if (waveCounter > 4)
 8005ef2:	4c0f      	ldr	r4, [pc, #60]	; (8005f30 <Sound_InterruptHandler+0x40>)
 8005ef4:	6823      	ldr	r3, [r4, #0]
 8005ef6:	2b04      	cmp	r3, #4
 8005ef8:	d90e      	bls.n	8005f18 <Sound_InterruptHandler+0x28>
		HAL_DAC_SetValue(&hdac, DAC1_CHANNEL_2, DAC_ALIGN_8B_R, *waveData);
 8005efa:	4d0e      	ldr	r5, [pc, #56]	; (8005f34 <Sound_InterruptHandler+0x44>)
 8005efc:	480e      	ldr	r0, [pc, #56]	; (8005f38 <Sound_InterruptHandler+0x48>)
 8005efe:	682b      	ldr	r3, [r5, #0]
 8005f00:	2208      	movs	r2, #8
 8005f02:	781b      	ldrb	r3, [r3, #0]
 8005f04:	2110      	movs	r1, #16
 8005f06:	f7fc f9e3 	bl	80022d0 <HAL_DAC_SetValue>
		waveData+=4;				//increment the pointer
 8005f0a:	682b      	ldr	r3, [r5, #0]
 8005f0c:	3304      	adds	r3, #4
 8005f0e:	602b      	str	r3, [r5, #0]
		waveCounter-=4;			//decrement the downcounter
 8005f10:	6823      	ldr	r3, [r4, #0]
 8005f12:	3b04      	subs	r3, #4
 8005f14:	6023      	str	r3, [r4, #0]
 8005f16:	bd38      	pop	{r3, r4, r5, pc}
		HAL_DAC_SetValue(&hdac, DAC1_CHANNEL_2, DAC_ALIGN_8B_R, 0x00);
 8005f18:	2300      	movs	r3, #0
 8005f1a:	2208      	movs	r2, #8
 8005f1c:	2110      	movs	r1, #16
 8005f1e:	4806      	ldr	r0, [pc, #24]	; (8005f38 <Sound_InterruptHandler+0x48>)
 8005f20:	f7fc f9d6 	bl	80022d0 <HAL_DAC_SetValue>
		HAL_TIM_Base_Stop_IT(&htim7);
 8005f24:	4805      	ldr	r0, [pc, #20]	; (8005f3c <Sound_InterruptHandler+0x4c>)
}
 8005f26:	e8bd 4038 	ldmia.w	sp!, {r3, r4, r5, lr}
		HAL_TIM_Base_Stop_IT(&htim7);
 8005f2a:	f7fe bf1d 	b.w	8004d68 <HAL_TIM_Base_Stop_IT>
 8005f2e:	bf00      	nop
 8005f30:	200004fc 	.word	0x200004fc
 8005f34:	20000500 	.word	0x20000500
 8005f38:	20000b00 	.word	0x20000b00
 8005f3c:	20000d50 	.word	0x20000d50

08005f40 <Sound_Play_Sinewave>:



void Sound_Play_Sinewave(void)
{
	Sound_PlaySound(&sound_sinewave);
 8005f40:	4801      	ldr	r0, [pc, #4]	; (8005f48 <Sound_Play_Sinewave+0x8>)
 8005f42:	f7ff bfaf 	b.w	8005ea4 <Sound_PlaySound>
 8005f46:	bf00      	nop
 8005f48:	08015594 	.word	0x08015594

08005f4c <Sound_Play_PlayerBounce>:
	Sound_PlaySound(&sound_levelup);
}

void Sound_Play_PlayerBounce(void)
{
	Sound_PlaySound(&sound_playerbounce);
 8005f4c:	4801      	ldr	r0, [pc, #4]	; (8005f54 <Sound_Play_PlayerBounce+0x8>)
 8005f4e:	f7ff bfa9 	b.w	8005ea4 <Sound_PlaySound>
 8005f52:	bf00      	nop
 8005f54:	0800aef4 	.word	0x0800aef4

08005f58 <Sprite_GetBallMissedFlag>:
}

uint8_t Sprite_GetBallMissedFlag(void)
{
	return spriteBallMissedFlag;
}
 8005f58:	4b01      	ldr	r3, [pc, #4]	; (8005f60 <Sprite_GetBallMissedFlag+0x8>)
 8005f5a:	7818      	ldrb	r0, [r3, #0]
 8005f5c:	4770      	bx	lr
 8005f5e:	bf00      	nop
 8005f60:	20000a38 	.word	0x20000a38

08005f64 <Sprite_ClearBallMissedFlag>:

void Sprite_ClearBallMissedFlag(void)
{
	spriteBallMissedFlag = 0;
 8005f64:	4b01      	ldr	r3, [pc, #4]	; (8005f6c <Sprite_ClearBallMissedFlag+0x8>)
 8005f66:	2200      	movs	r2, #0
 8005f68:	701a      	strb	r2, [r3, #0]
 8005f6a:	4770      	bx	lr
 8005f6c:	20000a38 	.word	0x20000a38

08005f70 <Sprite_DisplayDroppedBall>:
//drop a ball..
//pause for a second, write a message
//decrement the player.  resume
//flash dropped ball a few times
void Sprite_DisplayDroppedBall(void)
{
 8005f70:	b510      	push	{r4, lr}
	mPlayer.numLives--;
 8005f72:	4a20      	ldr	r2, [pc, #128]	; (8005ff4 <Sprite_DisplayDroppedBall+0x84>)
 8005f74:	7813      	ldrb	r3, [r2, #0]
 8005f76:	3b01      	subs	r3, #1
 8005f78:	b2db      	uxtb	r3, r3
 8005f7a:	7013      	strb	r3, [r2, #0]

	if (mPlayer.numLives > 0)
 8005f7c:	b3cb      	cbz	r3, 8005ff2 <Sprite_DisplayDroppedBall+0x82>
	{
		LCD_SetTextLineColor(WHITE);
 8005f7e:	f64f 70ff 	movw	r0, #65535	; 0xffff
 8005f82:	f7fb f989 	bl	8001298 <LCD_SetTextLineColor>

}

uint8_t Sprite_GetActiveDisplayBuffer(void)
{
	return spriteActiveBuffer;
 8005f86:	4b1c      	ldr	r3, [pc, #112]	; (8005ff8 <Sprite_DisplayDroppedBall+0x88>)
		LCD_DrawString(buffer, 5, "Dropped Ball");
 8005f88:	4a1c      	ldr	r2, [pc, #112]	; (8005ffc <Sprite_DisplayDroppedBall+0x8c>)
	return spriteActiveBuffer;
 8005f8a:	781c      	ldrb	r4, [r3, #0]
		LCD_DrawString(buffer, 5, "Dropped Ball");
 8005f8c:	2105      	movs	r1, #5
 8005f8e:	4620      	mov	r0, r4
 8005f90:	f7fb fa0a 	bl	80013a8 <LCD_DrawString>
		HAL_Delay(1000);
 8005f94:	f44f 707a 	mov.w	r0, #1000	; 0x3e8
 8005f98:	f7fb fd40 	bl	8001a1c <HAL_Delay>
		LCD_SetTextLineColor(BLUE);
 8005f9c:	201f      	movs	r0, #31
 8005f9e:	f7fb f97b 	bl	8001298 <LCD_SetTextLineColor>
		LCD_DrawString(buffer, 5, "Dropped Ball");
 8005fa2:	4a16      	ldr	r2, [pc, #88]	; (8005ffc <Sprite_DisplayDroppedBall+0x8c>)
 8005fa4:	2105      	movs	r1, #5
 8005fa6:	4620      	mov	r0, r4
 8005fa8:	f7fb f9fe 	bl	80013a8 <LCD_DrawString>
		HAL_Delay(1000);
 8005fac:	f44f 707a 	mov.w	r0, #1000	; 0x3e8
 8005fb0:	f7fb fd34 	bl	8001a1c <HAL_Delay>
		LCD_SetTextLineColor(WHITE);
 8005fb4:	f64f 70ff 	movw	r0, #65535	; 0xffff
 8005fb8:	f7fb f96e 	bl	8001298 <LCD_SetTextLineColor>
		LCD_DrawString(buffer, 5, "Dropped Ball");
 8005fbc:	4a0f      	ldr	r2, [pc, #60]	; (8005ffc <Sprite_DisplayDroppedBall+0x8c>)
 8005fbe:	2105      	movs	r1, #5
 8005fc0:	4620      	mov	r0, r4
 8005fc2:	f7fb f9f1 	bl	80013a8 <LCD_DrawString>
		HAL_Delay(1000);
 8005fc6:	f44f 707a 	mov.w	r0, #1000	; 0x3e8
 8005fca:	f7fb fd27 	bl	8001a1c <HAL_Delay>
		LCD_SetTextLineColor(BLUE);
 8005fce:	201f      	movs	r0, #31
 8005fd0:	f7fb f962 	bl	8001298 <LCD_SetTextLineColor>
		LCD_DrawString(buffer, 5, "Dropped Ball");
 8005fd4:	4620      	mov	r0, r4
 8005fd6:	4a09      	ldr	r2, [pc, #36]	; (8005ffc <Sprite_DisplayDroppedBall+0x8c>)
 8005fd8:	2105      	movs	r1, #5
 8005fda:	f7fb f9e5 	bl	80013a8 <LCD_DrawString>
		HAL_Delay(1000);
 8005fde:	f44f 707a 	mov.w	r0, #1000	; 0x3e8
 8005fe2:	f7fb fd1b 	bl	8001a1c <HAL_Delay>
		LCD_SetTextLineColor(WHITE);
 8005fe6:	f64f 70ff 	movw	r0, #65535	; 0xffff
}
 8005fea:	e8bd 4010 	ldmia.w	sp!, {r4, lr}
		LCD_SetTextLineColor(WHITE);
 8005fee:	f7fb b953 	b.w	8001298 <LCD_SetTextLineColor>
 8005ff2:	bd10      	pop	{r4, pc}
 8005ff4:	2000051c 	.word	0x2000051c
 8005ff8:	20000a34 	.word	0x20000a34
 8005ffc:	080155b6 	.word	0x080155b6

08006000 <Sprite_DisplayGameOver>:
{
 8006000:	b538      	push	{r3, r4, r5, lr}
	LCD_SetTextLineColor(WHITE);
 8006002:	f64f 70ff 	movw	r0, #65535	; 0xffff
 8006006:	f7fb f947 	bl	8001298 <LCD_SetTextLineColor>
	return spriteActiveBuffer;
 800600a:	4b1b      	ldr	r3, [pc, #108]	; (8006078 <Sprite_DisplayGameOver+0x78>)
	LCD_DrawString(buffer, 5, "Game Over");
 800600c:	4d1b      	ldr	r5, [pc, #108]	; (800607c <Sprite_DisplayGameOver+0x7c>)
	return spriteActiveBuffer;
 800600e:	781c      	ldrb	r4, [r3, #0]
	LCD_DrawString(buffer, 5, "Game Over");
 8006010:	462a      	mov	r2, r5
 8006012:	2105      	movs	r1, #5
 8006014:	4620      	mov	r0, r4
 8006016:	f7fb f9c7 	bl	80013a8 <LCD_DrawString>
	HAL_Delay(1000);
 800601a:	f44f 707a 	mov.w	r0, #1000	; 0x3e8
 800601e:	f7fb fcfd 	bl	8001a1c <HAL_Delay>
	LCD_SetTextLineColor(BLUE);
 8006022:	201f      	movs	r0, #31
 8006024:	f7fb f938 	bl	8001298 <LCD_SetTextLineColor>
	LCD_DrawString(buffer, 5, "Game Over");
 8006028:	462a      	mov	r2, r5
 800602a:	2105      	movs	r1, #5
 800602c:	4620      	mov	r0, r4
 800602e:	f7fb f9bb 	bl	80013a8 <LCD_DrawString>
	HAL_Delay(1000);
 8006032:	f44f 707a 	mov.w	r0, #1000	; 0x3e8
 8006036:	f7fb fcf1 	bl	8001a1c <HAL_Delay>
	LCD_SetTextLineColor(WHITE);
 800603a:	f64f 70ff 	movw	r0, #65535	; 0xffff
 800603e:	f7fb f92b 	bl	8001298 <LCD_SetTextLineColor>
	LCD_DrawString(buffer, 5, "Game Over");
 8006042:	462a      	mov	r2, r5
 8006044:	2105      	movs	r1, #5
 8006046:	4620      	mov	r0, r4
 8006048:	f7fb f9ae 	bl	80013a8 <LCD_DrawString>
	HAL_Delay(1000);
 800604c:	f44f 707a 	mov.w	r0, #1000	; 0x3e8
 8006050:	f7fb fce4 	bl	8001a1c <HAL_Delay>
	LCD_SetTextLineColor(BLUE);
 8006054:	201f      	movs	r0, #31
 8006056:	f7fb f91f 	bl	8001298 <LCD_SetTextLineColor>
	LCD_DrawString(buffer, 5, "Game Over");
 800605a:	462a      	mov	r2, r5
 800605c:	4620      	mov	r0, r4
 800605e:	2105      	movs	r1, #5
 8006060:	f7fb f9a2 	bl	80013a8 <LCD_DrawString>
	HAL_Delay(1000);
 8006064:	f44f 707a 	mov.w	r0, #1000	; 0x3e8
 8006068:	f7fb fcd8 	bl	8001a1c <HAL_Delay>
	LCD_SetTextLineColor(WHITE);
 800606c:	f64f 70ff 	movw	r0, #65535	; 0xffff
}
 8006070:	e8bd 4038 	ldmia.w	sp!, {r3, r4, r5, lr}
	LCD_SetTextLineColor(WHITE);
 8006074:	f7fb b910 	b.w	8001298 <LCD_SetTextLineColor>
 8006078:	20000a34 	.word	0x20000a34
 800607c:	080155c3 	.word	0x080155c3

08006080 <Ball_Init>:
	mBall.image = &imgBall;		//must be first
 8006080:	4b07      	ldr	r3, [pc, #28]	; (80060a0 <Ball_Init+0x20>)
 8006082:	4a08      	ldr	r2, [pc, #32]	; (80060a4 <Ball_Init+0x24>)
 8006084:	615a      	str	r2, [r3, #20]
	mBall.y = 280;
 8006086:	f44f 718c 	mov.w	r1, #280	; 0x118
 800608a:	200a      	movs	r0, #10
 800608c:	e883 0003 	stmia.w	r3, {r0, r1}
	mBall.sizeX = mBall.image->xSize;
 8006090:	8811      	ldrh	r1, [r2, #0]
	mBall.sizeY = mBall.image->ySize;
 8006092:	8852      	ldrh	r2, [r2, #2]
 8006094:	60da      	str	r2, [r3, #12]
	mBall.angle = SPRITE_DIRECTION_45;
 8006096:	2202      	movs	r2, #2
	mBall.sizeX = mBall.image->xSize;
 8006098:	6099      	str	r1, [r3, #8]
	mBall.angle = SPRITE_DIRECTION_45;
 800609a:	741a      	strb	r2, [r3, #16]
 800609c:	4770      	bx	lr
 800609e:	bf00      	nop
 80060a0:	20000504 	.word	0x20000504
 80060a4:	08007614 	.word	0x08007614

080060a8 <Tile_Init>:
{
 80060a8:	b5f0      	push	{r4, r5, r6, r7, lr}
			mTile[counter].image = &imgTile;
 80060aa:	f8df c048 	ldr.w	ip, [pc, #72]	; 80060f4 <Tile_Init+0x4c>
			mTile[counter].life = 1;
 80060ae:	4e10      	ldr	r6, [pc, #64]	; (80060f0 <Tile_Init+0x48>)
	for (int i = 0 ; i < NUM_TILE_ROWS ; i++)
 80060b0:	2000      	movs	r0, #0
 80060b2:	241e      	movs	r4, #30
			mTile[counter].life = 1;
 80060b4:	f04f 0e01 	mov.w	lr, #1
 80060b8:	00c5      	lsls	r5, r0, #3
			mTile[counter].y = (30 * i) + TILE_HEADER;
 80060ba:	3001      	adds	r0, #1
 80060bc:	b2ad      	uxth	r5, r5
 80060be:	fb04 f700 	mul.w	r7, r4, r0
 80060c2:	2100      	movs	r1, #0
			mTile[counter].life = 1;
 80060c4:	186a      	adds	r2, r5, r1
 80060c6:	b292      	uxth	r2, r2
 80060c8:	0152      	lsls	r2, r2, #5
 80060ca:	18b3      	adds	r3, r6, r2
 80060cc:	f806 e002 	strb.w	lr, [r6, r2]
			mTile[counter].x = 30 * j;
 80060d0:	fb04 f201 	mul.w	r2, r4, r1
		for (int j = 0 ; j < NUM_TILE_COLS ; j++)
 80060d4:	3101      	adds	r1, #1
 80060d6:	2908      	cmp	r1, #8
			mTile[counter].image = &imgTile;
 80060d8:	f8c3 c01c 	str.w	ip, [r3, #28]
			mTile[counter].points = 30;
 80060dc:	829c      	strh	r4, [r3, #20]
			mTile[counter].sizeX = 30;
 80060de:	60dc      	str	r4, [r3, #12]
			mTile[counter].sizeY = 30;
 80060e0:	611c      	str	r4, [r3, #16]
			mTile[counter].x = 30 * j;
 80060e2:	605a      	str	r2, [r3, #4]
			mTile[counter].y = (30 * i) + TILE_HEADER;
 80060e4:	609f      	str	r7, [r3, #8]
		for (int j = 0 ; j < NUM_TILE_COLS ; j++)
 80060e6:	d1ed      	bne.n	80060c4 <Tile_Init+0x1c>
	for (int i = 0 ; i < NUM_TILE_ROWS ; i++)
 80060e8:	2805      	cmp	r0, #5
 80060ea:	d1e5      	bne.n	80060b8 <Tile_Init+0x10>
 80060ec:	bdf0      	pop	{r4, r5, r6, r7, pc}
 80060ee:	bf00      	nop
 80060f0:	20000534 	.word	0x20000534
 80060f4:	08007e60 	.word	0x08007e60

080060f8 <Player_Init>:
	mPlayer.numLives = PLAYER_NUM_PLAYERS;
 80060f8:	4b07      	ldr	r3, [pc, #28]	; (8006118 <Player_Init+0x20>)
 80060fa:	2205      	movs	r2, #5
 80060fc:	701a      	strb	r2, [r3, #0]
	mPlayer.x = PLAYER_DEFAULT_X;
 80060fe:	2264      	movs	r2, #100	; 0x64
 8006100:	605a      	str	r2, [r3, #4]
	mPlayer.y = PLAYER_DEFAULT_Y;
 8006102:	f44f 7291 	mov.w	r2, #290	; 0x122
 8006106:	609a      	str	r2, [r3, #8]
	mPlayer.image = &imgPlayer;
 8006108:	4a04      	ldr	r2, [pc, #16]	; (800611c <Player_Init+0x24>)
 800610a:	615a      	str	r2, [r3, #20]
	mPlayer.sizeX = mPlayer.image->xSize;
 800610c:	8811      	ldrh	r1, [r2, #0]
	mPlayer.sizeY = mPlayer.image->ySize;
 800610e:	8852      	ldrh	r2, [r2, #2]
	mPlayer.sizeX = mPlayer.image->xSize;
 8006110:	60d9      	str	r1, [r3, #12]
	mPlayer.sizeY = mPlayer.image->ySize;
 8006112:	611a      	str	r2, [r3, #16]
 8006114:	4770      	bx	lr
 8006116:	bf00      	nop
 8006118:	2000051c 	.word	0x2000051c
 800611c:	08007ad0 	.word	0x08007ad0

08006120 <Sprite_DisplayGameStart>:
{
 8006120:	b538      	push	{r3, r4, r5, lr}
	return spriteActiveBuffer;
 8006122:	4b16      	ldr	r3, [pc, #88]	; (800617c <Sprite_DisplayGameStart+0x5c>)
	LCD_DrawString(buffer, 5, "Press Start");
 8006124:	4d16      	ldr	r5, [pc, #88]	; (8006180 <Sprite_DisplayGameStart+0x60>)
	return spriteActiveBuffer;
 8006126:	781c      	ldrb	r4, [r3, #0]
	LCD_SetTextLineColor(WHITE);
 8006128:	f64f 70ff 	movw	r0, #65535	; 0xffff
 800612c:	f7fb f8b4 	bl	8001298 <LCD_SetTextLineColor>
	LCD_DrawString(buffer, 5, "Press Start");
 8006130:	462a      	mov	r2, r5
 8006132:	2105      	movs	r1, #5
 8006134:	4620      	mov	r0, r4
 8006136:	f7fb f937 	bl	80013a8 <LCD_DrawString>
	HAL_Delay(1000);
 800613a:	f44f 707a 	mov.w	r0, #1000	; 0x3e8
 800613e:	f7fb fc6d 	bl	8001a1c <HAL_Delay>
	LCD_SetTextLineColor(BLUE);
 8006142:	201f      	movs	r0, #31
 8006144:	f7fb f8a8 	bl	8001298 <LCD_SetTextLineColor>
	LCD_DrawString(buffer, 5, "Press Start");
 8006148:	462a      	mov	r2, r5
 800614a:	2105      	movs	r1, #5
 800614c:	4620      	mov	r0, r4
 800614e:	f7fb f92b 	bl	80013a8 <LCD_DrawString>
	HAL_Delay(1000);
 8006152:	f44f 707a 	mov.w	r0, #1000	; 0x3e8
 8006156:	f7fb fc61 	bl	8001a1c <HAL_Delay>
	LCD_SetTextLineColor(WHITE);
 800615a:	f64f 70ff 	movw	r0, #65535	; 0xffff
 800615e:	f7fb f89b 	bl	8001298 <LCD_SetTextLineColor>
	Tile_Init();
 8006162:	f7ff ffa1 	bl	80060a8 <Tile_Init>
	Player_Init();
 8006166:	f7ff ffc7 	bl	80060f8 <Player_Init>
	Ball_Init();
 800616a:	f7ff ff89 	bl	8006080 <Ball_Init>
}


void Sprite_ResetGameScore(void)
{
	spriteGameScore = 0;
 800616e:	4b05      	ldr	r3, [pc, #20]	; (8006184 <Sprite_DisplayGameStart+0x64>)
 8006170:	2200      	movs	r2, #0
 8006172:	601a      	str	r2, [r3, #0]
}

void Sprite_SetGameSpeed(GameSpeed_t speed)
{
	if ((speed >= GAME_SPEED_LOW) && (speed <= GAME_SPEED_FAST))
		spriteGameSpeed = speed;
 8006174:	4b04      	ldr	r3, [pc, #16]	; (8006188 <Sprite_DisplayGameStart+0x68>)
 8006176:	2201      	movs	r2, #1
 8006178:	701a      	strb	r2, [r3, #0]
 800617a:	bd38      	pop	{r3, r4, r5, pc}
 800617c:	20000a34 	.word	0x20000a34
 8006180:	080155cd 	.word	0x080155cd
 8006184:	20000a40 	.word	0x20000a40
 8006188:	2000040c 	.word	0x2000040c

0800618c <Sprite_GameMode_SetMode.part.0>:
void Sprite_GameMode_SetMode(GameMode_t mode)
 800618c:	b538      	push	{r3, r4, r5, lr}
		spriteGameMode = mode;
 800618e:	4d1f      	ldr	r5, [pc, #124]	; (800620c <Sprite_GameMode_SetMode.part.0+0x80>)
 8006190:	4c1f      	ldr	r4, [pc, #124]	; (8006210 <Sprite_GameMode_SetMode.part.0+0x84>)
 8006192:	7028      	strb	r0, [r5, #0]
		switch(spriteGameMode)
 8006194:	2801      	cmp	r0, #1
 8006196:	d023      	beq.n	80061e0 <Sprite_GameMode_SetMode.part.0+0x54>
 8006198:	d308      	bcc.n	80061ac <Sprite_GameMode_SetMode.part.0+0x20>
 800619a:	2802      	cmp	r0, #2
 800619c:	d027      	beq.n	80061ee <Sprite_GameMode_SetMode.part.0+0x62>
				LCD_DrawString(Sprite_GetActiveDisplayBuffer(), 6, "   INVALID");
 800619e:	4a1d      	ldr	r2, [pc, #116]	; (8006214 <Sprite_GameMode_SetMode.part.0+0x88>)
 80061a0:	7820      	ldrb	r0, [r4, #0]
 80061a2:	2106      	movs	r1, #6
 80061a4:	f7fb f900 	bl	80013a8 <LCD_DrawString>
				LCD_DrawString(Sprite_GetActiveDisplayBuffer(), 7, "   GAME MODE");
 80061a8:	4a1b      	ldr	r2, [pc, #108]	; (8006218 <Sprite_GameMode_SetMode.part.0+0x8c>)
 80061aa:	e005      	b.n	80061b8 <Sprite_GameMode_SetMode.part.0+0x2c>
				LCD_DrawString(Sprite_GetActiveDisplayBuffer(), 6, "   GAME MODE");
 80061ac:	4a1a      	ldr	r2, [pc, #104]	; (8006218 <Sprite_GameMode_SetMode.part.0+0x8c>)
 80061ae:	7820      	ldrb	r0, [r4, #0]
 80061b0:	2106      	movs	r1, #6
 80061b2:	f7fb f8f9 	bl	80013a8 <LCD_DrawString>
				LCD_DrawString(Sprite_GetActiveDisplayBuffer(), 7, "   DEMO MODE");
 80061b6:	4a19      	ldr	r2, [pc, #100]	; (800621c <Sprite_GameMode_SetMode.part.0+0x90>)
				LCD_DrawString(Sprite_GetActiveDisplayBuffer(), 7, "   GAME MODE");
 80061b8:	7820      	ldrb	r0, [r4, #0]
 80061ba:	2107      	movs	r1, #7
 80061bc:	f7fb f8f4 	bl	80013a8 <LCD_DrawString>
		HAL_Delay(2000);
 80061c0:	f44f 60fa 	mov.w	r0, #2000	; 0x7d0
 80061c4:	f7fb fc2a 	bl	8001a1c <HAL_Delay>
		Tile_Init();
 80061c8:	f7ff ff6e 	bl	80060a8 <Tile_Init>
		Player_Init();
 80061cc:	f7ff ff94 	bl	80060f8 <Player_Init>
		Ball_Init();
 80061d0:	f7ff ff56 	bl	8006080 <Ball_Init>
		if (spriteGameMode == GAME_MODE_DEMO)
 80061d4:	782b      	ldrb	r3, [r5, #0]
 80061d6:	b98b      	cbnz	r3, 80061fc <Sprite_GameMode_SetMode.part.0+0x70>
		spriteGameSpeed = speed;
 80061d8:	4b11      	ldr	r3, [pc, #68]	; (8006220 <Sprite_GameMode_SetMode.part.0+0x94>)
 80061da:	2203      	movs	r2, #3
 80061dc:	701a      	strb	r2, [r3, #0]
 80061de:	bd38      	pop	{r3, r4, r5, pc}
				LCD_DrawString(Sprite_GetActiveDisplayBuffer(), 6, "   GAME MODE");
 80061e0:	4a0d      	ldr	r2, [pc, #52]	; (8006218 <Sprite_GameMode_SetMode.part.0+0x8c>)
 80061e2:	7820      	ldrb	r0, [r4, #0]
 80061e4:	2106      	movs	r1, #6
 80061e6:	f7fb f8df 	bl	80013a8 <LCD_DrawString>
				LCD_DrawString(Sprite_GetActiveDisplayBuffer(), 7, " TOUCH SCREEN");
 80061ea:	4a0e      	ldr	r2, [pc, #56]	; (8006224 <Sprite_GameMode_SetMode.part.0+0x98>)
 80061ec:	e7e4      	b.n	80061b8 <Sprite_GameMode_SetMode.part.0+0x2c>
				LCD_DrawString(Sprite_GetActiveDisplayBuffer(), 6, "   GAME MODE");
 80061ee:	4a0a      	ldr	r2, [pc, #40]	; (8006218 <Sprite_GameMode_SetMode.part.0+0x8c>)
 80061f0:	7820      	ldrb	r0, [r4, #0]
 80061f2:	2106      	movs	r1, #6
 80061f4:	f7fb f8d8 	bl	80013a8 <LCD_DrawString>
				LCD_DrawString(Sprite_GetActiveDisplayBuffer(), 7, "   SLIDE POT");
 80061f8:	4a0b      	ldr	r2, [pc, #44]	; (8006228 <Sprite_GameMode_SetMode.part.0+0x9c>)
 80061fa:	e7dd      	b.n	80061b8 <Sprite_GameMode_SetMode.part.0+0x2c>
		else if (spriteGameMode == GAME_MODE_TOUCH_SCREEN)
 80061fc:	2b01      	cmp	r3, #1
 80061fe:	d102      	bne.n	8006206 <Sprite_GameMode_SetMode.part.0+0x7a>
		spriteGameSpeed = speed;
 8006200:	4a07      	ldr	r2, [pc, #28]	; (8006220 <Sprite_GameMode_SetMode.part.0+0x94>)
 8006202:	7013      	strb	r3, [r2, #0]
 8006204:	e001      	b.n	800620a <Sprite_GameMode_SetMode.part.0+0x7e>
		else if (spriteGameMode == GAME_MODE_SLIDE_POT)
 8006206:	2b02      	cmp	r3, #2
 8006208:	d0fa      	beq.n	8006200 <Sprite_GameMode_SetMode.part.0+0x74>
 800620a:	bd38      	pop	{r3, r4, r5, pc}
 800620c:	20000a3c 	.word	0x20000a3c
 8006210:	20000a34 	.word	0x20000a34
 8006214:	0801563b 	.word	0x0801563b
 8006218:	08015606 	.word	0x08015606
 800621c:	08015613 	.word	0x08015613
 8006220:	2000040c 	.word	0x2000040c
 8006224:	08015620 	.word	0x08015620
 8006228:	0801562e 	.word	0x0801562e

0800622c <Sprite_Init>:
	spriteActiveBuffer = 0;
 800622c:	4b0b      	ldr	r3, [pc, #44]	; (800625c <Sprite_Init+0x30>)
 800622e:	2000      	movs	r0, #0
{
 8006230:	b510      	push	{r4, lr}
	spriteActiveBuffer = 0;
 8006232:	6018      	str	r0, [r3, #0]
	spriteGameLevel = 0;
 8006234:	4b0a      	ldr	r3, [pc, #40]	; (8006260 <Sprite_Init+0x34>)
	spriteGameSpeed = GAME_SPEED_LOW;
 8006236:	4c0b      	ldr	r4, [pc, #44]	; (8006264 <Sprite_Init+0x38>)
	spriteGameLevel = 0;
 8006238:	8018      	strh	r0, [r3, #0]
	spriteGameSpeed = GAME_SPEED_LOW;
 800623a:	2301      	movs	r3, #1
 800623c:	7023      	strb	r3, [r4, #0]
	spriteGameScore = 0;
 800623e:	4b0a      	ldr	r3, [pc, #40]	; (8006268 <Sprite_Init+0x3c>)
 8006240:	6018      	str	r0, [r3, #0]
 8006242:	f7ff ffa3 	bl	800618c <Sprite_GameMode_SetMode.part.0>
		spriteGameSpeed = speed;
 8006246:	2303      	movs	r3, #3
 8006248:	7023      	strb	r3, [r4, #0]
	Tile_Init();
 800624a:	f7ff ff2d 	bl	80060a8 <Tile_Init>
	Ball_Init();
 800624e:	f7ff ff17 	bl	8006080 <Ball_Init>
}
 8006252:	e8bd 4010 	ldmia.w	sp!, {r4, lr}
	Player_Init();
 8006256:	f7ff bf4f 	b.w	80060f8 <Player_Init>
 800625a:	bf00      	nop
 800625c:	20000a34 	.word	0x20000a34
 8006260:	20000a3a 	.word	0x20000a3a
 8006264:	2000040c 	.word	0x2000040c
 8006268:	20000a40 	.word	0x20000a40

0800626c <Sprite_Draw>:
{
 800626c:	e92d 41f0 	stmdb	sp!, {r4, r5, r6, r7, r8, lr}
	LCD_SetTextBackColor(BLUE2);
 8006270:	f240 501f 	movw	r0, #1311	; 0x51f
{
 8006274:	b08c      	sub	sp, #48	; 0x30
	if (!spriteActiveBuffer)
 8006276:	4c33      	ldr	r4, [pc, #204]	; (8006344 <Sprite_Draw+0xd8>)
	LCD_SetTextBackColor(BLUE2);
 8006278:	f7fb f814 	bl	80012a4 <LCD_SetTextBackColor>
	LCD_SetTextLineColor(WHITE);
 800627c:	f64f 70ff 	movw	r0, #65535	; 0xffff
 8006280:	f7fb f80a 	bl	8001298 <LCD_SetTextLineColor>
	if (!spriteActiveBuffer)
 8006284:	6823      	ldr	r3, [r4, #0]
 8006286:	2b00      	cmp	r3, #0
 8006288:	d156      	bne.n	8006338 <Sprite_Draw+0xcc>
		spriteActiveBuffer = 1;
 800628a:	2301      	movs	r3, #1
		spriteActiveBuffer = 0;
 800628c:	6023      	str	r3, [r4, #0]
	LCD_Clear(spriteActiveBuffer, BLUE2);
 800628e:	f240 511f 	movw	r1, #1311	; 0x51f
 8006292:	6820      	ldr	r0, [r4, #0]
	int n = sprintf(buffer, "S:%04d L:%d P:%d", spriteGameScore, spriteGameLevel, mPlayer.numLives);
 8006294:	4e2c      	ldr	r6, [pc, #176]	; (8006348 <Sprite_Draw+0xdc>)
	LCD_Clear(spriteActiveBuffer, BLUE2);
 8006296:	f7fb f825 	bl	80012e4 <LCD_Clear>
	memset(buffer, 0x00, 40);
 800629a:	2228      	movs	r2, #40	; 0x28
 800629c:	2100      	movs	r1, #0
 800629e:	a802      	add	r0, sp, #8
 80062a0:	f000 fb68 	bl	8006974 <memset>
	int n = sprintf(buffer, "S:%04d L:%d P:%d", spriteGameScore, spriteGameLevel, mPlayer.numLives);
 80062a4:	4b29      	ldr	r3, [pc, #164]	; (800634c <Sprite_Draw+0xe0>)
 80062a6:	7832      	ldrb	r2, [r6, #0]
 80062a8:	881b      	ldrh	r3, [r3, #0]
 80062aa:	9200      	str	r2, [sp, #0]
 80062ac:	4a28      	ldr	r2, [pc, #160]	; (8006350 <Sprite_Draw+0xe4>)
 80062ae:	4929      	ldr	r1, [pc, #164]	; (8006354 <Sprite_Draw+0xe8>)
 80062b0:	6812      	ldr	r2, [r2, #0]
 80062b2:	a802      	add	r0, sp, #8
 80062b4:	f000 fb66 	bl	8006984 <siprintf>
	LCD_DrawStringLength(spriteActiveBuffer, 0, buffer, n);
 80062b8:	aa02      	add	r2, sp, #8
 80062ba:	b2c3      	uxtb	r3, r0
 80062bc:	2100      	movs	r1, #0
 80062be:	7820      	ldrb	r0, [r4, #0]
 80062c0:	f7fb f88c 	bl	80013dc <LCD_DrawStringLength>
	if (spriteGameMode == GAME_MODE_DEMO)
 80062c4:	4b24      	ldr	r3, [pc, #144]	; (8006358 <Sprite_Draw+0xec>)
 80062c6:	781b      	ldrb	r3, [r3, #0]
 80062c8:	b94b      	cbnz	r3, 80062de <Sprite_Draw+0x72>
		LCD_DrawString(spriteActiveBuffer, 9, "   Demo Mode");
 80062ca:	4a24      	ldr	r2, [pc, #144]	; (800635c <Sprite_Draw+0xf0>)
 80062cc:	7820      	ldrb	r0, [r4, #0]
 80062ce:	2109      	movs	r1, #9
 80062d0:	f7fb f86a 	bl	80013a8 <LCD_DrawString>
		LCD_DrawString(spriteActiveBuffer, 10, "Press To Start");
 80062d4:	4a22      	ldr	r2, [pc, #136]	; (8006360 <Sprite_Draw+0xf4>)
 80062d6:	7820      	ldrb	r0, [r4, #0]
 80062d8:	210a      	movs	r1, #10
 80062da:	f7fb f865 	bl	80013a8 <LCD_DrawString>
	LCD_DrawBitmapTransparent(spriteActiveBuffer, mBall.x, mBall.y, mBall.image, WHITE);
 80062de:	4921      	ldr	r1, [pc, #132]	; (8006364 <Sprite_Draw+0xf8>)
 80062e0:	6820      	ldr	r0, [r4, #0]
 80062e2:	4d21      	ldr	r5, [pc, #132]	; (8006368 <Sprite_Draw+0xfc>)
 80062e4:	f64f 77ff 	movw	r7, #65535	; 0xffff
 80062e8:	9700      	str	r7, [sp, #0]
 80062ea:	694b      	ldr	r3, [r1, #20]
 80062ec:	c906      	ldmia	r1, {r1, r2}
 80062ee:	f7fb f88c 	bl	800140a <LCD_DrawBitmapTransparent>
 80062f2:	f505 68a0 	add.w	r8, r5, #1280	; 0x500
		if (mTile[i].life == 1)
 80062f6:	782b      	ldrb	r3, [r5, #0]
 80062f8:	2b01      	cmp	r3, #1
 80062fa:	d106      	bne.n	800630a <Sprite_Draw+0x9e>
			LCD_DrawBitmapTransparent(spriteActiveBuffer, mTile[i].x, mTile[i].y, mTile[i].image, WHITE);
 80062fc:	9700      	str	r7, [sp, #0]
 80062fe:	69eb      	ldr	r3, [r5, #28]
 8006300:	68aa      	ldr	r2, [r5, #8]
 8006302:	6869      	ldr	r1, [r5, #4]
 8006304:	6820      	ldr	r0, [r4, #0]
 8006306:	f7fb f880 	bl	800140a <LCD_DrawBitmapTransparent>
 800630a:	3520      	adds	r5, #32
	for (int i = 0 ; i < NUM_TILES ; i++)
 800630c:	4545      	cmp	r5, r8
 800630e:	d1f2      	bne.n	80062f6 <Sprite_Draw+0x8a>
	if (mPlayer.numLives > 0)
 8006310:	7833      	ldrb	r3, [r6, #0]
 8006312:	b143      	cbz	r3, 8006326 <Sprite_Draw+0xba>
		LCD_DrawBitmapTransparent(spriteActiveBuffer, mPlayer.x, mPlayer.y, mPlayer.image, WHITE);
 8006314:	f64f 73ff 	movw	r3, #65535	; 0xffff
 8006318:	9300      	str	r3, [sp, #0]
 800631a:	68b2      	ldr	r2, [r6, #8]
 800631c:	6973      	ldr	r3, [r6, #20]
 800631e:	6871      	ldr	r1, [r6, #4]
 8006320:	6820      	ldr	r0, [r4, #0]
 8006322:	f7fb f872 	bl	800140a <LCD_DrawBitmapTransparent>
	if (!spriteActiveBuffer)
 8006326:	6822      	ldr	r2, [r4, #0]
 8006328:	b942      	cbnz	r2, 800633c <Sprite_Draw+0xd0>
		HAL_LTDC_SetAddress(&hltdc, (uint32_t)SDRAM_LCD_LAYER_0, 0);
 800632a:	4910      	ldr	r1, [pc, #64]	; (800636c <Sprite_Draw+0x100>)
		HAL_LTDC_SetAddress(&hltdc, (uint32_t)SDRAM_LCD_LAYER_1, 0);
 800632c:	4810      	ldr	r0, [pc, #64]	; (8006370 <Sprite_Draw+0x104>)
 800632e:	f7fd fbf3 	bl	8003b18 <HAL_LTDC_SetAddress>
}
 8006332:	b00c      	add	sp, #48	; 0x30
 8006334:	e8bd 81f0 	ldmia.w	sp!, {r4, r5, r6, r7, r8, pc}
		spriteActiveBuffer = 0;
 8006338:	2300      	movs	r3, #0
 800633a:	e7a7      	b.n	800628c <Sprite_Draw+0x20>
		HAL_LTDC_SetAddress(&hltdc, (uint32_t)SDRAM_LCD_LAYER_1, 0);
 800633c:	2200      	movs	r2, #0
 800633e:	490d      	ldr	r1, [pc, #52]	; (8006374 <Sprite_Draw+0x108>)
 8006340:	e7f4      	b.n	800632c <Sprite_Draw+0xc0>
 8006342:	bf00      	nop
 8006344:	20000a34 	.word	0x20000a34
 8006348:	2000051c 	.word	0x2000051c
 800634c:	20000a3a 	.word	0x20000a3a
 8006350:	20000a40 	.word	0x20000a40
 8006354:	080155d9 	.word	0x080155d9
 8006358:	20000a3c 	.word	0x20000a3c
 800635c:	080155ea 	.word	0x080155ea
 8006360:	080155f7 	.word	0x080155f7
 8006364:	20000504 	.word	0x20000504
 8006368:	20000534 	.word	0x20000534
 800636c:	d0020000 	.word	0xd0020000
 8006370:	20000b9c 	.word	0x20000b9c
 8006374:	d0040000 	.word	0xd0040000

08006378 <Sprite_GetNumPlayers>:
}
 8006378:	4b01      	ldr	r3, [pc, #4]	; (8006380 <Sprite_GetNumPlayers+0x8>)
 800637a:	7818      	ldrb	r0, [r3, #0]
 800637c:	4770      	bx	lr
 800637e:	bf00      	nop
 8006380:	2000051c 	.word	0x2000051c

08006384 <Sprite_GetNumTiles>:
{
 8006384:	2300      	movs	r3, #0
		if (mTile[i].life == 1)
 8006386:	4a07      	ldr	r2, [pc, #28]	; (80063a4 <Sprite_GetNumTiles+0x20>)
	uint16_t count = 0;
 8006388:	4618      	mov	r0, r3
		if (mTile[i].life == 1)
 800638a:	5c99      	ldrb	r1, [r3, r2]
 800638c:	2901      	cmp	r1, #1
			count++;
 800638e:	bf08      	it	eq
 8006390:	3001      	addeq	r0, #1
 8006392:	f103 0320 	add.w	r3, r3, #32
 8006396:	bf08      	it	eq
 8006398:	b280      	uxtheq	r0, r0
	for (int i = 0 ; i < NUM_TILES ; i++)
 800639a:	f5b3 6fa0 	cmp.w	r3, #1280	; 0x500
 800639e:	d1f4      	bne.n	800638a <Sprite_GetNumTiles+0x6>
}
 80063a0:	4770      	bx	lr
 80063a2:	bf00      	nop
 80063a4:	20000534 	.word	0x20000534

080063a8 <Sprite_GameMode_SetMode>:
	if ((mode >= GAME_MODE_DEMO) && (mode <= GAME_MODE_SLIDE_POT))
 80063a8:	2802      	cmp	r0, #2
 80063aa:	d801      	bhi.n	80063b0 <Sprite_GameMode_SetMode+0x8>
 80063ac:	f7ff beee 	b.w	800618c <Sprite_GameMode_SetMode.part.0>
 80063b0:	4770      	bx	lr
	...

080063b4 <Sprite_GameMode_ToggleMode>:
	switch(spriteGameMode)
 80063b4:	4b06      	ldr	r3, [pc, #24]	; (80063d0 <Sprite_GameMode_ToggleMode+0x1c>)
 80063b6:	781a      	ldrb	r2, [r3, #0]
 80063b8:	2a01      	cmp	r2, #1
 80063ba:	d006      	beq.n	80063ca <Sprite_GameMode_ToggleMode+0x16>
 80063bc:	bf2c      	ite	cs
 80063be:	2200      	movcs	r2, #0
			spriteGameMode = GAME_MODE_TOUCH_SCREEN;
 80063c0:	2201      	movcc	r2, #1
			spriteGameMode = GAME_MODE_SLIDE_POT;
 80063c2:	701a      	strb	r2, [r3, #0]
	Sprite_GameMode_SetMode(spriteGameMode);
 80063c4:	7818      	ldrb	r0, [r3, #0]
 80063c6:	f7ff bfef 	b.w	80063a8 <Sprite_GameMode_SetMode>
			spriteGameMode = GAME_MODE_SLIDE_POT;
 80063ca:	2202      	movs	r2, #2
 80063cc:	e7f9      	b.n	80063c2 <Sprite_GameMode_ToggleMode+0xe>
 80063ce:	bf00      	nop
 80063d0:	20000a3c 	.word	0x20000a3c

080063d4 <Sprite_GameSpeedIncrease>:
	if (spriteGameSpeed == GAME_SPEED_LOW)
 80063d4:	4b03      	ldr	r3, [pc, #12]	; (80063e4 <Sprite_GameSpeedIncrease+0x10>)
 80063d6:	781a      	ldrb	r2, [r3, #0]
 80063d8:	2a01      	cmp	r2, #1
		spriteGameSpeed = GAME_SPEED_MEDIUM;
 80063da:	bf0c      	ite	eq
 80063dc:	2202      	moveq	r2, #2
		spriteGameSpeed = GAME_SPEED_FAST;
 80063de:	2203      	movne	r2, #3
 80063e0:	701a      	strb	r2, [r3, #0]
 80063e2:	4770      	bx	lr
 80063e4:	2000040c 	.word	0x2000040c

080063e8 <Sprite_IncreaseGameLevel>:
	spriteGameLevel++;
 80063e8:	4a02      	ldr	r2, [pc, #8]	; (80063f4 <Sprite_IncreaseGameLevel+0xc>)
 80063ea:	8813      	ldrh	r3, [r2, #0]
 80063ec:	3301      	adds	r3, #1
 80063ee:	8013      	strh	r3, [r2, #0]
	Sprite_GameSpeedIncrease();
 80063f0:	f7ff bff0 	b.w	80063d4 <Sprite_GameSpeedIncrease>
 80063f4:	20000a3a 	.word	0x20000a3a

080063f8 <Sprite_SetPlayerX>:
//set x position of the player, range
//screen left to right, and adjusted here
//for width of the player
void Sprite_SetPlayerX(uint16_t xPos)
{
	if (xPos < (mPlayer.sizeX / 2))
 80063f8:	4a07      	ldr	r2, [pc, #28]	; (8006418 <Sprite_SetPlayerX+0x20>)
 80063fa:	68d3      	ldr	r3, [r2, #12]
 80063fc:	0859      	lsrs	r1, r3, #1
 80063fe:	4288      	cmp	r0, r1
 8006400:	d202      	bcs.n	8006408 <Sprite_SetPlayerX+0x10>
		mPlayer.x = 0;
 8006402:	2300      	movs	r3, #0
	else if (xPos > (SCREEN_RIGHT - mPlayer.sizeX))
		mPlayer.x = SCREEN_RIGHT - mPlayer.sizeX;
 8006404:	6053      	str	r3, [r2, #4]
 8006406:	4770      	bx	lr
	else if (xPos > (SCREEN_RIGHT - mPlayer.sizeX))
 8006408:	f1c3 03e7 	rsb	r3, r3, #231	; 0xe7
 800640c:	4298      	cmp	r0, r3
 800640e:	d8f9      	bhi.n	8006404 <Sprite_SetPlayerX+0xc>
	else
		mPlayer.x = xPos - (mPlayer.sizeX / 2);
 8006410:	1a40      	subs	r0, r0, r1
 8006412:	6050      	str	r0, [r2, #4]
 8006414:	4770      	bx	lr
 8006416:	bf00      	nop
 8006418:	2000051c 	.word	0x2000051c

0800641c <Sprite_Player_Move>:
	if (spriteGameMode == GAME_MODE_DEMO)
 800641c:	4b13      	ldr	r3, [pc, #76]	; (800646c <Sprite_Player_Move+0x50>)
{
 800641e:	b513      	push	{r0, r1, r4, lr}
	if (spriteGameMode == GAME_MODE_DEMO)
 8006420:	7819      	ldrb	r1, [r3, #0]
 8006422:	b989      	cbnz	r1, 8006448 <Sprite_Player_Move+0x2c>
		if (mBall.x < (mPlayer.sizeX / 2))
 8006424:	4812      	ldr	r0, [pc, #72]	; (8006470 <Sprite_Player_Move+0x54>)
 8006426:	4b13      	ldr	r3, [pc, #76]	; (8006474 <Sprite_Player_Move+0x58>)
 8006428:	68c2      	ldr	r2, [r0, #12]
 800642a:	681b      	ldr	r3, [r3, #0]
 800642c:	0854      	lsrs	r4, r2, #1
 800642e:	42a3      	cmp	r3, r4
 8006430:	d202      	bcs.n	8006438 <Sprite_Player_Move+0x1c>
			mPlayer.x = 0;
 8006432:	6041      	str	r1, [r0, #4]
}
 8006434:	b002      	add	sp, #8
 8006436:	bd10      	pop	{r4, pc}
		else if (mBall.x > (SCREEN_RIGHT - mPlayer.sizeX))
 8006438:	f1c2 02e7 	rsb	r2, r2, #231	; 0xe7
 800643c:	4293      	cmp	r3, r2
			mPlayer.x = mBall.x - (mPlayer.sizeX / 2);
 800643e:	bf96      	itet	ls
 8006440:	1b1b      	subls	r3, r3, r4
			mPlayer.x = SCREEN_RIGHT - mPlayer.sizeX;
 8006442:	6042      	strhi	r2, [r0, #4]
			mPlayer.x = mBall.x - (mPlayer.sizeX / 2);
 8006444:	6043      	strls	r3, [r0, #4]
 8006446:	e7f5      	b.n	8006434 <Sprite_Player_Move+0x18>
	else if (spriteGameMode == GAME_MODE_TOUCH_SCREEN)
 8006448:	2901      	cmp	r1, #1
 800644a:	d109      	bne.n	8006460 <Sprite_Player_Move+0x44>
		data = TouchPanel_getPosition();
 800644c:	4668      	mov	r0, sp
 800644e:	f000 fa2f 	bl	80068b0 <TouchPanel_getPosition>
		Sprite_SetPlayerX(data.xPos);
 8006452:	f8bd 0000 	ldrh.w	r0, [sp]
}
 8006456:	b002      	add	sp, #8
 8006458:	e8bd 4010 	ldmia.w	sp!, {r4, lr}
		Sprite_SetPlayerX(adcPosition);
 800645c:	f7ff bfcc 	b.w	80063f8 <Sprite_SetPlayerX>
	else if (spriteGameMode == GAME_MODE_SLIDE_POT)
 8006460:	2902      	cmp	r1, #2
 8006462:	d1e7      	bne.n	8006434 <Sprite_Player_Move+0x18>
		adcPosition = SlidePot_ReadPosition();
 8006464:	f7fa fef2 	bl	800124c <SlidePot_ReadPosition>
 8006468:	e7f5      	b.n	8006456 <Sprite_Player_Move+0x3a>
 800646a:	bf00      	nop
 800646c:	20000a3c 	.word	0x20000a3c
 8006470:	2000051c 	.word	0x2000051c
 8006474:	20000504 	.word	0x20000504

08006478 <Sprite_GetReboundAngle>:
//object direction and a surface.  for now, only
//allow surfaces that are horiz and vertical.
//This is probably the case with all pong objects
SpriteDirection_t Sprite_GetReboundAngle(SpriteDirection_t object, SurfaceOrientation_t orientation)
{
	if (orientation == SURFACE_HORIZONTAL)
 8006478:	b979      	cbnz	r1, 800649a <Sprite_GetReboundAngle+0x22>
	{
		switch(object)
 800647a:	280f      	cmp	r0, #15
 800647c:	d833      	bhi.n	80064e6 <Sprite_GetReboundAngle+0x6e>
 800647e:	e8df f000 	tbb	[pc, r0]
 8006482:	2635      	.short	0x2635
 8006484:	2c082a28 	.word	0x2c082a28
 8006488:	1a35302e 	.word	0x1a35302e
 800648c:	200a1e1c 	.word	0x200a1e1c
 8006490:	2422      	.short	0x2422

			case SPRITE_DIRECTION_0:	return	SPRITE_DIRECTION_0;
			case SPRITE_DIRECTION_26:	return	SPRITE_DIRECTION_333;
			case SPRITE_DIRECTION_45:	return	SPRITE_DIRECTION_315;
			case SPRITE_DIRECTION_63:	return	SPRITE_DIRECTION_296;
			case SPRITE_DIRECTION_90:	return	SPRITE_DIRECTION_270;
 8006492:	200c      	movs	r0, #12
 8006494:	4770      	bx	lr
			case SPRITE_DIRECTION_153:	return	SPRITE_DIRECTION_206;
			case SPRITE_DIRECTION_180:	return	SPRITE_DIRECTION_180;
			case SPRITE_DIRECTION_206:	return	SPRITE_DIRECTION_153;
			case SPRITE_DIRECTION_225:	return	SPRITE_DIRECTION_135;
			case SPRITE_DIRECTION_243:	return	SPRITE_DIRECTION_116;
			case SPRITE_DIRECTION_270:	return	SPRITE_DIRECTION_90;
 8006496:	2004      	movs	r0, #4
 8006498:	4770      	bx	lr
			case SPRITE_DIRECTION_296:	return	SPRITE_DIRECTION_63;
			case SPRITE_DIRECTION_315:	return	SPRITE_DIRECTION_45;
			case SPRITE_DIRECTION_333:	return	SPRITE_DIRECTION_26;
		}
	}
	else if (orientation == SURFACE_VERTICAL)
 800649a:	2901      	cmp	r1, #1
 800649c:	d123      	bne.n	80064e6 <Sprite_GetReboundAngle+0x6e>
	{
		switch(object)
 800649e:	280f      	cmp	r0, #15
 80064a0:	d821      	bhi.n	80064e6 <Sprite_GetReboundAngle+0x6e>
 80064a2:	e8df f000 	tbb	[pc, r0]
 80064a6:	0822      	.short	0x0822
 80064a8:	0e230c0a 	.word	0x0e230c0a
 80064ac:	14201210 	.word	0x14201210
 80064b0:	1a231816 	.word	0x1a231816
 80064b4:	1e1c      	.short	0x1e1c
		{
			case SPRITE_DIRECTION_0:	return	SPRITE_DIRECTION_180;
			case SPRITE_DIRECTION_26:	return	SPRITE_DIRECTION_153;
 80064b6:	2007      	movs	r0, #7
 80064b8:	4770      	bx	lr
			case SPRITE_DIRECTION_45:	return	SPRITE_DIRECTION_135;
 80064ba:	2006      	movs	r0, #6
 80064bc:	4770      	bx	lr
			case SPRITE_DIRECTION_63:	return	SPRITE_DIRECTION_116;
 80064be:	2005      	movs	r0, #5
 80064c0:	4770      	bx	lr
			case SPRITE_DIRECTION_90:	return	SPRITE_DIRECTION_90;
			case SPRITE_DIRECTION_116:	return	SPRITE_DIRECTION_63;
 80064c2:	2003      	movs	r0, #3
 80064c4:	4770      	bx	lr
			case SPRITE_DIRECTION_135:	return	SPRITE_DIRECTION_45;
 80064c6:	2002      	movs	r0, #2
 80064c8:	4770      	bx	lr
			case SPRITE_DIRECTION_153:	return	SPRITE_DIRECTION_26;
 80064ca:	2001      	movs	r0, #1
 80064cc:	4770      	bx	lr
			case SPRITE_DIRECTION_180:	return	SPRITE_DIRECTION_0;
			case SPRITE_DIRECTION_206:	return	SPRITE_DIRECTION_333;
 80064ce:	200f      	movs	r0, #15
 80064d0:	4770      	bx	lr
			case SPRITE_DIRECTION_225:	return	SPRITE_DIRECTION_315;
 80064d2:	200e      	movs	r0, #14
 80064d4:	4770      	bx	lr
			case SPRITE_DIRECTION_243:	return	SPRITE_DIRECTION_296;
 80064d6:	200d      	movs	r0, #13
 80064d8:	4770      	bx	lr
			case SPRITE_DIRECTION_270:	return	SPRITE_DIRECTION_270;
			case SPRITE_DIRECTION_296:	return	SPRITE_DIRECTION_243;
 80064da:	200b      	movs	r0, #11
 80064dc:	4770      	bx	lr
			case SPRITE_DIRECTION_315:	return	SPRITE_DIRECTION_225;
 80064de:	200a      	movs	r0, #10
 80064e0:	4770      	bx	lr
			case SPRITE_DIRECTION_333:	return	SPRITE_DIRECTION_206;
 80064e2:	2009      	movs	r0, #9
 80064e4:	4770      	bx	lr
	else
	{
		//do nothing
	}

	return SPRITE_DIRECTION_0;
 80064e6:	2000      	movs	r0, #0
 80064e8:	4770      	bx	lr
			case SPRITE_DIRECTION_0:	return	SPRITE_DIRECTION_180;
 80064ea:	2008      	movs	r0, #8
}
 80064ec:	4770      	bx	lr
	...

080064f0 <Sprite_Get_DX_FromAngle>:

int Sprite_Get_DX_FromAngle(SpriteDirection_t angle)
{
 80064f0:	3803      	subs	r0, #3
 80064f2:	b2c0      	uxtb	r0, r0
 80064f4:	280a      	cmp	r0, #10
 80064f6:	bf9a      	itte	ls
 80064f8:	4b01      	ldrls	r3, [pc, #4]	; (8006500 <Sprite_Get_DX_FromAngle+0x10>)
 80064fa:	5618      	ldrsbls	r0, [r3, r0]
 80064fc:	2002      	movhi	r0, #2
		case SPRITE_DIRECTION_315:	return 2;
		case SPRITE_DIRECTION_333:	return 2;
	}

	return 2;
}
 80064fe:	4770      	bx	lr
 8006500:	0801559c 	.word	0x0801559c

08006504 <Sprite_Get_DY_FromAngle>:


//////////////////////////////////////////
//y positive down
int Sprite_Get_DY_FromAngle(SpriteDirection_t angle)
{
 8006504:	3801      	subs	r0, #1
 8006506:	b2c0      	uxtb	r0, r0
 8006508:	280e      	cmp	r0, #14
 800650a:	bf9a      	itte	ls
 800650c:	4b01      	ldrls	r3, [pc, #4]	; (8006514 <Sprite_Get_DY_FromAngle+0x10>)
 800650e:	5618      	ldrsbls	r0, [r3, r0]
 8006510:	2000      	movhi	r0, #0
		case SPRITE_DIRECTION_315:	return 2;
		case SPRITE_DIRECTION_333:	return 1;
	}

	return 0;
}
 8006512:	4770      	bx	lr
 8006514:	080155a7 	.word	0x080155a7

08006518 <Sprite_Ball_Move>:
{
 8006518:	e92d 4ff7 	stmdb	sp!, {r0, r1, r2, r4, r5, r6, r7, r8, r9, sl, fp, lr}
	SpriteDirection_t updated = mBall.angle;
 800651c:	4f76      	ldr	r7, [pc, #472]	; (80066f8 <Sprite_Ball_Move+0x1e0>)
	tLeft = mPlayer.x;
 800651e:	f8df c1f0 	ldr.w	ip, [pc, #496]	; 8006710 <Sprite_Ball_Move+0x1f8>
	bLeft = mBall.x;
 8006522:	683e      	ldr	r6, [r7, #0]
	bRight = mBall.x + mBall.sizeX;
 8006524:	68bd      	ldr	r5, [r7, #8]
	bBot = mBall.y + mBall.sizeY;
 8006526:	f8d7 e004 	ldr.w	lr, [r7, #4]
 800652a:	68f8      	ldr	r0, [r7, #12]
	tLeft = mPlayer.x;
 800652c:	f8dc 2004 	ldr.w	r2, [ip, #4]
	SpriteDirection_t updated = mBall.angle;
 8006530:	7c3c      	ldrb	r4, [r7, #16]
	bRight = mBall.x + mBall.sizeX;
 8006532:	4435      	add	r5, r6
	bX = (bLeft + bRight) / 2;
 8006534:	1971      	adds	r1, r6, r5
 8006536:	0849      	lsrs	r1, r1, #1
	bBot = mBall.y + mBall.sizeY;
 8006538:	eb00 030e 	add.w	r3, r0, lr
	if ((bX >= tLeft) && (bX <= tRight) && (bBot >= tTop) && (bBot <= (tTop + 4))
 800653c:	4291      	cmp	r1, r2
	bBot = mBall.y + mBall.sizeY;
 800653e:	9300      	str	r3, [sp, #0]
	if ((bX >= tLeft) && (bX <= tRight) && (bBot >= tTop) && (bBot <= (tTop + 4))
 8006540:	d339      	bcc.n	80065b6 <Sprite_Ball_Move+0x9e>
	tRight = mPlayer.x + mPlayer.sizeX;
 8006542:	f8dc 300c 	ldr.w	r3, [ip, #12]
 8006546:	4413      	add	r3, r2
	if ((bX >= tLeft) && (bX <= tRight) && (bBot >= tTop) && (bBot <= (tTop + 4))
 8006548:	4299      	cmp	r1, r3
 800654a:	d834      	bhi.n	80065b6 <Sprite_Ball_Move+0x9e>
	tTop = mPlayer.y;
 800654c:	f8dc 3008 	ldr.w	r3, [ip, #8]
	if ((bX >= tLeft) && (bX <= tRight) && (bBot >= tTop) && (bBot <= (tTop + 4))
 8006550:	9a00      	ldr	r2, [sp, #0]
 8006552:	429a      	cmp	r2, r3
 8006554:	d32f      	bcc.n	80065b6 <Sprite_Ball_Move+0x9e>
 8006556:	3304      	adds	r3, #4
 8006558:	429a      	cmp	r2, r3
 800655a:	d82c      	bhi.n	80065b6 <Sprite_Ball_Move+0x9e>
			&& (mBall.angle > SPRITE_DIRECTION_180))
 800655c:	2c08      	cmp	r4, #8
 800655e:	d92a      	bls.n	80065b6 <Sprite_Ball_Move+0x9e>
		Sound_Play_PlayerBounce();
 8006560:	f7ff fcf4 	bl	8005f4c <Sound_Play_PlayerBounce>
		if (bLeft <= SCREEN_LEFT)
 8006564:	2e08      	cmp	r6, #8
 8006566:	f240 80b5 	bls.w	80066d4 <Sprite_Ball_Move+0x1bc>
		else if (bRight >= SCREEN_RIGHT)
 800656a:	2de6      	cmp	r5, #230	; 0xe6
 800656c:	f200 80b4 	bhi.w	80066d8 <Sprite_Ball_Move+0x1c0>
			updated = Sprite_GetReboundAngle(mBall.angle, SURFACE_HORIZONTAL);
 8006570:	2100      	movs	r1, #0
 8006572:	7c38      	ldrb	r0, [r7, #16]
 8006574:	f7ff ff80 	bl	8006478 <Sprite_GetReboundAngle>
 8006578:	4604      	mov	r4, r0
	mBall.angle = updated;
 800657a:	4e5f      	ldr	r6, [pc, #380]	; (80066f8 <Sprite_Ball_Move+0x1e0>)
	dx = Sprite_Get_DX_FromAngle(updated);
 800657c:	4620      	mov	r0, r4
	mBall.angle = updated;
 800657e:	7434      	strb	r4, [r6, #16]
	dx = Sprite_Get_DX_FromAngle(updated);
 8006580:	f7ff ffb6 	bl	80064f0 <Sprite_Get_DX_FromAngle>
 8006584:	4607      	mov	r7, r0
	dy = Sprite_Get_DY_FromAngle(updated);
 8006586:	4620      	mov	r0, r4
 8006588:	f7ff ffbc 	bl	8006504 <Sprite_Get_DY_FromAngle>
	return spriteGameSpeed;
 800658c:	4b5b      	ldr	r3, [pc, #364]	; (80066fc <Sprite_Ball_Move+0x1e4>)
	int multiplier = (int)Sprite_GetGameSpeed();
 800658e:	781b      	ldrb	r3, [r3, #0]
	if ((dx < 0) && (mBall.x <=SCREEN_LEFT))
 8006590:	2f00      	cmp	r7, #0
 8006592:	4634      	mov	r4, r6
 8006594:	fb03 f000 	mul.w	r0, r3, r0
 8006598:	f280 80a0 	bge.w	80066dc <Sprite_Ball_Move+0x1c4>
 800659c:	6835      	ldr	r5, [r6, #0]
 800659e:	2d08      	cmp	r5, #8
 80065a0:	f200 809c 	bhi.w	80066dc <Sprite_Ball_Move+0x1c4>
		mBall.x += ((-1*dx) * multiplier);
 80065a4:	fb07 5113 	mls	r1, r7, r3, r5
 80065a8:	6031      	str	r1, [r6, #0]
		mBall.y += (dy * multiplier);
 80065aa:	6871      	ldr	r1, [r6, #4]
 80065ac:	4401      	add	r1, r0
 80065ae:	6071      	str	r1, [r6, #4]
}
 80065b0:	b003      	add	sp, #12
 80065b2:	e8bd 8ff0 	ldmia.w	sp!, {r4, r5, r6, r7, r8, r9, sl, fp, pc}
	else if (bTop >= SCREEN_BOTTOM)
 80065b6:	f5be 7f9b 	cmp.w	lr, #310	; 0x136
 80065ba:	d903      	bls.n	80065c4 <Sprite_Ball_Move+0xac>
		spriteBallMissedFlag = 1;
 80065bc:	4b50      	ldr	r3, [pc, #320]	; (8006700 <Sprite_Ball_Move+0x1e8>)
 80065be:	2201      	movs	r2, #1
 80065c0:	701a      	strb	r2, [r3, #0]
 80065c2:	e7da      	b.n	800657a <Sprite_Ball_Move+0x62>
	else if ((bTop <= SCREEN_TOP) && (bLeft <= SCREEN_LEFT))
 80065c4:	f1be 0f08 	cmp.w	lr, #8
 80065c8:	d80c      	bhi.n	80065e4 <Sprite_Ball_Move+0xcc>
 80065ca:	2e08      	cmp	r6, #8
 80065cc:	f240 8090 	bls.w	80066f0 <Sprite_Ball_Move+0x1d8>
	else if ((bTop <= SCREEN_TOP) && (bRight >= SCREEN_RIGHT))
 80065d0:	2de6      	cmp	r5, #230	; 0xe6
 80065d2:	d81f      	bhi.n	8006614 <Sprite_Ball_Move+0xfc>
		updated = Sprite_GetReboundAngle(mBall.angle, SURFACE_HORIZONTAL);
 80065d4:	2100      	movs	r1, #0
			updated = Sprite_GetReboundAngle(mBall.angle, SURFACE_VERTICAL);
 80065d6:	4620      	mov	r0, r4
 80065d8:	f7ff ff4e 	bl	8006478 <Sprite_GetReboundAngle>
 80065dc:	4604      	mov	r4, r0
		Sound_Play_PlayerBounce();
 80065de:	f7ff fcb5 	bl	8005f4c <Sound_Play_PlayerBounce>
 80065e2:	e7ca      	b.n	800657a <Sprite_Ball_Move+0x62>
	else if (bLeft <= SCREEN_LEFT)
 80065e4:	2e08      	cmp	r6, #8
 80065e6:	d80a      	bhi.n	80065fe <Sprite_Ball_Move+0xe6>
		if ((mBall.angle == SPRITE_DIRECTION_90) || (mBall.angle == SPRITE_DIRECTION_116))
 80065e8:	1f23      	subs	r3, r4, #4
 80065ea:	b2db      	uxtb	r3, r3
 80065ec:	2b01      	cmp	r3, #1
 80065ee:	d97d      	bls.n	80066ec <Sprite_Ball_Move+0x1d4>
		else if ((mBall.angle == SPRITE_DIRECTION_270) || (mBall.angle == SPRITE_DIRECTION_243))
 80065f0:	f1a4 030b 	sub.w	r3, r4, #11
 80065f4:	b2db      	uxtb	r3, r3
 80065f6:	2b01      	cmp	r3, #1
 80065f8:	d97a      	bls.n	80066f0 <Sprite_Ball_Move+0x1d8>
			updated = Sprite_GetReboundAngle(mBall.angle, SURFACE_VERTICAL);
 80065fa:	2101      	movs	r1, #1
 80065fc:	e7eb      	b.n	80065d6 <Sprite_Ball_Move+0xbe>
	else if (bRight >= SCREEN_RIGHT)
 80065fe:	2de6      	cmp	r5, #230	; 0xe6
 8006600:	d90a      	bls.n	8006618 <Sprite_Ball_Move+0x100>
		if ((mBall.angle == SPRITE_DIRECTION_90) || (mBall.angle == SPRITE_DIRECTION_63))
 8006602:	1ee3      	subs	r3, r4, #3
 8006604:	b2db      	uxtb	r3, r3
 8006606:	2b01      	cmp	r3, #1
 8006608:	d974      	bls.n	80066f4 <Sprite_Ball_Move+0x1dc>
		else if ((mBall.angle == SPRITE_DIRECTION_270) || (mBall.angle == SPRITE_DIRECTION_296))
 800660a:	f1a4 030c 	sub.w	r3, r4, #12
 800660e:	b2db      	uxtb	r3, r3
 8006610:	2b01      	cmp	r3, #1
 8006612:	d8f2      	bhi.n	80065fa <Sprite_Ball_Move+0xe2>
		updated = SPRITE_DIRECTION_225;
 8006614:	240a      	movs	r4, #10
 8006616:	e7e2      	b.n	80065de <Sprite_Ball_Move+0xc6>
	bY = (bTop + bBot) / 2;
 8006618:	9b00      	ldr	r3, [sp, #0]
		spriteBallMissedFlag = 0;
 800661a:	4a39      	ldr	r2, [pc, #228]	; (8006700 <Sprite_Ball_Move+0x1e8>)
	bY = (bTop + bBot) / 2;
 800661c:	eb0e 0c03 	add.w	ip, lr, r3
		spriteBallMissedFlag = 0;
 8006620:	2300      	movs	r3, #0
 8006622:	7013      	strb	r3, [r2, #0]
 8006624:	4a37      	ldr	r2, [pc, #220]	; (8006704 <Sprite_Ball_Move+0x1ec>)
	bY = (bTop + bBot) / 2;
 8006626:	ea4f 0c5c 	mov.w	ip, ip, lsr #1
			if (mTile[i].life == 1)
 800662a:	7817      	ldrb	r7, [r2, #0]
 800662c:	2f01      	cmp	r7, #1
 800662e:	d14b      	bne.n	80066c8 <Sprite_Ball_Move+0x1b0>
				tBot = mTile[i].y + mTile[i].sizeY;
 8006630:	f8d2 8008 	ldr.w	r8, [r2, #8]
 8006634:	6917      	ldr	r7, [r2, #16]
				tRight = mTile[i].x + mTile[i].sizeX;
 8006636:	68d0      	ldr	r0, [r2, #12]
				tBot = mTile[i].y + mTile[i].sizeY;
 8006638:	eb08 0907 	add.w	r9, r8, r7
				tLeft = mTile[i].x;
 800663c:	6857      	ldr	r7, [r2, #4]
				tRight = mTile[i].x + mTile[i].sizeX;
 800663e:	eb07 0a00 	add.w	sl, r7, r0
				tX = (tLeft + tRight) / 2;
 8006642:	eb07 0b0a 	add.w	fp, r7, sl
 8006646:	ea4f 005b 	mov.w	r0, fp, lsr #1
				if ((bTop <= tBot) && (bTop >= tY) && (bX >= tLeft) && (bX <= tRight))
 800664a:	45ce      	cmp	lr, r9
				tY = (tTop + tBot) / 2;
 800664c:	eb08 0b09 	add.w	fp, r8, r9
				tX = (tLeft + tRight) / 2;
 8006650:	9001      	str	r0, [sp, #4]
				tY = (tTop + tBot) / 2;
 8006652:	ea4f 0b5b 	mov.w	fp, fp, lsr #1
				if ((bTop <= tBot) && (bTop >= tY) && (bX >= tLeft) && (bX <= tRight))
 8006656:	d819      	bhi.n	800668c <Sprite_Ball_Move+0x174>
 8006658:	45de      	cmp	lr, fp
 800665a:	d317      	bcc.n	800668c <Sprite_Ball_Move+0x174>
 800665c:	42b9      	cmp	r1, r7
 800665e:	d315      	bcc.n	800668c <Sprite_Ball_Move+0x174>
 8006660:	4551      	cmp	r1, sl
 8006662:	d813      	bhi.n	800668c <Sprite_Ball_Move+0x174>
					tileIndex = i;
 8006664:	b2dd      	uxtb	r5, r3
					updated = Sprite_GetReboundAngle(mBall.angle, SURFACE_HORIZONTAL);
 8006666:	2100      	movs	r1, #0
					updated = Sprite_GetReboundAngle(mBall.angle, SURFACE_VERTICAL);
 8006668:	4620      	mov	r0, r4
 800666a:	f7ff ff05 	bl	8006478 <Sprite_GetReboundAngle>
		mTile[tileIndex].life = 0;				//set life to 0
 800666e:	4a25      	ldr	r2, [pc, #148]	; (8006704 <Sprite_Ball_Move+0x1ec>)
 8006670:	016b      	lsls	r3, r5, #5
					updated = Sprite_GetReboundAngle(mBall.angle, SURFACE_VERTICAL);
 8006672:	4604      	mov	r4, r0
		mTile[tileIndex].life = 0;				//set life to 0
 8006674:	4823      	ldr	r0, [pc, #140]	; (8006704 <Sprite_Ball_Move+0x1ec>)
 8006676:	18d1      	adds	r1, r2, r3
 8006678:	2200      	movs	r2, #0
 800667a:	54c2      	strb	r2, [r0, r3]
		spriteGameScore += mTile[tileIndex].points;
 800667c:	4a22      	ldr	r2, [pc, #136]	; (8006708 <Sprite_Ball_Move+0x1f0>)
		mTile[tileIndex].image = &imgTileBlank;	//clear the image
 800667e:	4b23      	ldr	r3, [pc, #140]	; (800670c <Sprite_Ball_Move+0x1f4>)
 8006680:	61cb      	str	r3, [r1, #28]
		spriteGameScore += mTile[tileIndex].points;
 8006682:	8a8b      	ldrh	r3, [r1, #20]
 8006684:	6811      	ldr	r1, [r2, #0]
 8006686:	440b      	add	r3, r1
 8006688:	6013      	str	r3, [r2, #0]
 800668a:	e7a8      	b.n	80065de <Sprite_Ball_Move+0xc6>
				else if ((bBot >= tTop) && (bBot <= tY) && (bX >= tLeft) && (bX <= tRight))
 800668c:	9800      	ldr	r0, [sp, #0]
 800668e:	4540      	cmp	r0, r8
 8006690:	d305      	bcc.n	800669e <Sprite_Ball_Move+0x186>
 8006692:	4558      	cmp	r0, fp
 8006694:	d803      	bhi.n	800669e <Sprite_Ball_Move+0x186>
 8006696:	42b9      	cmp	r1, r7
 8006698:	d301      	bcc.n	800669e <Sprite_Ball_Move+0x186>
 800669a:	4551      	cmp	r1, sl
 800669c:	d9e2      	bls.n	8006664 <Sprite_Ball_Move+0x14c>
				else if ((bRight >= tLeft) && (bRight <= tX) && (bY >= tTop) && (bY <= tBot))
 800669e:	42bd      	cmp	r5, r7
 80066a0:	d309      	bcc.n	80066b6 <Sprite_Ball_Move+0x19e>
 80066a2:	9801      	ldr	r0, [sp, #4]
 80066a4:	4285      	cmp	r5, r0
 80066a6:	d806      	bhi.n	80066b6 <Sprite_Ball_Move+0x19e>
 80066a8:	45c4      	cmp	ip, r8
 80066aa:	d304      	bcc.n	80066b6 <Sprite_Ball_Move+0x19e>
 80066ac:	45cc      	cmp	ip, r9
 80066ae:	d802      	bhi.n	80066b6 <Sprite_Ball_Move+0x19e>
					tileIndex = i;
 80066b0:	b2dd      	uxtb	r5, r3
					updated = Sprite_GetReboundAngle(mBall.angle, SURFACE_VERTICAL);
 80066b2:	2101      	movs	r1, #1
 80066b4:	e7d8      	b.n	8006668 <Sprite_Ball_Move+0x150>
				else if ((bLeft <= tRight) && (bLeft >= tX) && (bY >= tTop) && (bY <= tBot))
 80066b6:	4556      	cmp	r6, sl
 80066b8:	d806      	bhi.n	80066c8 <Sprite_Ball_Move+0x1b0>
 80066ba:	9801      	ldr	r0, [sp, #4]
 80066bc:	4286      	cmp	r6, r0
 80066be:	d303      	bcc.n	80066c8 <Sprite_Ball_Move+0x1b0>
 80066c0:	45c4      	cmp	ip, r8
 80066c2:	d301      	bcc.n	80066c8 <Sprite_Ball_Move+0x1b0>
 80066c4:	45cc      	cmp	ip, r9
 80066c6:	d9f3      	bls.n	80066b0 <Sprite_Ball_Move+0x198>
		for (int i = 0 ; i < NUM_TILES ; i++)
 80066c8:	3301      	adds	r3, #1
 80066ca:	2b28      	cmp	r3, #40	; 0x28
 80066cc:	f102 0220 	add.w	r2, r2, #32
 80066d0:	d1ab      	bne.n	800662a <Sprite_Ball_Move+0x112>
 80066d2:	e752      	b.n	800657a <Sprite_Ball_Move+0x62>
			updated = SPRITE_DIRECTION_45;
 80066d4:	2402      	movs	r4, #2
 80066d6:	e750      	b.n	800657a <Sprite_Ball_Move+0x62>
			updated = SPRITE_DIRECTION_135;
 80066d8:	2406      	movs	r4, #6
 80066da:	e74e      	b.n	800657a <Sprite_Ball_Move+0x62>
		mBall.x += (dx * multiplier);
 80066dc:	6822      	ldr	r2, [r4, #0]
 80066de:	fb03 2107 	mla	r1, r3, r7, r2
		mBall.y += (dy * multiplier);
 80066e2:	6863      	ldr	r3, [r4, #4]
		mBall.x += (dx * multiplier);
 80066e4:	6021      	str	r1, [r4, #0]
		mBall.y += (dy * multiplier);
 80066e6:	4403      	add	r3, r0
 80066e8:	6063      	str	r3, [r4, #4]
}
 80066ea:	e761      	b.n	80065b0 <Sprite_Ball_Move+0x98>
			updated = SPRITE_DIRECTION_45;
 80066ec:	2402      	movs	r4, #2
 80066ee:	e776      	b.n	80065de <Sprite_Ball_Move+0xc6>
		updated = SPRITE_DIRECTION_315;
 80066f0:	240e      	movs	r4, #14
 80066f2:	e774      	b.n	80065de <Sprite_Ball_Move+0xc6>
			updated = SPRITE_DIRECTION_135;
 80066f4:	2406      	movs	r4, #6
 80066f6:	e772      	b.n	80065de <Sprite_Ball_Move+0xc6>
 80066f8:	20000504 	.word	0x20000504
 80066fc:	2000040c 	.word	0x2000040c
 8006700:	20000a38 	.word	0x20000a38
 8006704:	20000534 	.word	0x20000534
 8006708:	20000a40 	.word	0x20000a40
 800670c:	080081f0 	.word	0x080081f0
 8006710:	2000051c 	.word	0x2000051c

08006714 <TouchPanel_readReg1Byte>:
	//set the EN bit to enable the panel and start detecting
	TouchPanel_writeReg1Byte(TP_REG_TSC_CTRL, 0x03);
}

uint8_t TouchPanel_readReg1Byte(uint16_t reg)
{
 8006714:	b57f      	push	{r0, r1, r2, r3, r4, r5, r6, lr}
	uint8_t value = 0x00;
 8006716:	aa06      	add	r2, sp, #24
 8006718:	2300      	movs	r3, #0
 800671a:	f802 3d01 	strb.w	r3, [r2, #-1]!
	HAL_I2C_Mem_Read(&hi2c3, TOUCH_PANEL_ADDRESS, reg, 1, &value, 1, 0xFF);
 800671e:	23ff      	movs	r3, #255	; 0xff
 8006720:	9302      	str	r3, [sp, #8]
 8006722:	2301      	movs	r3, #1
 8006724:	e88d 000c 	stmia.w	sp, {r2, r3}
 8006728:	2182      	movs	r1, #130	; 0x82
 800672a:	4602      	mov	r2, r0
 800672c:	4803      	ldr	r0, [pc, #12]	; (800673c <TouchPanel_readReg1Byte+0x28>)
 800672e:	f7fc fe11 	bl	8003354 <HAL_I2C_Mem_Read>

	return value;
}
 8006732:	f89d 0017 	ldrb.w	r0, [sp, #23]
 8006736:	b007      	add	sp, #28
 8006738:	f85d fb04 	ldr.w	pc, [sp], #4
 800673c:	20000b48 	.word	0x20000b48

08006740 <TouchPanel_readReg3Bytes>:


///////////////////////////////////////////
//top 8 bits are don't care
uint32_t TouchPanel_readReg3Bytes(uint16_t reg)
{
 8006740:	b57f      	push	{r0, r1, r2, r3, r4, r5, r6, lr}
	uint8_t value[3] = {0x00, 0x00, 0x00};
 8006742:	2300      	movs	r3, #0
 8006744:	f88d 3014 	strb.w	r3, [sp, #20]
 8006748:	f88d 3015 	strb.w	r3, [sp, #21]
 800674c:	f88d 3016 	strb.w	r3, [sp, #22]
	HAL_I2C_Mem_Read(&hi2c3, TOUCH_PANEL_ADDRESS, reg, 1, value, 3, 0xFF);
 8006750:	23ff      	movs	r3, #255	; 0xff
 8006752:	9302      	str	r3, [sp, #8]
 8006754:	2303      	movs	r3, #3
 8006756:	9301      	str	r3, [sp, #4]
 8006758:	ab05      	add	r3, sp, #20
 800675a:	9300      	str	r3, [sp, #0]
 800675c:	4602      	mov	r2, r0
 800675e:	2301      	movs	r3, #1
 8006760:	2182      	movs	r1, #130	; 0x82
 8006762:	4808      	ldr	r0, [pc, #32]	; (8006784 <TouchPanel_readReg3Bytes+0x44>)
 8006764:	f7fc fdf6 	bl	8003354 <HAL_I2C_Mem_Read>

	//reads into most to least
	uint32_t result = ((uint32_t)value[0]) << 16;
	result |= ((uint32_t)value[1]) << 8;
 8006768:	f89d 3015 	ldrb.w	r3, [sp, #21]
	uint32_t result = ((uint32_t)value[0]) << 16;
 800676c:	f89d 0014 	ldrb.w	r0, [sp, #20]
	result |= ((uint32_t)value[1]) << 8;
 8006770:	021b      	lsls	r3, r3, #8
 8006772:	ea43 4300 	orr.w	r3, r3, r0, lsl #16
	result |= ((uint32_t)value[2]);
 8006776:	f89d 0016 	ldrb.w	r0, [sp, #22]

	return result;
}
 800677a:	4318      	orrs	r0, r3
 800677c:	b007      	add	sp, #28
 800677e:	f85d fb04 	ldr.w	pc, [sp], #4
 8006782:	bf00      	nop
 8006784:	20000b48 	.word	0x20000b48

08006788 <TouchPanel_writeReg1Byte>:


void TouchPanel_writeReg1Byte(uint16_t reg, uint8_t value)
{
 8006788:	b57f      	push	{r0, r1, r2, r3, r4, r5, r6, lr}
	uint8_t data = value;
 800678a:	aa06      	add	r2, sp, #24
	HAL_I2C_Mem_Write(&hi2c3, TOUCH_PANEL_ADDRESS, reg, 1, &data, 1, 0xFF);
 800678c:	23ff      	movs	r3, #255	; 0xff
	uint8_t data = value;
 800678e:	f802 1d01 	strb.w	r1, [r2, #-1]!
	HAL_I2C_Mem_Write(&hi2c3, TOUCH_PANEL_ADDRESS, reg, 1, &data, 1, 0xFF);
 8006792:	9302      	str	r3, [sp, #8]
 8006794:	2301      	movs	r3, #1
 8006796:	e88d 000c 	stmia.w	sp, {r2, r3}
 800679a:	2182      	movs	r1, #130	; 0x82
 800679c:	4602      	mov	r2, r0
 800679e:	4803      	ldr	r0, [pc, #12]	; (80067ac <TouchPanel_writeReg1Byte+0x24>)
 80067a0:	f7fc fd36 	bl	8003210 <HAL_I2C_Mem_Write>
}
 80067a4:	b007      	add	sp, #28
 80067a6:	f85d fb04 	ldr.w	pc, [sp], #4
 80067aa:	bf00      	nop
 80067ac:	20000b48 	.word	0x20000b48

080067b0 <TouchPanel_init>:
	m_touchPanelData.xPos = 0x00;
 80067b0:	4b1c      	ldr	r3, [pc, #112]	; (8006824 <TouchPanel_init+0x74>)
{
 80067b2:	b510      	push	{r4, lr}
	TouchPanel_writeReg1Byte(TP_REG_SYS_CTRL1, 0x02);		//reset, bit 1, no hibernate
 80067b4:	2102      	movs	r1, #2
	m_touchPanelData.xPos = 0x00;
 80067b6:	2400      	movs	r4, #0
	TouchPanel_writeReg1Byte(TP_REG_SYS_CTRL1, 0x02);		//reset, bit 1, no hibernate
 80067b8:	2003      	movs	r0, #3
	m_touchPanelData.xPos = 0x00;
 80067ba:	801c      	strh	r4, [r3, #0]
	m_touchPanelData.yPos = 0x00;
 80067bc:	805c      	strh	r4, [r3, #2]
	m_touchPanelData.xRawPos = 0x00;
 80067be:	809c      	strh	r4, [r3, #4]
	m_touchPanelData.yRawPos = 0x00;
 80067c0:	80dc      	strh	r4, [r3, #6]
	TouchPanel_writeReg1Byte(TP_REG_SYS_CTRL1, 0x02);		//reset, bit 1, no hibernate
 80067c2:	f7ff ffe1 	bl	8006788 <TouchPanel_writeReg1Byte>
	TouchPanel_writeReg1Byte(TP_REG_SYS_CTRL2, 0x0F);		//switch off ts, gpio, tsc, adc
 80067c6:	210f      	movs	r1, #15
 80067c8:	2004      	movs	r0, #4
 80067ca:	f7ff ffdd 	bl	8006788 <TouchPanel_writeReg1Byte>
	TouchPanel_writeReg1Byte(TP_REG_TSC_CTRL, 0x00);		//no window tracking, xy data, EN bit low
 80067ce:	4621      	mov	r1, r4
 80067d0:	2040      	movs	r0, #64	; 0x40
 80067d2:	f7ff ffd9 	bl	8006788 <TouchPanel_writeReg1Byte>
	TouchPanel_writeReg1Byte(TP_REG_TSC_CTRL, 0x02);		//no window tracking, xy data, EN bit low
 80067d6:	2102      	movs	r1, #2
 80067d8:	2040      	movs	r0, #64	; 0x40
 80067da:	f7ff ffd5 	bl	8006788 <TouchPanel_writeReg1Byte>
	TouchPanel_writeReg1Byte(TP_REG_TSC_CFG, 0x63);
 80067de:	2163      	movs	r1, #99	; 0x63
 80067e0:	2041      	movs	r0, #65	; 0x41
 80067e2:	f7ff ffd1 	bl	8006788 <TouchPanel_writeReg1Byte>
	TouchPanel_writeReg1Byte(TP_REG_TSC_FIFO_TH, 0x02);
 80067e6:	2102      	movs	r1, #2
 80067e8:	204a      	movs	r0, #74	; 0x4a
 80067ea:	f7ff ffcd 	bl	8006788 <TouchPanel_writeReg1Byte>
	TouchPanel_writeReg1Byte(TP_REG_INT_CTRL, 0x03);
 80067ee:	2103      	movs	r1, #3
 80067f0:	2009      	movs	r0, #9
 80067f2:	f7ff ffc9 	bl	8006788 <TouchPanel_writeReg1Byte>
	TouchPanel_writeReg1Byte(TP_REG_INT_EN, 0x01);
 80067f6:	2101      	movs	r1, #1
 80067f8:	200a      	movs	r0, #10
 80067fa:	f7ff ffc5 	bl	8006788 <TouchPanel_writeReg1Byte>
	TouchPanel_writeReg1Byte(TP_REG_TSC_FIFO_STA, 0x21);
 80067fe:	2121      	movs	r1, #33	; 0x21
 8006800:	204b      	movs	r0, #75	; 0x4b
 8006802:	f7ff ffc1 	bl	8006788 <TouchPanel_writeReg1Byte>
	TouchPanel_writeReg1Byte(TP_REG_TSC_FIFO_STA, 0x20);
 8006806:	2120      	movs	r1, #32
 8006808:	204b      	movs	r0, #75	; 0x4b
 800680a:	f7ff ffbd 	bl	8006788 <TouchPanel_writeReg1Byte>
	TouchPanel_writeReg1Byte(TP_REG_SYS_CTRL2, 0x00);
 800680e:	4621      	mov	r1, r4
 8006810:	2004      	movs	r0, #4
 8006812:	f7ff ffb9 	bl	8006788 <TouchPanel_writeReg1Byte>
	TouchPanel_writeReg1Byte(TP_REG_TSC_CTRL, 0x03);
 8006816:	2103      	movs	r1, #3
 8006818:	2040      	movs	r0, #64	; 0x40
}
 800681a:	e8bd 4010 	ldmia.w	sp!, {r4, lr}
	TouchPanel_writeReg1Byte(TP_REG_TSC_CTRL, 0x03);
 800681e:	f7ff bfb3 	b.w	8006788 <TouchPanel_writeReg1Byte>
 8006822:	bf00      	nop
 8006824:	20000a44 	.word	0x20000a44

08006828 <TouchPanel_GetFIFOSize>:
	uint8_t status = TouchPanel_readReg1Byte(TP_REG_TSC_FIFO_STA);
	return status;
}
uint8_t TouchPanel_GetFIFOSize(void)
{
	uint8_t level = TouchPanel_readReg1Byte(TP_REG_TSC_FIFO_SIZE);
 8006828:	204c      	movs	r0, #76	; 0x4c
 800682a:	f7ff bf73 	b.w	8006714 <TouchPanel_readReg1Byte>

0800682e <TouchPanel_readRawData>:

//reads the raw data, normalizes with respect
//to panel width and height
//
TouchPanelData TouchPanel_readRawData(void)
{
 800682e:	b570      	push	{r4, r5, r6, lr}
 8006830:	4604      	mov	r4, r0

	data.xPos = 0x00;
	data.yPos = 0x00;

	//data sets remaining in the fifo
	size = TouchPanel_readReg1Byte(TP_REG_TSC_FIFO_SIZE);
 8006832:	204c      	movs	r0, #76	; 0x4c
 8006834:	f7ff ff6e 	bl	8006714 <TouchPanel_readReg1Byte>

	//read position data if there's something to read
	if (size > 0)
 8006838:	2800      	cmp	r0, #0
 800683a:	d037      	beq.n	80068ac <TouchPanel_readRawData+0x7e>
	{
		//read 3 bytes - x and y data only
		//top 8 bits are don't care
		temp = TouchPanel_readReg3Bytes(TP_REG_TSC_DATA_XYZ);
 800683c:	2052      	movs	r0, #82	; 0x52
 800683e:	f7ff ff7f 	bl	8006740 <TouchPanel_readReg3Bytes>
 8006842:	ea6f 3310 	mvn.w	r3, r0, lsr #12
 8006846:	f3c3 020b 	ubfx	r2, r3, #0, #12

		tempX = ((temp >> 12) & 0xFFF);
		tempY = temp & 0xFFF;
 800684a:	f3c0 010b 	ubfx	r1, r0, #0, #12

		data.xRawPos = tempX;
		data.yRawPos = tempY;

		//normalize to the width/heigth, accounting for the min and max
		if (tempX < TOUCH_PANEL_CALIB_X_MIN)
 800684e:	f5b2 7ffa 	cmp.w	r2, #500	; 0x1f4
		data.xRawPos = tempX;
 8006852:	b296      	uxth	r6, r2
		data.yRawPos = tempY;
 8006854:	b28d      	uxth	r5, r1
		if (tempX < TOUCH_PANEL_CALIB_X_MIN)
 8006856:	d325      	bcc.n	80068a4 <TouchPanel_readRawData+0x76>
			tempX = 0;
		else if (tempX > TOUCH_PANEL_CALIB_X_MAX)
 8006858:	f5b2 6f61 	cmp.w	r2, #3600	; 0xe10
 800685c:	f04f 03f0 	mov.w	r3, #240	; 0xf0
 8006860:	d807      	bhi.n	8006872 <TouchPanel_readRawData+0x44>
			tempX = TOUCH_PANEL_WIDTH;
		else
			tempX = (tempX - TOUCH_PANEL_CALIB_X_MIN) * TOUCH_PANEL_WIDTH / (TOUCH_PANEL_CALIB_X_MAX - TOUCH_PANEL_CALIB_X_MIN);
 8006862:	4353      	muls	r3, r2
 8006864:	f5a3 33ea 	sub.w	r3, r3, #119808	; 0x1d400
 8006868:	3bc0      	subs	r3, #192	; 0xc0
 800686a:	f640 421c 	movw	r2, #3100	; 0xc1c
 800686e:	fbb3 f3f2 	udiv	r3, r3, r2

		if (tempY < TOUCH_PANEL_CALIB_Y_MIN)
 8006872:	f5b1 7ffa 	cmp.w	r1, #500	; 0x1f4
 8006876:	d317      	bcc.n	80068a8 <TouchPanel_readRawData+0x7a>
			tempY = 0;
		else if (tempY > TOUCH_PANEL_CALIB_Y_MAX)
 8006878:	f5b1 6f61 	cmp.w	r1, #3600	; 0xe10
 800687c:	f44f 70a0 	mov.w	r0, #320	; 0x140
 8006880:	d808      	bhi.n	8006894 <TouchPanel_readRawData+0x66>
			tempY = TOUCH_PANEL_HEIGHT;
		else
			tempY = (tempY - TOUCH_PANEL_CALIB_Y_MIN) * TOUCH_PANEL_HEIGHT / (TOUCH_PANEL_CALIB_Y_MAX - TOUCH_PANEL_CALIB_Y_MIN);
 8006882:	4348      	muls	r0, r1
 8006884:	f5a0 301c 	sub.w	r0, r0, #159744	; 0x27000
 8006888:	f5a0 7080 	sub.w	r0, r0, #256	; 0x100
 800688c:	f640 421c 	movw	r2, #3100	; 0xc1c
 8006890:	fbb0 f0f2 	udiv	r0, r0, r2

		data.xPos = (uint16_t)tempX;
 8006894:	b29b      	uxth	r3, r3
		data.yPos = (uint16_t)tempY;
 8006896:	b280      	uxth	r0, r0
	}

	return data;
 8006898:	8060      	strh	r0, [r4, #2]
 800689a:	8023      	strh	r3, [r4, #0]
 800689c:	80a6      	strh	r6, [r4, #4]
 800689e:	80e5      	strh	r5, [r4, #6]
}
 80068a0:	4620      	mov	r0, r4
 80068a2:	bd70      	pop	{r4, r5, r6, pc}
			tempX = 0;
 80068a4:	2300      	movs	r3, #0
 80068a6:	e7e4      	b.n	8006872 <TouchPanel_readRawData+0x44>
			tempY = 0;
 80068a8:	2000      	movs	r0, #0
 80068aa:	e7f3      	b.n	8006894 <TouchPanel_readRawData+0x66>
	data.xPos = 0x00;
 80068ac:	4603      	mov	r3, r0
 80068ae:	e7f3      	b.n	8006898 <TouchPanel_readRawData+0x6a>

080068b0 <TouchPanel_getPosition>:
//m_touchPanelData is updated in the isr, gpio exti
//line interrupt.
//
TouchPanelData TouchPanel_getPosition(void)
{
	return m_touchPanelData;
 80068b0:	4902      	ldr	r1, [pc, #8]	; (80068bc <TouchPanel_getPosition+0xc>)
 80068b2:	680b      	ldr	r3, [r1, #0]
 80068b4:	6003      	str	r3, [r0, #0]
 80068b6:	684b      	ldr	r3, [r1, #4]
 80068b8:	6043      	str	r3, [r0, #4]
}
 80068ba:	4770      	bx	lr
 80068bc:	20000a44 	.word	0x20000a44

080068c0 <TouchPanel_setPosition>:

void TouchPanel_setPosition(TouchPanelData data)
{
 80068c0:	b082      	sub	sp, #8
 80068c2:	ab02      	add	r3, sp, #8
 80068c4:	e903 0003 	stmdb	r3, {r0, r1}
	m_touchPanelData.xPos = data.xPos;
 80068c8:	4b07      	ldr	r3, [pc, #28]	; (80068e8 <TouchPanel_setPosition+0x28>)
 80068ca:	f8bd 2000 	ldrh.w	r2, [sp]
 80068ce:	801a      	strh	r2, [r3, #0]
	m_touchPanelData.yPos = data.yPos;
 80068d0:	f8bd 2002 	ldrh.w	r2, [sp, #2]
 80068d4:	805a      	strh	r2, [r3, #2]
	m_touchPanelData.xRawPos = data.xRawPos;
 80068d6:	f8bd 2004 	ldrh.w	r2, [sp, #4]
 80068da:	809a      	strh	r2, [r3, #4]
	m_touchPanelData.yRawPos = data.yRawPos;
 80068dc:	f8bd 2006 	ldrh.w	r2, [sp, #6]
 80068e0:	80da      	strh	r2, [r3, #6]
}
 80068e2:	b002      	add	sp, #8
 80068e4:	4770      	bx	lr
 80068e6:	bf00      	nop
 80068e8:	20000a44 	.word	0x20000a44

080068ec <TouchPanel_interruptClear>:

//////////////////////////////////////////
//clears touch detected interrupt
void TouchPanel_interruptClear(void)
{
	TouchPanel_writeReg1Byte(TP_REG_INT_STA, 0x01);
 80068ec:	2101      	movs	r1, #1
 80068ee:	200b      	movs	r0, #11
 80068f0:	f7ff bf4a 	b.w	8006788 <TouchPanel_writeReg1Byte>

080068f4 <HAL_GPIO_EXTI_Callback>:
//Triggers when the panel is touched.
//There must be a flag you have to clear
//in the panel registers because it only triggers
//first time then no further detection
void HAL_GPIO_EXTI_Callback(uint16_t GPIO_Pin)
{
 80068f4:	b530      	push	{r4, r5, lr}

	volatile TouchPanelData data;
	volatile uint8_t size;

	if (GPIO_Pin == Touch_Panel_EXTI15_Pin)
 80068f6:	f5b0 4f00 	cmp.w	r0, #32768	; 0x8000
{
 80068fa:	b085      	sub	sp, #20
	if (GPIO_Pin == Touch_Panel_EXTI15_Pin)
 80068fc:	d003      	beq.n	8006906 <HAL_GPIO_EXTI_Callback+0x12>
			TouchPanel_setPosition(data);		//update position
		}

	}

	TouchPanel_interruptClear();		//clear the interrupt
 80068fe:	f7ff fff5 	bl	80068ec <TouchPanel_interruptClear>
}
 8006902:	b005      	add	sp, #20
 8006904:	bd30      	pop	{r4, r5, pc}
		size = TouchPanel_GetFIFOSize();
 8006906:	f7ff ff8f 	bl	8006828 <TouchPanel_GetFIFOSize>
		for (int i = 0 ; i < size ; i++)
 800690a:	2400      	movs	r4, #0
		size = TouchPanel_GetFIFOSize();
 800690c:	f88d 0007 	strb.w	r0, [sp, #7]
			data = TouchPanel_readRawData();
 8006910:	ad02      	add	r5, sp, #8
		for (int i = 0 ; i < size ; i++)
 8006912:	f89d 3007 	ldrb.w	r3, [sp, #7]
 8006916:	429c      	cmp	r4, r3
 8006918:	daf1      	bge.n	80068fe <HAL_GPIO_EXTI_Callback+0xa>
			data = TouchPanel_readRawData();
 800691a:	4628      	mov	r0, r5
 800691c:	f7ff ff87 	bl	800682e <TouchPanel_readRawData>
			TouchPanel_setPosition(data);		//update position
 8006920:	e895 0003 	ldmia.w	r5, {r0, r1}
 8006924:	f7ff ffcc 	bl	80068c0 <TouchPanel_setPosition>
		for (int i = 0 ; i < size ; i++)
 8006928:	3401      	adds	r4, #1
 800692a:	e7f2      	b.n	8006912 <HAL_GPIO_EXTI_Callback+0x1e>

0800692c <__libc_init_array>:
 800692c:	b570      	push	{r4, r5, r6, lr}
 800692e:	4e0d      	ldr	r6, [pc, #52]	; (8006964 <__libc_init_array+0x38>)
 8006930:	4c0d      	ldr	r4, [pc, #52]	; (8006968 <__libc_init_array+0x3c>)
 8006932:	1ba4      	subs	r4, r4, r6
 8006934:	10a4      	asrs	r4, r4, #2
 8006936:	2500      	movs	r5, #0
 8006938:	42a5      	cmp	r5, r4
 800693a:	d109      	bne.n	8006950 <__libc_init_array+0x24>
 800693c:	4e0b      	ldr	r6, [pc, #44]	; (800696c <__libc_init_array+0x40>)
 800693e:	4c0c      	ldr	r4, [pc, #48]	; (8006970 <__libc_init_array+0x44>)
 8006940:	f000 fc4c 	bl	80071dc <_init>
 8006944:	1ba4      	subs	r4, r4, r6
 8006946:	10a4      	asrs	r4, r4, #2
 8006948:	2500      	movs	r5, #0
 800694a:	42a5      	cmp	r5, r4
 800694c:	d105      	bne.n	800695a <__libc_init_array+0x2e>
 800694e:	bd70      	pop	{r4, r5, r6, pc}
 8006950:	f856 3025 	ldr.w	r3, [r6, r5, lsl #2]
 8006954:	4798      	blx	r3
 8006956:	3501      	adds	r5, #1
 8006958:	e7ee      	b.n	8006938 <__libc_init_array+0xc>
 800695a:	f856 3025 	ldr.w	r3, [r6, r5, lsl #2]
 800695e:	4798      	blx	r3
 8006960:	3501      	adds	r5, #1
 8006962:	e7f2      	b.n	800694a <__libc_init_array+0x1e>
 8006964:	0801567c 	.word	0x0801567c
 8006968:	0801567c 	.word	0x0801567c
 800696c:	0801567c 	.word	0x0801567c
 8006970:	08015680 	.word	0x08015680

08006974 <memset>:
 8006974:	4402      	add	r2, r0
 8006976:	4603      	mov	r3, r0
 8006978:	4293      	cmp	r3, r2
 800697a:	d100      	bne.n	800697e <memset+0xa>
 800697c:	4770      	bx	lr
 800697e:	f803 1b01 	strb.w	r1, [r3], #1
 8006982:	e7f9      	b.n	8006978 <memset+0x4>

08006984 <siprintf>:
 8006984:	b40e      	push	{r1, r2, r3}
 8006986:	b500      	push	{lr}
 8006988:	b09c      	sub	sp, #112	; 0x70
 800698a:	f44f 7102 	mov.w	r1, #520	; 0x208
 800698e:	ab1d      	add	r3, sp, #116	; 0x74
 8006990:	f8ad 1014 	strh.w	r1, [sp, #20]
 8006994:	9002      	str	r0, [sp, #8]
 8006996:	9006      	str	r0, [sp, #24]
 8006998:	f06f 4100 	mvn.w	r1, #2147483648	; 0x80000000
 800699c:	480a      	ldr	r0, [pc, #40]	; (80069c8 <siprintf+0x44>)
 800699e:	9104      	str	r1, [sp, #16]
 80069a0:	9107      	str	r1, [sp, #28]
 80069a2:	f64f 71ff 	movw	r1, #65535	; 0xffff
 80069a6:	f853 2b04 	ldr.w	r2, [r3], #4
 80069aa:	f8ad 1016 	strh.w	r1, [sp, #22]
 80069ae:	6800      	ldr	r0, [r0, #0]
 80069b0:	9301      	str	r3, [sp, #4]
 80069b2:	a902      	add	r1, sp, #8
 80069b4:	f000 f866 	bl	8006a84 <_svfiprintf_r>
 80069b8:	9b02      	ldr	r3, [sp, #8]
 80069ba:	2200      	movs	r2, #0
 80069bc:	701a      	strb	r2, [r3, #0]
 80069be:	b01c      	add	sp, #112	; 0x70
 80069c0:	f85d eb04 	ldr.w	lr, [sp], #4
 80069c4:	b003      	add	sp, #12
 80069c6:	4770      	bx	lr
 80069c8:	20000410 	.word	0x20000410

080069cc <__ssputs_r>:
 80069cc:	e92d 47f0 	stmdb	sp!, {r4, r5, r6, r7, r8, r9, sl, lr}
 80069d0:	688e      	ldr	r6, [r1, #8]
 80069d2:	429e      	cmp	r6, r3
 80069d4:	4682      	mov	sl, r0
 80069d6:	460c      	mov	r4, r1
 80069d8:	4691      	mov	r9, r2
 80069da:	4698      	mov	r8, r3
 80069dc:	d835      	bhi.n	8006a4a <__ssputs_r+0x7e>
 80069de:	898a      	ldrh	r2, [r1, #12]
 80069e0:	f412 6f90 	tst.w	r2, #1152	; 0x480
 80069e4:	d031      	beq.n	8006a4a <__ssputs_r+0x7e>
 80069e6:	6825      	ldr	r5, [r4, #0]
 80069e8:	6909      	ldr	r1, [r1, #16]
 80069ea:	1a6f      	subs	r7, r5, r1
 80069ec:	6965      	ldr	r5, [r4, #20]
 80069ee:	2302      	movs	r3, #2
 80069f0:	eb05 0545 	add.w	r5, r5, r5, lsl #1
 80069f4:	fb95 f5f3 	sdiv	r5, r5, r3
 80069f8:	f108 0301 	add.w	r3, r8, #1
 80069fc:	443b      	add	r3, r7
 80069fe:	429d      	cmp	r5, r3
 8006a00:	bf38      	it	cc
 8006a02:	461d      	movcc	r5, r3
 8006a04:	0553      	lsls	r3, r2, #21
 8006a06:	d531      	bpl.n	8006a6c <__ssputs_r+0xa0>
 8006a08:	4629      	mov	r1, r5
 8006a0a:	f000 fb39 	bl	8007080 <_malloc_r>
 8006a0e:	4606      	mov	r6, r0
 8006a10:	b950      	cbnz	r0, 8006a28 <__ssputs_r+0x5c>
 8006a12:	230c      	movs	r3, #12
 8006a14:	f8ca 3000 	str.w	r3, [sl]
 8006a18:	89a3      	ldrh	r3, [r4, #12]
 8006a1a:	f043 0340 	orr.w	r3, r3, #64	; 0x40
 8006a1e:	81a3      	strh	r3, [r4, #12]
 8006a20:	f04f 30ff 	mov.w	r0, #4294967295
 8006a24:	e8bd 87f0 	ldmia.w	sp!, {r4, r5, r6, r7, r8, r9, sl, pc}
 8006a28:	463a      	mov	r2, r7
 8006a2a:	6921      	ldr	r1, [r4, #16]
 8006a2c:	f000 fab4 	bl	8006f98 <memcpy>
 8006a30:	89a3      	ldrh	r3, [r4, #12]
 8006a32:	f423 6390 	bic.w	r3, r3, #1152	; 0x480
 8006a36:	f043 0380 	orr.w	r3, r3, #128	; 0x80
 8006a3a:	81a3      	strh	r3, [r4, #12]
 8006a3c:	6126      	str	r6, [r4, #16]
 8006a3e:	6165      	str	r5, [r4, #20]
 8006a40:	443e      	add	r6, r7
 8006a42:	1bed      	subs	r5, r5, r7
 8006a44:	6026      	str	r6, [r4, #0]
 8006a46:	60a5      	str	r5, [r4, #8]
 8006a48:	4646      	mov	r6, r8
 8006a4a:	4546      	cmp	r6, r8
 8006a4c:	bf28      	it	cs
 8006a4e:	4646      	movcs	r6, r8
 8006a50:	4632      	mov	r2, r6
 8006a52:	4649      	mov	r1, r9
 8006a54:	6820      	ldr	r0, [r4, #0]
 8006a56:	f000 faaa 	bl	8006fae <memmove>
 8006a5a:	68a3      	ldr	r3, [r4, #8]
 8006a5c:	1b9b      	subs	r3, r3, r6
 8006a5e:	60a3      	str	r3, [r4, #8]
 8006a60:	6823      	ldr	r3, [r4, #0]
 8006a62:	441e      	add	r6, r3
 8006a64:	6026      	str	r6, [r4, #0]
 8006a66:	2000      	movs	r0, #0
 8006a68:	e8bd 87f0 	ldmia.w	sp!, {r4, r5, r6, r7, r8, r9, sl, pc}
 8006a6c:	462a      	mov	r2, r5
 8006a6e:	f000 fb65 	bl	800713c <_realloc_r>
 8006a72:	4606      	mov	r6, r0
 8006a74:	2800      	cmp	r0, #0
 8006a76:	d1e1      	bne.n	8006a3c <__ssputs_r+0x70>
 8006a78:	6921      	ldr	r1, [r4, #16]
 8006a7a:	4650      	mov	r0, sl
 8006a7c:	f000 fab2 	bl	8006fe4 <_free_r>
 8006a80:	e7c7      	b.n	8006a12 <__ssputs_r+0x46>
	...

08006a84 <_svfiprintf_r>:
 8006a84:	e92d 4ff0 	stmdb	sp!, {r4, r5, r6, r7, r8, r9, sl, fp, lr}
 8006a88:	b09d      	sub	sp, #116	; 0x74
 8006a8a:	4680      	mov	r8, r0
 8006a8c:	9303      	str	r3, [sp, #12]
 8006a8e:	898b      	ldrh	r3, [r1, #12]
 8006a90:	061c      	lsls	r4, r3, #24
 8006a92:	460d      	mov	r5, r1
 8006a94:	4616      	mov	r6, r2
 8006a96:	d50f      	bpl.n	8006ab8 <_svfiprintf_r+0x34>
 8006a98:	690b      	ldr	r3, [r1, #16]
 8006a9a:	b96b      	cbnz	r3, 8006ab8 <_svfiprintf_r+0x34>
 8006a9c:	2140      	movs	r1, #64	; 0x40
 8006a9e:	f000 faef 	bl	8007080 <_malloc_r>
 8006aa2:	6028      	str	r0, [r5, #0]
 8006aa4:	6128      	str	r0, [r5, #16]
 8006aa6:	b928      	cbnz	r0, 8006ab4 <_svfiprintf_r+0x30>
 8006aa8:	230c      	movs	r3, #12
 8006aaa:	f8c8 3000 	str.w	r3, [r8]
 8006aae:	f04f 30ff 	mov.w	r0, #4294967295
 8006ab2:	e0c5      	b.n	8006c40 <_svfiprintf_r+0x1bc>
 8006ab4:	2340      	movs	r3, #64	; 0x40
 8006ab6:	616b      	str	r3, [r5, #20]
 8006ab8:	2300      	movs	r3, #0
 8006aba:	9309      	str	r3, [sp, #36]	; 0x24
 8006abc:	2320      	movs	r3, #32
 8006abe:	f88d 3029 	strb.w	r3, [sp, #41]	; 0x29
 8006ac2:	2330      	movs	r3, #48	; 0x30
 8006ac4:	f88d 302a 	strb.w	r3, [sp, #42]	; 0x2a
 8006ac8:	f04f 0b01 	mov.w	fp, #1
 8006acc:	4637      	mov	r7, r6
 8006ace:	463c      	mov	r4, r7
 8006ad0:	f814 3b01 	ldrb.w	r3, [r4], #1
 8006ad4:	2b00      	cmp	r3, #0
 8006ad6:	d13c      	bne.n	8006b52 <_svfiprintf_r+0xce>
 8006ad8:	ebb7 0a06 	subs.w	sl, r7, r6
 8006adc:	d00b      	beq.n	8006af6 <_svfiprintf_r+0x72>
 8006ade:	4653      	mov	r3, sl
 8006ae0:	4632      	mov	r2, r6
 8006ae2:	4629      	mov	r1, r5
 8006ae4:	4640      	mov	r0, r8
 8006ae6:	f7ff ff71 	bl	80069cc <__ssputs_r>
 8006aea:	3001      	adds	r0, #1
 8006aec:	f000 80a3 	beq.w	8006c36 <_svfiprintf_r+0x1b2>
 8006af0:	9b09      	ldr	r3, [sp, #36]	; 0x24
 8006af2:	4453      	add	r3, sl
 8006af4:	9309      	str	r3, [sp, #36]	; 0x24
 8006af6:	783b      	ldrb	r3, [r7, #0]
 8006af8:	2b00      	cmp	r3, #0
 8006afa:	f000 809c 	beq.w	8006c36 <_svfiprintf_r+0x1b2>
 8006afe:	2300      	movs	r3, #0
 8006b00:	f04f 32ff 	mov.w	r2, #4294967295
 8006b04:	9304      	str	r3, [sp, #16]
 8006b06:	9307      	str	r3, [sp, #28]
 8006b08:	9205      	str	r2, [sp, #20]
 8006b0a:	9306      	str	r3, [sp, #24]
 8006b0c:	f88d 3053 	strb.w	r3, [sp, #83]	; 0x53
 8006b10:	931a      	str	r3, [sp, #104]	; 0x68
 8006b12:	2205      	movs	r2, #5
 8006b14:	7821      	ldrb	r1, [r4, #0]
 8006b16:	4850      	ldr	r0, [pc, #320]	; (8006c58 <_svfiprintf_r+0x1d4>)
 8006b18:	f7f9 fb72 	bl	8000200 <memchr>
 8006b1c:	1c67      	adds	r7, r4, #1
 8006b1e:	9b04      	ldr	r3, [sp, #16]
 8006b20:	b9d8      	cbnz	r0, 8006b5a <_svfiprintf_r+0xd6>
 8006b22:	06d9      	lsls	r1, r3, #27
 8006b24:	bf44      	itt	mi
 8006b26:	2220      	movmi	r2, #32
 8006b28:	f88d 2053 	strbmi.w	r2, [sp, #83]	; 0x53
 8006b2c:	071a      	lsls	r2, r3, #28
 8006b2e:	bf44      	itt	mi
 8006b30:	222b      	movmi	r2, #43	; 0x2b
 8006b32:	f88d 2053 	strbmi.w	r2, [sp, #83]	; 0x53
 8006b36:	7822      	ldrb	r2, [r4, #0]
 8006b38:	2a2a      	cmp	r2, #42	; 0x2a
 8006b3a:	d016      	beq.n	8006b6a <_svfiprintf_r+0xe6>
 8006b3c:	9a07      	ldr	r2, [sp, #28]
 8006b3e:	2100      	movs	r1, #0
 8006b40:	200a      	movs	r0, #10
 8006b42:	4627      	mov	r7, r4
 8006b44:	3401      	adds	r4, #1
 8006b46:	783b      	ldrb	r3, [r7, #0]
 8006b48:	3b30      	subs	r3, #48	; 0x30
 8006b4a:	2b09      	cmp	r3, #9
 8006b4c:	d951      	bls.n	8006bf2 <_svfiprintf_r+0x16e>
 8006b4e:	b1c9      	cbz	r1, 8006b84 <_svfiprintf_r+0x100>
 8006b50:	e011      	b.n	8006b76 <_svfiprintf_r+0xf2>
 8006b52:	2b25      	cmp	r3, #37	; 0x25
 8006b54:	d0c0      	beq.n	8006ad8 <_svfiprintf_r+0x54>
 8006b56:	4627      	mov	r7, r4
 8006b58:	e7b9      	b.n	8006ace <_svfiprintf_r+0x4a>
 8006b5a:	4a3f      	ldr	r2, [pc, #252]	; (8006c58 <_svfiprintf_r+0x1d4>)
 8006b5c:	1a80      	subs	r0, r0, r2
 8006b5e:	fa0b f000 	lsl.w	r0, fp, r0
 8006b62:	4318      	orrs	r0, r3
 8006b64:	9004      	str	r0, [sp, #16]
 8006b66:	463c      	mov	r4, r7
 8006b68:	e7d3      	b.n	8006b12 <_svfiprintf_r+0x8e>
 8006b6a:	9a03      	ldr	r2, [sp, #12]
 8006b6c:	1d11      	adds	r1, r2, #4
 8006b6e:	6812      	ldr	r2, [r2, #0]
 8006b70:	9103      	str	r1, [sp, #12]
 8006b72:	2a00      	cmp	r2, #0
 8006b74:	db01      	blt.n	8006b7a <_svfiprintf_r+0xf6>
 8006b76:	9207      	str	r2, [sp, #28]
 8006b78:	e004      	b.n	8006b84 <_svfiprintf_r+0x100>
 8006b7a:	4252      	negs	r2, r2
 8006b7c:	f043 0302 	orr.w	r3, r3, #2
 8006b80:	9207      	str	r2, [sp, #28]
 8006b82:	9304      	str	r3, [sp, #16]
 8006b84:	783b      	ldrb	r3, [r7, #0]
 8006b86:	2b2e      	cmp	r3, #46	; 0x2e
 8006b88:	d10e      	bne.n	8006ba8 <_svfiprintf_r+0x124>
 8006b8a:	787b      	ldrb	r3, [r7, #1]
 8006b8c:	2b2a      	cmp	r3, #42	; 0x2a
 8006b8e:	f107 0101 	add.w	r1, r7, #1
 8006b92:	d132      	bne.n	8006bfa <_svfiprintf_r+0x176>
 8006b94:	9b03      	ldr	r3, [sp, #12]
 8006b96:	1d1a      	adds	r2, r3, #4
 8006b98:	681b      	ldr	r3, [r3, #0]
 8006b9a:	9203      	str	r2, [sp, #12]
 8006b9c:	2b00      	cmp	r3, #0
 8006b9e:	bfb8      	it	lt
 8006ba0:	f04f 33ff 	movlt.w	r3, #4294967295
 8006ba4:	3702      	adds	r7, #2
 8006ba6:	9305      	str	r3, [sp, #20]
 8006ba8:	4c2c      	ldr	r4, [pc, #176]	; (8006c5c <_svfiprintf_r+0x1d8>)
 8006baa:	7839      	ldrb	r1, [r7, #0]
 8006bac:	2203      	movs	r2, #3
 8006bae:	4620      	mov	r0, r4
 8006bb0:	f7f9 fb26 	bl	8000200 <memchr>
 8006bb4:	b138      	cbz	r0, 8006bc6 <_svfiprintf_r+0x142>
 8006bb6:	2340      	movs	r3, #64	; 0x40
 8006bb8:	1b00      	subs	r0, r0, r4
 8006bba:	fa03 f000 	lsl.w	r0, r3, r0
 8006bbe:	9b04      	ldr	r3, [sp, #16]
 8006bc0:	4303      	orrs	r3, r0
 8006bc2:	9304      	str	r3, [sp, #16]
 8006bc4:	3701      	adds	r7, #1
 8006bc6:	7839      	ldrb	r1, [r7, #0]
 8006bc8:	4825      	ldr	r0, [pc, #148]	; (8006c60 <_svfiprintf_r+0x1dc>)
 8006bca:	f88d 1028 	strb.w	r1, [sp, #40]	; 0x28
 8006bce:	2206      	movs	r2, #6
 8006bd0:	1c7e      	adds	r6, r7, #1
 8006bd2:	f7f9 fb15 	bl	8000200 <memchr>
 8006bd6:	2800      	cmp	r0, #0
 8006bd8:	d035      	beq.n	8006c46 <_svfiprintf_r+0x1c2>
 8006bda:	4b22      	ldr	r3, [pc, #136]	; (8006c64 <_svfiprintf_r+0x1e0>)
 8006bdc:	b9fb      	cbnz	r3, 8006c1e <_svfiprintf_r+0x19a>
 8006bde:	9b03      	ldr	r3, [sp, #12]
 8006be0:	3307      	adds	r3, #7
 8006be2:	f023 0307 	bic.w	r3, r3, #7
 8006be6:	3308      	adds	r3, #8
 8006be8:	9303      	str	r3, [sp, #12]
 8006bea:	9b09      	ldr	r3, [sp, #36]	; 0x24
 8006bec:	444b      	add	r3, r9
 8006bee:	9309      	str	r3, [sp, #36]	; 0x24
 8006bf0:	e76c      	b.n	8006acc <_svfiprintf_r+0x48>
 8006bf2:	fb00 3202 	mla	r2, r0, r2, r3
 8006bf6:	2101      	movs	r1, #1
 8006bf8:	e7a3      	b.n	8006b42 <_svfiprintf_r+0xbe>
 8006bfa:	2300      	movs	r3, #0
 8006bfc:	9305      	str	r3, [sp, #20]
 8006bfe:	4618      	mov	r0, r3
 8006c00:	240a      	movs	r4, #10
 8006c02:	460f      	mov	r7, r1
 8006c04:	3101      	adds	r1, #1
 8006c06:	783a      	ldrb	r2, [r7, #0]
 8006c08:	3a30      	subs	r2, #48	; 0x30
 8006c0a:	2a09      	cmp	r2, #9
 8006c0c:	d903      	bls.n	8006c16 <_svfiprintf_r+0x192>
 8006c0e:	2b00      	cmp	r3, #0
 8006c10:	d0ca      	beq.n	8006ba8 <_svfiprintf_r+0x124>
 8006c12:	9005      	str	r0, [sp, #20]
 8006c14:	e7c8      	b.n	8006ba8 <_svfiprintf_r+0x124>
 8006c16:	fb04 2000 	mla	r0, r4, r0, r2
 8006c1a:	2301      	movs	r3, #1
 8006c1c:	e7f1      	b.n	8006c02 <_svfiprintf_r+0x17e>
 8006c1e:	ab03      	add	r3, sp, #12
 8006c20:	9300      	str	r3, [sp, #0]
 8006c22:	462a      	mov	r2, r5
 8006c24:	4b10      	ldr	r3, [pc, #64]	; (8006c68 <_svfiprintf_r+0x1e4>)
 8006c26:	a904      	add	r1, sp, #16
 8006c28:	4640      	mov	r0, r8
 8006c2a:	f3af 8000 	nop.w
 8006c2e:	f1b0 3fff 	cmp.w	r0, #4294967295
 8006c32:	4681      	mov	r9, r0
 8006c34:	d1d9      	bne.n	8006bea <_svfiprintf_r+0x166>
 8006c36:	89ab      	ldrh	r3, [r5, #12]
 8006c38:	065b      	lsls	r3, r3, #25
 8006c3a:	f53f af38 	bmi.w	8006aae <_svfiprintf_r+0x2a>
 8006c3e:	9809      	ldr	r0, [sp, #36]	; 0x24
 8006c40:	b01d      	add	sp, #116	; 0x74
 8006c42:	e8bd 8ff0 	ldmia.w	sp!, {r4, r5, r6, r7, r8, r9, sl, fp, pc}
 8006c46:	ab03      	add	r3, sp, #12
 8006c48:	9300      	str	r3, [sp, #0]
 8006c4a:	462a      	mov	r2, r5
 8006c4c:	4b06      	ldr	r3, [pc, #24]	; (8006c68 <_svfiprintf_r+0x1e4>)
 8006c4e:	a904      	add	r1, sp, #16
 8006c50:	4640      	mov	r0, r8
 8006c52:	f000 f881 	bl	8006d58 <_printf_i>
 8006c56:	e7ea      	b.n	8006c2e <_svfiprintf_r+0x1aa>
 8006c58:	08015646 	.word	0x08015646
 8006c5c:	0801564c 	.word	0x0801564c
 8006c60:	08015650 	.word	0x08015650
 8006c64:	00000000 	.word	0x00000000
 8006c68:	080069cd 	.word	0x080069cd

08006c6c <_printf_common>:
 8006c6c:	e92d 47f0 	stmdb	sp!, {r4, r5, r6, r7, r8, r9, sl, lr}
 8006c70:	4691      	mov	r9, r2
 8006c72:	461f      	mov	r7, r3
 8006c74:	688a      	ldr	r2, [r1, #8]
 8006c76:	690b      	ldr	r3, [r1, #16]
 8006c78:	f8dd 8020 	ldr.w	r8, [sp, #32]
 8006c7c:	4293      	cmp	r3, r2
 8006c7e:	bfb8      	it	lt
 8006c80:	4613      	movlt	r3, r2
 8006c82:	f8c9 3000 	str.w	r3, [r9]
 8006c86:	f891 2043 	ldrb.w	r2, [r1, #67]	; 0x43
 8006c8a:	4606      	mov	r6, r0
 8006c8c:	460c      	mov	r4, r1
 8006c8e:	b112      	cbz	r2, 8006c96 <_printf_common+0x2a>
 8006c90:	3301      	adds	r3, #1
 8006c92:	f8c9 3000 	str.w	r3, [r9]
 8006c96:	6823      	ldr	r3, [r4, #0]
 8006c98:	0699      	lsls	r1, r3, #26
 8006c9a:	bf42      	ittt	mi
 8006c9c:	f8d9 3000 	ldrmi.w	r3, [r9]
 8006ca0:	3302      	addmi	r3, #2
 8006ca2:	f8c9 3000 	strmi.w	r3, [r9]
 8006ca6:	6825      	ldr	r5, [r4, #0]
 8006ca8:	f015 0506 	ands.w	r5, r5, #6
 8006cac:	d107      	bne.n	8006cbe <_printf_common+0x52>
 8006cae:	f104 0a19 	add.w	sl, r4, #25
 8006cb2:	68e3      	ldr	r3, [r4, #12]
 8006cb4:	f8d9 2000 	ldr.w	r2, [r9]
 8006cb8:	1a9b      	subs	r3, r3, r2
 8006cba:	429d      	cmp	r5, r3
 8006cbc:	db29      	blt.n	8006d12 <_printf_common+0xa6>
 8006cbe:	f894 3043 	ldrb.w	r3, [r4, #67]	; 0x43
 8006cc2:	6822      	ldr	r2, [r4, #0]
 8006cc4:	3300      	adds	r3, #0
 8006cc6:	bf18      	it	ne
 8006cc8:	2301      	movne	r3, #1
 8006cca:	0692      	lsls	r2, r2, #26
 8006ccc:	d42e      	bmi.n	8006d2c <_printf_common+0xc0>
 8006cce:	f104 0243 	add.w	r2, r4, #67	; 0x43
 8006cd2:	4639      	mov	r1, r7
 8006cd4:	4630      	mov	r0, r6
 8006cd6:	47c0      	blx	r8
 8006cd8:	3001      	adds	r0, #1
 8006cda:	d021      	beq.n	8006d20 <_printf_common+0xb4>
 8006cdc:	6823      	ldr	r3, [r4, #0]
 8006cde:	68e5      	ldr	r5, [r4, #12]
 8006ce0:	f8d9 2000 	ldr.w	r2, [r9]
 8006ce4:	f003 0306 	and.w	r3, r3, #6
 8006ce8:	2b04      	cmp	r3, #4
 8006cea:	bf08      	it	eq
 8006cec:	1aad      	subeq	r5, r5, r2
 8006cee:	68a3      	ldr	r3, [r4, #8]
 8006cf0:	6922      	ldr	r2, [r4, #16]
 8006cf2:	bf0c      	ite	eq
 8006cf4:	ea25 75e5 	biceq.w	r5, r5, r5, asr #31
 8006cf8:	2500      	movne	r5, #0
 8006cfa:	4293      	cmp	r3, r2
 8006cfc:	bfc4      	itt	gt
 8006cfe:	1a9b      	subgt	r3, r3, r2
 8006d00:	18ed      	addgt	r5, r5, r3
 8006d02:	f04f 0900 	mov.w	r9, #0
 8006d06:	341a      	adds	r4, #26
 8006d08:	454d      	cmp	r5, r9
 8006d0a:	d11b      	bne.n	8006d44 <_printf_common+0xd8>
 8006d0c:	2000      	movs	r0, #0
 8006d0e:	e8bd 87f0 	ldmia.w	sp!, {r4, r5, r6, r7, r8, r9, sl, pc}
 8006d12:	2301      	movs	r3, #1
 8006d14:	4652      	mov	r2, sl
 8006d16:	4639      	mov	r1, r7
 8006d18:	4630      	mov	r0, r6
 8006d1a:	47c0      	blx	r8
 8006d1c:	3001      	adds	r0, #1
 8006d1e:	d103      	bne.n	8006d28 <_printf_common+0xbc>
 8006d20:	f04f 30ff 	mov.w	r0, #4294967295
 8006d24:	e8bd 87f0 	ldmia.w	sp!, {r4, r5, r6, r7, r8, r9, sl, pc}
 8006d28:	3501      	adds	r5, #1
 8006d2a:	e7c2      	b.n	8006cb2 <_printf_common+0x46>
 8006d2c:	18e1      	adds	r1, r4, r3
 8006d2e:	1c5a      	adds	r2, r3, #1
 8006d30:	2030      	movs	r0, #48	; 0x30
 8006d32:	f881 0043 	strb.w	r0, [r1, #67]	; 0x43
 8006d36:	4422      	add	r2, r4
 8006d38:	f894 1045 	ldrb.w	r1, [r4, #69]	; 0x45
 8006d3c:	f882 1043 	strb.w	r1, [r2, #67]	; 0x43
 8006d40:	3302      	adds	r3, #2
 8006d42:	e7c4      	b.n	8006cce <_printf_common+0x62>
 8006d44:	2301      	movs	r3, #1
 8006d46:	4622      	mov	r2, r4
 8006d48:	4639      	mov	r1, r7
 8006d4a:	4630      	mov	r0, r6
 8006d4c:	47c0      	blx	r8
 8006d4e:	3001      	adds	r0, #1
 8006d50:	d0e6      	beq.n	8006d20 <_printf_common+0xb4>
 8006d52:	f109 0901 	add.w	r9, r9, #1
 8006d56:	e7d7      	b.n	8006d08 <_printf_common+0x9c>

08006d58 <_printf_i>:
 8006d58:	e92d 43f0 	stmdb	sp!, {r4, r5, r6, r7, r8, r9, lr}
 8006d5c:	4617      	mov	r7, r2
 8006d5e:	7e0a      	ldrb	r2, [r1, #24]
 8006d60:	b085      	sub	sp, #20
 8006d62:	2a6e      	cmp	r2, #110	; 0x6e
 8006d64:	4698      	mov	r8, r3
 8006d66:	4606      	mov	r6, r0
 8006d68:	460c      	mov	r4, r1
 8006d6a:	9b0c      	ldr	r3, [sp, #48]	; 0x30
 8006d6c:	f101 0e43 	add.w	lr, r1, #67	; 0x43
 8006d70:	f000 80bc 	beq.w	8006eec <_printf_i+0x194>
 8006d74:	d81a      	bhi.n	8006dac <_printf_i+0x54>
 8006d76:	2a63      	cmp	r2, #99	; 0x63
 8006d78:	d02e      	beq.n	8006dd8 <_printf_i+0x80>
 8006d7a:	d80a      	bhi.n	8006d92 <_printf_i+0x3a>
 8006d7c:	2a00      	cmp	r2, #0
 8006d7e:	f000 80c8 	beq.w	8006f12 <_printf_i+0x1ba>
 8006d82:	2a58      	cmp	r2, #88	; 0x58
 8006d84:	f000 808a 	beq.w	8006e9c <_printf_i+0x144>
 8006d88:	f104 0542 	add.w	r5, r4, #66	; 0x42
 8006d8c:	f884 2042 	strb.w	r2, [r4, #66]	; 0x42
 8006d90:	e02a      	b.n	8006de8 <_printf_i+0x90>
 8006d92:	2a64      	cmp	r2, #100	; 0x64
 8006d94:	d001      	beq.n	8006d9a <_printf_i+0x42>
 8006d96:	2a69      	cmp	r2, #105	; 0x69
 8006d98:	d1f6      	bne.n	8006d88 <_printf_i+0x30>
 8006d9a:	6821      	ldr	r1, [r4, #0]
 8006d9c:	681a      	ldr	r2, [r3, #0]
 8006d9e:	f011 0f80 	tst.w	r1, #128	; 0x80
 8006da2:	d023      	beq.n	8006dec <_printf_i+0x94>
 8006da4:	1d11      	adds	r1, r2, #4
 8006da6:	6019      	str	r1, [r3, #0]
 8006da8:	6813      	ldr	r3, [r2, #0]
 8006daa:	e027      	b.n	8006dfc <_printf_i+0xa4>
 8006dac:	2a73      	cmp	r2, #115	; 0x73
 8006dae:	f000 80b4 	beq.w	8006f1a <_printf_i+0x1c2>
 8006db2:	d808      	bhi.n	8006dc6 <_printf_i+0x6e>
 8006db4:	2a6f      	cmp	r2, #111	; 0x6f
 8006db6:	d02a      	beq.n	8006e0e <_printf_i+0xb6>
 8006db8:	2a70      	cmp	r2, #112	; 0x70
 8006dba:	d1e5      	bne.n	8006d88 <_printf_i+0x30>
 8006dbc:	680a      	ldr	r2, [r1, #0]
 8006dbe:	f042 0220 	orr.w	r2, r2, #32
 8006dc2:	600a      	str	r2, [r1, #0]
 8006dc4:	e003      	b.n	8006dce <_printf_i+0x76>
 8006dc6:	2a75      	cmp	r2, #117	; 0x75
 8006dc8:	d021      	beq.n	8006e0e <_printf_i+0xb6>
 8006dca:	2a78      	cmp	r2, #120	; 0x78
 8006dcc:	d1dc      	bne.n	8006d88 <_printf_i+0x30>
 8006dce:	2278      	movs	r2, #120	; 0x78
 8006dd0:	f884 2045 	strb.w	r2, [r4, #69]	; 0x45
 8006dd4:	496e      	ldr	r1, [pc, #440]	; (8006f90 <_printf_i+0x238>)
 8006dd6:	e064      	b.n	8006ea2 <_printf_i+0x14a>
 8006dd8:	681a      	ldr	r2, [r3, #0]
 8006dda:	f101 0542 	add.w	r5, r1, #66	; 0x42
 8006dde:	1d11      	adds	r1, r2, #4
 8006de0:	6019      	str	r1, [r3, #0]
 8006de2:	6813      	ldr	r3, [r2, #0]
 8006de4:	f884 3042 	strb.w	r3, [r4, #66]	; 0x42
 8006de8:	2301      	movs	r3, #1
 8006dea:	e0a3      	b.n	8006f34 <_printf_i+0x1dc>
 8006dec:	f011 0f40 	tst.w	r1, #64	; 0x40
 8006df0:	f102 0104 	add.w	r1, r2, #4
 8006df4:	6019      	str	r1, [r3, #0]
 8006df6:	d0d7      	beq.n	8006da8 <_printf_i+0x50>
 8006df8:	f9b2 3000 	ldrsh.w	r3, [r2]
 8006dfc:	2b00      	cmp	r3, #0
 8006dfe:	da03      	bge.n	8006e08 <_printf_i+0xb0>
 8006e00:	222d      	movs	r2, #45	; 0x2d
 8006e02:	425b      	negs	r3, r3
 8006e04:	f884 2043 	strb.w	r2, [r4, #67]	; 0x43
 8006e08:	4962      	ldr	r1, [pc, #392]	; (8006f94 <_printf_i+0x23c>)
 8006e0a:	220a      	movs	r2, #10
 8006e0c:	e017      	b.n	8006e3e <_printf_i+0xe6>
 8006e0e:	6820      	ldr	r0, [r4, #0]
 8006e10:	6819      	ldr	r1, [r3, #0]
 8006e12:	f010 0f80 	tst.w	r0, #128	; 0x80
 8006e16:	d003      	beq.n	8006e20 <_printf_i+0xc8>
 8006e18:	1d08      	adds	r0, r1, #4
 8006e1a:	6018      	str	r0, [r3, #0]
 8006e1c:	680b      	ldr	r3, [r1, #0]
 8006e1e:	e006      	b.n	8006e2e <_printf_i+0xd6>
 8006e20:	f010 0f40 	tst.w	r0, #64	; 0x40
 8006e24:	f101 0004 	add.w	r0, r1, #4
 8006e28:	6018      	str	r0, [r3, #0]
 8006e2a:	d0f7      	beq.n	8006e1c <_printf_i+0xc4>
 8006e2c:	880b      	ldrh	r3, [r1, #0]
 8006e2e:	4959      	ldr	r1, [pc, #356]	; (8006f94 <_printf_i+0x23c>)
 8006e30:	2a6f      	cmp	r2, #111	; 0x6f
 8006e32:	bf14      	ite	ne
 8006e34:	220a      	movne	r2, #10
 8006e36:	2208      	moveq	r2, #8
 8006e38:	2000      	movs	r0, #0
 8006e3a:	f884 0043 	strb.w	r0, [r4, #67]	; 0x43
 8006e3e:	6865      	ldr	r5, [r4, #4]
 8006e40:	60a5      	str	r5, [r4, #8]
 8006e42:	2d00      	cmp	r5, #0
 8006e44:	f2c0 809c 	blt.w	8006f80 <_printf_i+0x228>
 8006e48:	6820      	ldr	r0, [r4, #0]
 8006e4a:	f020 0004 	bic.w	r0, r0, #4
 8006e4e:	6020      	str	r0, [r4, #0]
 8006e50:	2b00      	cmp	r3, #0
 8006e52:	d13f      	bne.n	8006ed4 <_printf_i+0x17c>
 8006e54:	2d00      	cmp	r5, #0
 8006e56:	f040 8095 	bne.w	8006f84 <_printf_i+0x22c>
 8006e5a:	4675      	mov	r5, lr
 8006e5c:	2a08      	cmp	r2, #8
 8006e5e:	d10b      	bne.n	8006e78 <_printf_i+0x120>
 8006e60:	6823      	ldr	r3, [r4, #0]
 8006e62:	07da      	lsls	r2, r3, #31
 8006e64:	d508      	bpl.n	8006e78 <_printf_i+0x120>
 8006e66:	6923      	ldr	r3, [r4, #16]
 8006e68:	6862      	ldr	r2, [r4, #4]
 8006e6a:	429a      	cmp	r2, r3
 8006e6c:	bfde      	ittt	le
 8006e6e:	2330      	movle	r3, #48	; 0x30
 8006e70:	f805 3c01 	strble.w	r3, [r5, #-1]
 8006e74:	f105 35ff 	addle.w	r5, r5, #4294967295
 8006e78:	ebae 0305 	sub.w	r3, lr, r5
 8006e7c:	6123      	str	r3, [r4, #16]
 8006e7e:	f8cd 8000 	str.w	r8, [sp]
 8006e82:	463b      	mov	r3, r7
 8006e84:	aa03      	add	r2, sp, #12
 8006e86:	4621      	mov	r1, r4
 8006e88:	4630      	mov	r0, r6
 8006e8a:	f7ff feef 	bl	8006c6c <_printf_common>
 8006e8e:	3001      	adds	r0, #1
 8006e90:	d155      	bne.n	8006f3e <_printf_i+0x1e6>
 8006e92:	f04f 30ff 	mov.w	r0, #4294967295
 8006e96:	b005      	add	sp, #20
 8006e98:	e8bd 83f0 	ldmia.w	sp!, {r4, r5, r6, r7, r8, r9, pc}
 8006e9c:	f881 2045 	strb.w	r2, [r1, #69]	; 0x45
 8006ea0:	493c      	ldr	r1, [pc, #240]	; (8006f94 <_printf_i+0x23c>)
 8006ea2:	6822      	ldr	r2, [r4, #0]
 8006ea4:	6818      	ldr	r0, [r3, #0]
 8006ea6:	f012 0f80 	tst.w	r2, #128	; 0x80
 8006eaa:	f100 0504 	add.w	r5, r0, #4
 8006eae:	601d      	str	r5, [r3, #0]
 8006eb0:	d001      	beq.n	8006eb6 <_printf_i+0x15e>
 8006eb2:	6803      	ldr	r3, [r0, #0]
 8006eb4:	e002      	b.n	8006ebc <_printf_i+0x164>
 8006eb6:	0655      	lsls	r5, r2, #25
 8006eb8:	d5fb      	bpl.n	8006eb2 <_printf_i+0x15a>
 8006eba:	8803      	ldrh	r3, [r0, #0]
 8006ebc:	07d0      	lsls	r0, r2, #31
 8006ebe:	bf44      	itt	mi
 8006ec0:	f042 0220 	orrmi.w	r2, r2, #32
 8006ec4:	6022      	strmi	r2, [r4, #0]
 8006ec6:	b91b      	cbnz	r3, 8006ed0 <_printf_i+0x178>
 8006ec8:	6822      	ldr	r2, [r4, #0]
 8006eca:	f022 0220 	bic.w	r2, r2, #32
 8006ece:	6022      	str	r2, [r4, #0]
 8006ed0:	2210      	movs	r2, #16
 8006ed2:	e7b1      	b.n	8006e38 <_printf_i+0xe0>
 8006ed4:	4675      	mov	r5, lr
 8006ed6:	fbb3 f0f2 	udiv	r0, r3, r2
 8006eda:	fb02 3310 	mls	r3, r2, r0, r3
 8006ede:	5ccb      	ldrb	r3, [r1, r3]
 8006ee0:	f805 3d01 	strb.w	r3, [r5, #-1]!
 8006ee4:	4603      	mov	r3, r0
 8006ee6:	2800      	cmp	r0, #0
 8006ee8:	d1f5      	bne.n	8006ed6 <_printf_i+0x17e>
 8006eea:	e7b7      	b.n	8006e5c <_printf_i+0x104>
 8006eec:	6808      	ldr	r0, [r1, #0]
 8006eee:	681a      	ldr	r2, [r3, #0]
 8006ef0:	6949      	ldr	r1, [r1, #20]
 8006ef2:	f010 0f80 	tst.w	r0, #128	; 0x80
 8006ef6:	d004      	beq.n	8006f02 <_printf_i+0x1aa>
 8006ef8:	1d10      	adds	r0, r2, #4
 8006efa:	6018      	str	r0, [r3, #0]
 8006efc:	6813      	ldr	r3, [r2, #0]
 8006efe:	6019      	str	r1, [r3, #0]
 8006f00:	e007      	b.n	8006f12 <_printf_i+0x1ba>
 8006f02:	f010 0f40 	tst.w	r0, #64	; 0x40
 8006f06:	f102 0004 	add.w	r0, r2, #4
 8006f0a:	6018      	str	r0, [r3, #0]
 8006f0c:	6813      	ldr	r3, [r2, #0]
 8006f0e:	d0f6      	beq.n	8006efe <_printf_i+0x1a6>
 8006f10:	8019      	strh	r1, [r3, #0]
 8006f12:	2300      	movs	r3, #0
 8006f14:	6123      	str	r3, [r4, #16]
 8006f16:	4675      	mov	r5, lr
 8006f18:	e7b1      	b.n	8006e7e <_printf_i+0x126>
 8006f1a:	681a      	ldr	r2, [r3, #0]
 8006f1c:	1d11      	adds	r1, r2, #4
 8006f1e:	6019      	str	r1, [r3, #0]
 8006f20:	6815      	ldr	r5, [r2, #0]
 8006f22:	6862      	ldr	r2, [r4, #4]
 8006f24:	2100      	movs	r1, #0
 8006f26:	4628      	mov	r0, r5
 8006f28:	f7f9 f96a 	bl	8000200 <memchr>
 8006f2c:	b108      	cbz	r0, 8006f32 <_printf_i+0x1da>
 8006f2e:	1b40      	subs	r0, r0, r5
 8006f30:	6060      	str	r0, [r4, #4]
 8006f32:	6863      	ldr	r3, [r4, #4]
 8006f34:	6123      	str	r3, [r4, #16]
 8006f36:	2300      	movs	r3, #0
 8006f38:	f884 3043 	strb.w	r3, [r4, #67]	; 0x43
 8006f3c:	e79f      	b.n	8006e7e <_printf_i+0x126>
 8006f3e:	6923      	ldr	r3, [r4, #16]
 8006f40:	462a      	mov	r2, r5
 8006f42:	4639      	mov	r1, r7
 8006f44:	4630      	mov	r0, r6
 8006f46:	47c0      	blx	r8
 8006f48:	3001      	adds	r0, #1
 8006f4a:	d0a2      	beq.n	8006e92 <_printf_i+0x13a>
 8006f4c:	6823      	ldr	r3, [r4, #0]
 8006f4e:	079b      	lsls	r3, r3, #30
 8006f50:	d507      	bpl.n	8006f62 <_printf_i+0x20a>
 8006f52:	2500      	movs	r5, #0
 8006f54:	f104 0919 	add.w	r9, r4, #25
 8006f58:	68e3      	ldr	r3, [r4, #12]
 8006f5a:	9a03      	ldr	r2, [sp, #12]
 8006f5c:	1a9b      	subs	r3, r3, r2
 8006f5e:	429d      	cmp	r5, r3
 8006f60:	db05      	blt.n	8006f6e <_printf_i+0x216>
 8006f62:	68e0      	ldr	r0, [r4, #12]
 8006f64:	9b03      	ldr	r3, [sp, #12]
 8006f66:	4298      	cmp	r0, r3
 8006f68:	bfb8      	it	lt
 8006f6a:	4618      	movlt	r0, r3
 8006f6c:	e793      	b.n	8006e96 <_printf_i+0x13e>
 8006f6e:	2301      	movs	r3, #1
 8006f70:	464a      	mov	r2, r9
 8006f72:	4639      	mov	r1, r7
 8006f74:	4630      	mov	r0, r6
 8006f76:	47c0      	blx	r8
 8006f78:	3001      	adds	r0, #1
 8006f7a:	d08a      	beq.n	8006e92 <_printf_i+0x13a>
 8006f7c:	3501      	adds	r5, #1
 8006f7e:	e7eb      	b.n	8006f58 <_printf_i+0x200>
 8006f80:	2b00      	cmp	r3, #0
 8006f82:	d1a7      	bne.n	8006ed4 <_printf_i+0x17c>
 8006f84:	780b      	ldrb	r3, [r1, #0]
 8006f86:	f884 3042 	strb.w	r3, [r4, #66]	; 0x42
 8006f8a:	f104 0542 	add.w	r5, r4, #66	; 0x42
 8006f8e:	e765      	b.n	8006e5c <_printf_i+0x104>
 8006f90:	08015668 	.word	0x08015668
 8006f94:	08015657 	.word	0x08015657

08006f98 <memcpy>:
 8006f98:	b510      	push	{r4, lr}
 8006f9a:	1e43      	subs	r3, r0, #1
 8006f9c:	440a      	add	r2, r1
 8006f9e:	4291      	cmp	r1, r2
 8006fa0:	d100      	bne.n	8006fa4 <memcpy+0xc>
 8006fa2:	bd10      	pop	{r4, pc}
 8006fa4:	f811 4b01 	ldrb.w	r4, [r1], #1
 8006fa8:	f803 4f01 	strb.w	r4, [r3, #1]!
 8006fac:	e7f7      	b.n	8006f9e <memcpy+0x6>

08006fae <memmove>:
 8006fae:	4288      	cmp	r0, r1
 8006fb0:	b510      	push	{r4, lr}
 8006fb2:	eb01 0302 	add.w	r3, r1, r2
 8006fb6:	d803      	bhi.n	8006fc0 <memmove+0x12>
 8006fb8:	1e42      	subs	r2, r0, #1
 8006fba:	4299      	cmp	r1, r3
 8006fbc:	d10c      	bne.n	8006fd8 <memmove+0x2a>
 8006fbe:	bd10      	pop	{r4, pc}
 8006fc0:	4298      	cmp	r0, r3
 8006fc2:	d2f9      	bcs.n	8006fb8 <memmove+0xa>
 8006fc4:	1881      	adds	r1, r0, r2
 8006fc6:	1ad2      	subs	r2, r2, r3
 8006fc8:	42d3      	cmn	r3, r2
 8006fca:	d100      	bne.n	8006fce <memmove+0x20>
 8006fcc:	bd10      	pop	{r4, pc}
 8006fce:	f813 4d01 	ldrb.w	r4, [r3, #-1]!
 8006fd2:	f801 4d01 	strb.w	r4, [r1, #-1]!
 8006fd6:	e7f7      	b.n	8006fc8 <memmove+0x1a>
 8006fd8:	f811 4b01 	ldrb.w	r4, [r1], #1
 8006fdc:	f802 4f01 	strb.w	r4, [r2, #1]!
 8006fe0:	e7eb      	b.n	8006fba <memmove+0xc>
	...

08006fe4 <_free_r>:
 8006fe4:	b538      	push	{r3, r4, r5, lr}
 8006fe6:	4605      	mov	r5, r0
 8006fe8:	2900      	cmp	r1, #0
 8006fea:	d045      	beq.n	8007078 <_free_r+0x94>
 8006fec:	f851 3c04 	ldr.w	r3, [r1, #-4]
 8006ff0:	1f0c      	subs	r4, r1, #4
 8006ff2:	2b00      	cmp	r3, #0
 8006ff4:	bfb8      	it	lt
 8006ff6:	18e4      	addlt	r4, r4, r3
 8006ff8:	f000 f8d6 	bl	80071a8 <__malloc_lock>
 8006ffc:	4a1f      	ldr	r2, [pc, #124]	; (800707c <_free_r+0x98>)
 8006ffe:	6813      	ldr	r3, [r2, #0]
 8007000:	4610      	mov	r0, r2
 8007002:	b933      	cbnz	r3, 8007012 <_free_r+0x2e>
 8007004:	6063      	str	r3, [r4, #4]
 8007006:	6014      	str	r4, [r2, #0]
 8007008:	4628      	mov	r0, r5
 800700a:	e8bd 4038 	ldmia.w	sp!, {r3, r4, r5, lr}
 800700e:	f000 b8cc 	b.w	80071aa <__malloc_unlock>
 8007012:	42a3      	cmp	r3, r4
 8007014:	d90c      	bls.n	8007030 <_free_r+0x4c>
 8007016:	6821      	ldr	r1, [r4, #0]
 8007018:	1862      	adds	r2, r4, r1
 800701a:	4293      	cmp	r3, r2
 800701c:	bf04      	itt	eq
 800701e:	681a      	ldreq	r2, [r3, #0]
 8007020:	685b      	ldreq	r3, [r3, #4]
 8007022:	6063      	str	r3, [r4, #4]
 8007024:	bf04      	itt	eq
 8007026:	1852      	addeq	r2, r2, r1
 8007028:	6022      	streq	r2, [r4, #0]
 800702a:	6004      	str	r4, [r0, #0]
 800702c:	e7ec      	b.n	8007008 <_free_r+0x24>
 800702e:	4613      	mov	r3, r2
 8007030:	685a      	ldr	r2, [r3, #4]
 8007032:	b10a      	cbz	r2, 8007038 <_free_r+0x54>
 8007034:	42a2      	cmp	r2, r4
 8007036:	d9fa      	bls.n	800702e <_free_r+0x4a>
 8007038:	6819      	ldr	r1, [r3, #0]
 800703a:	1858      	adds	r0, r3, r1
 800703c:	42a0      	cmp	r0, r4
 800703e:	d10b      	bne.n	8007058 <_free_r+0x74>
 8007040:	6820      	ldr	r0, [r4, #0]
 8007042:	4401      	add	r1, r0
 8007044:	1858      	adds	r0, r3, r1
 8007046:	4282      	cmp	r2, r0
 8007048:	6019      	str	r1, [r3, #0]
 800704a:	d1dd      	bne.n	8007008 <_free_r+0x24>
 800704c:	6810      	ldr	r0, [r2, #0]
 800704e:	6852      	ldr	r2, [r2, #4]
 8007050:	605a      	str	r2, [r3, #4]
 8007052:	4401      	add	r1, r0
 8007054:	6019      	str	r1, [r3, #0]
 8007056:	e7d7      	b.n	8007008 <_free_r+0x24>
 8007058:	d902      	bls.n	8007060 <_free_r+0x7c>
 800705a:	230c      	movs	r3, #12
 800705c:	602b      	str	r3, [r5, #0]
 800705e:	e7d3      	b.n	8007008 <_free_r+0x24>
 8007060:	6820      	ldr	r0, [r4, #0]
 8007062:	1821      	adds	r1, r4, r0
 8007064:	428a      	cmp	r2, r1
 8007066:	bf04      	itt	eq
 8007068:	6811      	ldreq	r1, [r2, #0]
 800706a:	6852      	ldreq	r2, [r2, #4]
 800706c:	6062      	str	r2, [r4, #4]
 800706e:	bf04      	itt	eq
 8007070:	1809      	addeq	r1, r1, r0
 8007072:	6021      	streq	r1, [r4, #0]
 8007074:	605c      	str	r4, [r3, #4]
 8007076:	e7c7      	b.n	8007008 <_free_r+0x24>
 8007078:	bd38      	pop	{r3, r4, r5, pc}
 800707a:	bf00      	nop
 800707c:	20000a4c 	.word	0x20000a4c

08007080 <_malloc_r>:
 8007080:	b570      	push	{r4, r5, r6, lr}
 8007082:	1ccd      	adds	r5, r1, #3
 8007084:	f025 0503 	bic.w	r5, r5, #3
 8007088:	3508      	adds	r5, #8
 800708a:	2d0c      	cmp	r5, #12
 800708c:	bf38      	it	cc
 800708e:	250c      	movcc	r5, #12
 8007090:	2d00      	cmp	r5, #0
 8007092:	4606      	mov	r6, r0
 8007094:	db01      	blt.n	800709a <_malloc_r+0x1a>
 8007096:	42a9      	cmp	r1, r5
 8007098:	d903      	bls.n	80070a2 <_malloc_r+0x22>
 800709a:	230c      	movs	r3, #12
 800709c:	6033      	str	r3, [r6, #0]
 800709e:	2000      	movs	r0, #0
 80070a0:	bd70      	pop	{r4, r5, r6, pc}
 80070a2:	f000 f881 	bl	80071a8 <__malloc_lock>
 80070a6:	4a23      	ldr	r2, [pc, #140]	; (8007134 <_malloc_r+0xb4>)
 80070a8:	6814      	ldr	r4, [r2, #0]
 80070aa:	4621      	mov	r1, r4
 80070ac:	b991      	cbnz	r1, 80070d4 <_malloc_r+0x54>
 80070ae:	4c22      	ldr	r4, [pc, #136]	; (8007138 <_malloc_r+0xb8>)
 80070b0:	6823      	ldr	r3, [r4, #0]
 80070b2:	b91b      	cbnz	r3, 80070bc <_malloc_r+0x3c>
 80070b4:	4630      	mov	r0, r6
 80070b6:	f000 f867 	bl	8007188 <_sbrk_r>
 80070ba:	6020      	str	r0, [r4, #0]
 80070bc:	4629      	mov	r1, r5
 80070be:	4630      	mov	r0, r6
 80070c0:	f000 f862 	bl	8007188 <_sbrk_r>
 80070c4:	1c43      	adds	r3, r0, #1
 80070c6:	d126      	bne.n	8007116 <_malloc_r+0x96>
 80070c8:	230c      	movs	r3, #12
 80070ca:	6033      	str	r3, [r6, #0]
 80070cc:	4630      	mov	r0, r6
 80070ce:	f000 f86c 	bl	80071aa <__malloc_unlock>
 80070d2:	e7e4      	b.n	800709e <_malloc_r+0x1e>
 80070d4:	680b      	ldr	r3, [r1, #0]
 80070d6:	1b5b      	subs	r3, r3, r5
 80070d8:	d41a      	bmi.n	8007110 <_malloc_r+0x90>
 80070da:	2b0b      	cmp	r3, #11
 80070dc:	d90f      	bls.n	80070fe <_malloc_r+0x7e>
 80070de:	600b      	str	r3, [r1, #0]
 80070e0:	50cd      	str	r5, [r1, r3]
 80070e2:	18cc      	adds	r4, r1, r3
 80070e4:	4630      	mov	r0, r6
 80070e6:	f000 f860 	bl	80071aa <__malloc_unlock>
 80070ea:	f104 000b 	add.w	r0, r4, #11
 80070ee:	1d23      	adds	r3, r4, #4
 80070f0:	f020 0007 	bic.w	r0, r0, #7
 80070f4:	1ac3      	subs	r3, r0, r3
 80070f6:	d01b      	beq.n	8007130 <_malloc_r+0xb0>
 80070f8:	425a      	negs	r2, r3
 80070fa:	50e2      	str	r2, [r4, r3]
 80070fc:	bd70      	pop	{r4, r5, r6, pc}
 80070fe:	428c      	cmp	r4, r1
 8007100:	bf0d      	iteet	eq
 8007102:	6863      	ldreq	r3, [r4, #4]
 8007104:	684b      	ldrne	r3, [r1, #4]
 8007106:	6063      	strne	r3, [r4, #4]
 8007108:	6013      	streq	r3, [r2, #0]
 800710a:	bf18      	it	ne
 800710c:	460c      	movne	r4, r1
 800710e:	e7e9      	b.n	80070e4 <_malloc_r+0x64>
 8007110:	460c      	mov	r4, r1
 8007112:	6849      	ldr	r1, [r1, #4]
 8007114:	e7ca      	b.n	80070ac <_malloc_r+0x2c>
 8007116:	1cc4      	adds	r4, r0, #3
 8007118:	f024 0403 	bic.w	r4, r4, #3
 800711c:	42a0      	cmp	r0, r4
 800711e:	d005      	beq.n	800712c <_malloc_r+0xac>
 8007120:	1a21      	subs	r1, r4, r0
 8007122:	4630      	mov	r0, r6
 8007124:	f000 f830 	bl	8007188 <_sbrk_r>
 8007128:	3001      	adds	r0, #1
 800712a:	d0cd      	beq.n	80070c8 <_malloc_r+0x48>
 800712c:	6025      	str	r5, [r4, #0]
 800712e:	e7d9      	b.n	80070e4 <_malloc_r+0x64>
 8007130:	bd70      	pop	{r4, r5, r6, pc}
 8007132:	bf00      	nop
 8007134:	20000a4c 	.word	0x20000a4c
 8007138:	20000a50 	.word	0x20000a50

0800713c <_realloc_r>:
 800713c:	b5f8      	push	{r3, r4, r5, r6, r7, lr}
 800713e:	4607      	mov	r7, r0
 8007140:	4614      	mov	r4, r2
 8007142:	460e      	mov	r6, r1
 8007144:	b921      	cbnz	r1, 8007150 <_realloc_r+0x14>
 8007146:	4611      	mov	r1, r2
 8007148:	e8bd 40f8 	ldmia.w	sp!, {r3, r4, r5, r6, r7, lr}
 800714c:	f7ff bf98 	b.w	8007080 <_malloc_r>
 8007150:	b922      	cbnz	r2, 800715c <_realloc_r+0x20>
 8007152:	f7ff ff47 	bl	8006fe4 <_free_r>
 8007156:	4625      	mov	r5, r4
 8007158:	4628      	mov	r0, r5
 800715a:	bdf8      	pop	{r3, r4, r5, r6, r7, pc}
 800715c:	f000 f826 	bl	80071ac <_malloc_usable_size_r>
 8007160:	4284      	cmp	r4, r0
 8007162:	d90f      	bls.n	8007184 <_realloc_r+0x48>
 8007164:	4621      	mov	r1, r4
 8007166:	4638      	mov	r0, r7
 8007168:	f7ff ff8a 	bl	8007080 <_malloc_r>
 800716c:	4605      	mov	r5, r0
 800716e:	2800      	cmp	r0, #0
 8007170:	d0f2      	beq.n	8007158 <_realloc_r+0x1c>
 8007172:	4631      	mov	r1, r6
 8007174:	4622      	mov	r2, r4
 8007176:	f7ff ff0f 	bl	8006f98 <memcpy>
 800717a:	4631      	mov	r1, r6
 800717c:	4638      	mov	r0, r7
 800717e:	f7ff ff31 	bl	8006fe4 <_free_r>
 8007182:	e7e9      	b.n	8007158 <_realloc_r+0x1c>
 8007184:	4635      	mov	r5, r6
 8007186:	e7e7      	b.n	8007158 <_realloc_r+0x1c>

08007188 <_sbrk_r>:
 8007188:	b538      	push	{r3, r4, r5, lr}
 800718a:	4c06      	ldr	r4, [pc, #24]	; (80071a4 <_sbrk_r+0x1c>)
 800718c:	2300      	movs	r3, #0
 800718e:	4605      	mov	r5, r0
 8007190:	4608      	mov	r0, r1
 8007192:	6023      	str	r3, [r4, #0]
 8007194:	f000 f814 	bl	80071c0 <_sbrk>
 8007198:	1c43      	adds	r3, r0, #1
 800719a:	d102      	bne.n	80071a2 <_sbrk_r+0x1a>
 800719c:	6823      	ldr	r3, [r4, #0]
 800719e:	b103      	cbz	r3, 80071a2 <_sbrk_r+0x1a>
 80071a0:	602b      	str	r3, [r5, #0]
 80071a2:	bd38      	pop	{r3, r4, r5, pc}
 80071a4:	20000e30 	.word	0x20000e30

080071a8 <__malloc_lock>:
 80071a8:	4770      	bx	lr

080071aa <__malloc_unlock>:
 80071aa:	4770      	bx	lr

080071ac <_malloc_usable_size_r>:
 80071ac:	f851 0c04 	ldr.w	r0, [r1, #-4]
 80071b0:	2800      	cmp	r0, #0
 80071b2:	f1a0 0004 	sub.w	r0, r0, #4
 80071b6:	bfbc      	itt	lt
 80071b8:	580b      	ldrlt	r3, [r1, r0]
 80071ba:	18c0      	addlt	r0, r0, r3
 80071bc:	4770      	bx	lr
	...

080071c0 <_sbrk>:
 80071c0:	4b04      	ldr	r3, [pc, #16]	; (80071d4 <_sbrk+0x14>)
 80071c2:	6819      	ldr	r1, [r3, #0]
 80071c4:	4602      	mov	r2, r0
 80071c6:	b909      	cbnz	r1, 80071cc <_sbrk+0xc>
 80071c8:	4903      	ldr	r1, [pc, #12]	; (80071d8 <_sbrk+0x18>)
 80071ca:	6019      	str	r1, [r3, #0]
 80071cc:	6818      	ldr	r0, [r3, #0]
 80071ce:	4402      	add	r2, r0
 80071d0:	601a      	str	r2, [r3, #0]
 80071d2:	4770      	bx	lr
 80071d4:	20000a54 	.word	0x20000a54
 80071d8:	20000e34 	.word	0x20000e34

080071dc <_init>:
 80071dc:	b5f8      	push	{r3, r4, r5, r6, r7, lr}
 80071de:	bf00      	nop
 80071e0:	bcf8      	pop	{r3, r4, r5, r6, r7}
 80071e2:	bc08      	pop	{r3}
 80071e4:	469e      	mov	lr, r3
 80071e6:	4770      	bx	lr

080071e8 <_fini>:
 80071e8:	b5f8      	push	{r3, r4, r5, r6, r7, lr}
 80071ea:	bf00      	nop
 80071ec:	bcf8      	pop	{r3, r4, r5, r6, r7}
 80071ee:	bc08      	pop	{r3}
 80071f0:	469e      	mov	lr, r3
 80071f2:	4770      	bx	lr
